
SMART_WAKE_UP.axf:     file format elf32-littlearm


Disassembly of section ER_RO:

08000000 <__Vectors>:
 8000000:	20023ea8 	andcs	r3, r2, r8, lsr #29
 8000004:	0800038d 	stmdaeq	r0, {r0, r2, r3, r7, r8, r9}
 8000008:	08000395 	stmdaeq	r0, {r0, r2, r4, r7, r8, r9}
 800000c:	08000397 	stmdaeq	r0, {r0, r1, r2, r4, r7, r8, r9}
 8000010:	08000399 	stmdaeq	r0, {r0, r3, r4, r7, r8, r9}
 8000014:	0800039b 	stmdaeq	r0, {r0, r1, r3, r4, r7, r8, r9}
 8000018:	0800039d 	stmdaeq	r0, {r0, r2, r3, r4, r7, r8, r9}
	...
 800002c:	0800039f 	stmdaeq	r0, {r0, r1, r2, r3, r4, r7, r8, r9}
 8000030:	080003a1 	stmdaeq	r0, {r0, r5, r7, r8, r9}
 8000034:	00000000 	andeq	r0, r0, r0
 8000038:	080003a3 	stmdaeq	r0, {r0, r1, r5, r7, r8, r9}
 800003c:	080003a5 	stmdaeq	r0, {r0, r2, r5, r7, r8, r9}
 8000040:	080003a7 	stmdaeq	r0, {r0, r1, r2, r5, r7, r8, r9}
 8000044:	080003a7 	stmdaeq	r0, {r0, r1, r2, r5, r7, r8, r9}
 8000048:	080003a7 	stmdaeq	r0, {r0, r1, r2, r5, r7, r8, r9}
 800004c:	080003a7 	stmdaeq	r0, {r0, r1, r2, r5, r7, r8, r9}
 8000050:	080003a7 	stmdaeq	r0, {r0, r1, r2, r5, r7, r8, r9}
 8000054:	080003a7 	stmdaeq	r0, {r0, r1, r2, r5, r7, r8, r9}
 8000058:	080003a7 	stmdaeq	r0, {r0, r1, r2, r5, r7, r8, r9}
 800005c:	080003a7 	stmdaeq	r0, {r0, r1, r2, r5, r7, r8, r9}
 8000060:	08001a31 	stmdaeq	r0, {r0, r4, r5, r9, fp, ip}
 8000064:	08001a71 	stmdaeq	r0, {r0, r4, r5, r6, r9, fp, ip}
 8000068:	08001aa9 	stmdaeq	r0, {r0, r3, r5, r7, r9, fp, ip}
 800006c:	080003a7 	stmdaeq	r0, {r0, r1, r2, r5, r7, r8, r9}
 8000070:	080003a7 	stmdaeq	r0, {r0, r1, r2, r5, r7, r8, r9}
 8000074:	080003a7 	stmdaeq	r0, {r0, r1, r2, r5, r7, r8, r9}
 8000078:	080003a7 	stmdaeq	r0, {r0, r1, r2, r5, r7, r8, r9}
 800007c:	080003a7 	stmdaeq	r0, {r0, r1, r2, r5, r7, r8, r9}
 8000080:	080003a7 	stmdaeq	r0, {r0, r1, r2, r5, r7, r8, r9}
 8000084:	080003a7 	stmdaeq	r0, {r0, r1, r2, r5, r7, r8, r9}
 8000088:	080003a7 	stmdaeq	r0, {r0, r1, r2, r5, r7, r8, r9}
 800008c:	080003a7 	stmdaeq	r0, {r0, r1, r2, r5, r7, r8, r9}
 8000090:	080003a7 	stmdaeq	r0, {r0, r1, r2, r5, r7, r8, r9}
 8000094:	080003a7 	stmdaeq	r0, {r0, r1, r2, r5, r7, r8, r9}
 8000098:	080003a7 	stmdaeq	r0, {r0, r1, r2, r5, r7, r8, r9}
 800009c:	080003a7 	stmdaeq	r0, {r0, r1, r2, r5, r7, r8, r9}
 80000a0:	080003a7 	stmdaeq	r0, {r0, r1, r2, r5, r7, r8, r9}
 80000a4:	080003a7 	stmdaeq	r0, {r0, r1, r2, r5, r7, r8, r9}
 80000a8:	080003a7 	stmdaeq	r0, {r0, r1, r2, r5, r7, r8, r9}
 80000ac:	080003a7 	stmdaeq	r0, {r0, r1, r2, r5, r7, r8, r9}
 80000b0:	08002849 	stmdaeq	r0, {r0, r3, r6, fp, sp}
 80000b4:	080003a7 	stmdaeq	r0, {r0, r1, r2, r5, r7, r8, r9}
 80000b8:	080003a7 	stmdaeq	r0, {r0, r1, r2, r5, r7, r8, r9}
 80000bc:	080003a7 	stmdaeq	r0, {r0, r1, r2, r5, r7, r8, r9}
 80000c0:	080003a7 	stmdaeq	r0, {r0, r1, r2, r5, r7, r8, r9}
 80000c4:	080003a7 	stmdaeq	r0, {r0, r1, r2, r5, r7, r8, r9}
 80000c8:	080003a7 	stmdaeq	r0, {r0, r1, r2, r5, r7, r8, r9}
 80000cc:	080003a7 	stmdaeq	r0, {r0, r1, r2, r5, r7, r8, r9}
 80000d0:	080003a7 	stmdaeq	r0, {r0, r1, r2, r5, r7, r8, r9}
 80000d4:	080003a7 	stmdaeq	r0, {r0, r1, r2, r5, r7, r8, r9}
 80000d8:	08002981 	stmdaeq	r0, {r0, r7, r8, fp, sp}
 80000dc:	080003a7 	stmdaeq	r0, {r0, r1, r2, r5, r7, r8, r9}
 80000e0:	080019f1 	stmdaeq	r0, {r0, r4, r5, r6, r7, r8, fp, ip}
 80000e4:	080003a7 	stmdaeq	r0, {r0, r1, r2, r5, r7, r8, r9}
 80000e8:	080003a7 	stmdaeq	r0, {r0, r1, r2, r5, r7, r8, r9}
 80000ec:	080003a7 	stmdaeq	r0, {r0, r1, r2, r5, r7, r8, r9}
 80000f0:	080003a7 	stmdaeq	r0, {r0, r1, r2, r5, r7, r8, r9}
 80000f4:	080003a7 	stmdaeq	r0, {r0, r1, r2, r5, r7, r8, r9}
 80000f8:	080003a7 	stmdaeq	r0, {r0, r1, r2, r5, r7, r8, r9}
 80000fc:	080003a7 	stmdaeq	r0, {r0, r1, r2, r5, r7, r8, r9}
 8000100:	080003a7 	stmdaeq	r0, {r0, r1, r2, r5, r7, r8, r9}
 8000104:	080003a7 	stmdaeq	r0, {r0, r1, r2, r5, r7, r8, r9}
 8000108:	080003a7 	stmdaeq	r0, {r0, r1, r2, r5, r7, r8, r9}
 800010c:	080003a7 	stmdaeq	r0, {r0, r1, r2, r5, r7, r8, r9}
 8000110:	080003a7 	stmdaeq	r0, {r0, r1, r2, r5, r7, r8, r9}
 8000114:	080003a7 	stmdaeq	r0, {r0, r1, r2, r5, r7, r8, r9}
 8000118:	080003a7 	stmdaeq	r0, {r0, r1, r2, r5, r7, r8, r9}
 800011c:	080003a7 	stmdaeq	r0, {r0, r1, r2, r5, r7, r8, r9}
 8000120:	080003a7 	stmdaeq	r0, {r0, r1, r2, r5, r7, r8, r9}
 8000124:	080003a7 	stmdaeq	r0, {r0, r1, r2, r5, r7, r8, r9}
 8000128:	080003a7 	stmdaeq	r0, {r0, r1, r2, r5, r7, r8, r9}
 800012c:	080003a7 	stmdaeq	r0, {r0, r1, r2, r5, r7, r8, r9}
 8000130:	080003a7 	stmdaeq	r0, {r0, r1, r2, r5, r7, r8, r9}
 8000134:	080003a7 	stmdaeq	r0, {r0, r1, r2, r5, r7, r8, r9}
 8000138:	080003a7 	stmdaeq	r0, {r0, r1, r2, r5, r7, r8, r9}
 800013c:	080003a7 	stmdaeq	r0, {r0, r1, r2, r5, r7, r8, r9}
 8000140:	080003a7 	stmdaeq	r0, {r0, r1, r2, r5, r7, r8, r9}
 8000144:	080003a7 	stmdaeq	r0, {r0, r1, r2, r5, r7, r8, r9}
 8000148:	080003a7 	stmdaeq	r0, {r0, r1, r2, r5, r7, r8, r9}
 800014c:	080003a7 	stmdaeq	r0, {r0, r1, r2, r5, r7, r8, r9}
 8000150:	080003a7 	stmdaeq	r0, {r0, r1, r2, r5, r7, r8, r9}
 8000154:	080003a7 	stmdaeq	r0, {r0, r1, r2, r5, r7, r8, r9}
 8000158:	080003a7 	stmdaeq	r0, {r0, r1, r2, r5, r7, r8, r9}
 800015c:	080003a7 	stmdaeq	r0, {r0, r1, r2, r5, r7, r8, r9}
 8000160:	080003a7 	stmdaeq	r0, {r0, r1, r2, r5, r7, r8, r9}
 8000164:	080003a7 	stmdaeq	r0, {r0, r1, r2, r5, r7, r8, r9}
 8000168:	080003a7 	stmdaeq	r0, {r0, r1, r2, r5, r7, r8, r9}
 800016c:	080003a7 	stmdaeq	r0, {r0, r1, r2, r5, r7, r8, r9}
 8000170:	080003a7 	stmdaeq	r0, {r0, r1, r2, r5, r7, r8, r9}
 8000174:	080003a7 	stmdaeq	r0, {r0, r1, r2, r5, r7, r8, r9}
 8000178:	080003a7 	stmdaeq	r0, {r0, r1, r2, r5, r7, r8, r9}
 800017c:	00000000 	andeq	r0, r0, r0
 8000180:	080003a7 	stmdaeq	r0, {r0, r1, r2, r5, r7, r8, r9}
 8000184:	080003a7 	stmdaeq	r0, {r0, r1, r2, r5, r7, r8, r9}
 8000188:	080003a7 	stmdaeq	r0, {r0, r1, r2, r5, r7, r8, r9}
 800018c:	080003a7 	stmdaeq	r0, {r0, r1, r2, r5, r7, r8, r9}
 8000190:	080003a7 	stmdaeq	r0, {r0, r1, r2, r5, r7, r8, r9}
 8000194:	080003a7 	stmdaeq	r0, {r0, r1, r2, r5, r7, r8, r9}
 8000198:	080003a7 	stmdaeq	r0, {r0, r1, r2, r5, r7, r8, r9}
 800019c:	080003a7 	stmdaeq	r0, {r0, r1, r2, r5, r7, r8, r9}
 80001a0:	080003a7 	stmdaeq	r0, {r0, r1, r2, r5, r7, r8, r9}
 80001a4:	080003a7 	stmdaeq	r0, {r0, r1, r2, r5, r7, r8, r9}
 80001a8:	080003a7 	stmdaeq	r0, {r0, r1, r2, r5, r7, r8, r9}
 80001ac:	080003a7 	stmdaeq	r0, {r0, r1, r2, r5, r7, r8, r9}
 80001b0:	080003a7 	stmdaeq	r0, {r0, r1, r2, r5, r7, r8, r9}
 80001b4:	080003a7 	stmdaeq	r0, {r0, r1, r2, r5, r7, r8, r9}
 80001b8:	080003a7 	stmdaeq	r0, {r0, r1, r2, r5, r7, r8, r9}
 80001bc:	080003a7 	stmdaeq	r0, {r0, r1, r2, r5, r7, r8, r9}
 80001c0:	080003a7 	stmdaeq	r0, {r0, r1, r2, r5, r7, r8, r9}
 80001c4:	080003a7 	stmdaeq	r0, {r0, r1, r2, r5, r7, r8, r9}
 80001c8:	00000000 	andeq	r0, r0, r0
 80001cc:	080003a7 	stmdaeq	r0, {r0, r1, r2, r5, r7, r8, r9}
 80001d0:	080003a7 	stmdaeq	r0, {r0, r1, r2, r5, r7, r8, r9}
 80001d4:	080003a7 	stmdaeq	r0, {r0, r1, r2, r5, r7, r8, r9}
 80001d8:	080003a7 	stmdaeq	r0, {r0, r1, r2, r5, r7, r8, r9}
 80001dc:	080003a7 	stmdaeq	r0, {r0, r1, r2, r5, r7, r8, r9}
 80001e0:	080003a7 	stmdaeq	r0, {r0, r1, r2, r5, r7, r8, r9}
 80001e4:	080003a7 	stmdaeq	r0, {r0, r1, r2, r5, r7, r8, r9}
 80001e8:	080003a7 	stmdaeq	r0, {r0, r1, r2, r5, r7, r8, r9}
 80001ec:	080003a7 	stmdaeq	r0, {r0, r1, r2, r5, r7, r8, r9}
 80001f0:	080003a7 	stmdaeq	r0, {r0, r1, r2, r5, r7, r8, r9}
 80001f4:	080003a7 	stmdaeq	r0, {r0, r1, r2, r5, r7, r8, r9}

080001f8 <__main>:
__main():
 80001f8:	f000 f802 	bl	8000200 <__scatterload_rt2>
 80001fc:	f000 f8b6 	bl	800036c <__rt_entry>

08000200 <__scatterload_rt2>:
__scatterload_rt2():
 8000200:	a00a      	add	r0, pc, #40	; (adr r0, 800022c <__scatterload_null+0x1e>)
 8000202:	e890 0c00 	ldmia.w	r0, {sl, fp}
 8000206:	4482      	add	sl, r0
 8000208:	4483      	add	fp, r0
 800020a:	f1aa 0701 	sub.w	r7, sl, #1

0800020e <__scatterload_null>:
 800020e:	45da      	cmp	sl, fp
 8000210:	d101      	bne.n	8000216 <__scatterload_null+0x8>
 8000212:	f000 f8ab 	bl	800036c <__rt_entry>
 8000216:	f2af 0e09 	subw	lr, pc, #9
 800021a:	e8ba 000f 	ldmia.w	sl!, {r0, r1, r2, r3}
 800021e:	f013 0f01 	tst.w	r3, #1
 8000222:	bf18      	it	ne
 8000224:	1afb      	subne	r3, r7, r3
 8000226:	f043 0301 	orr.w	r3, r3, #1
 800022a:	4718      	bx	r3
__scatterload_null():
 800022c:	00003cc8 	andeq	r3, r0, r8, asr #25
 8000230:	00003ce8 	andeq	r3, r0, r8, ror #25

08000234 <__decompress>:
__decompress():
 8000234:	440a      	add	r2, r1
 8000236:	f810 3b01 	ldrb.w	r3, [r0], #1
 800023a:	f013 0403 	ands.w	r4, r3, #3
 800023e:	bf08      	it	eq
 8000240:	f810 4b01 	ldrbeq.w	r4, [r0], #1
 8000244:	111d      	asrs	r5, r3, #4
 8000246:	bf08      	it	eq
 8000248:	f810 5b01 	ldrbeq.w	r5, [r0], #1
 800024c:	1e64      	subs	r4, r4, #1
 800024e:	d005      	beq.n	800025c <__decompress+0x28>
 8000250:	f810 6b01 	ldrb.w	r6, [r0], #1
 8000254:	1e64      	subs	r4, r4, #1
 8000256:	f801 6b01 	strb.w	r6, [r1], #1
 800025a:	d1f9      	bne.n	8000250 <__decompress+0x1c>
 800025c:	2d00      	cmp	r5, #0
 800025e:	d015      	beq.n	800028c <__decompress+0x58>
 8000260:	f810 4b01 	ldrb.w	r4, [r0], #1
 8000264:	f003 030c 	and.w	r3, r3, #12
 8000268:	2b0c      	cmp	r3, #12
 800026a:	eba1 0404 	sub.w	r4, r1, r4
 800026e:	bf0a      	itet	eq
 8000270:	f810 3b01 	ldrbeq.w	r3, [r0], #1
 8000274:	eba4 1483 	subne.w	r4, r4, r3, lsl #6
 8000278:	eba4 2403 	subeq.w	r4, r4, r3, lsl #8
 800027c:	f105 0301 	add.w	r3, r5, #1
 8000280:	f814 6b01 	ldrb.w	r6, [r4], #1
 8000284:	1e5b      	subs	r3, r3, #1
 8000286:	f801 6b01 	strb.w	r6, [r1], #1
 800028a:	d5f9      	bpl.n	8000280 <__decompress+0x4c>
 800028c:	4291      	cmp	r1, r2
 800028e:	bf38      	it	cc
 8000290:	f810 3b01 	ldrbcc.w	r3, [r0], #1
 8000294:	d3d1      	bcc.n	800023a <__decompress+0x6>
 8000296:	4770      	bx	lr

08000298 <__scatterload_zeroinit>:
__scatterload_zeroinit():
 8000298:	2300      	movs	r3, #0
 800029a:	2400      	movs	r4, #0
 800029c:	2500      	movs	r5, #0
 800029e:	2600      	movs	r6, #0
 80002a0:	3a10      	subs	r2, #16
 80002a2:	bf28      	it	cs
 80002a4:	c178      	stmiacs	r1!, {r3, r4, r5, r6}
 80002a6:	d8fb      	bhi.n	80002a0 <__scatterload_zeroinit+0x8>
 80002a8:	0752      	lsls	r2, r2, #29
 80002aa:	bf28      	it	cs
 80002ac:	c130      	stmiacs	r1!, {r4, r5}
 80002ae:	bf48      	it	mi
 80002b0:	600b      	strmi	r3, [r1, #0]
 80002b2:	4770      	bx	lr

080002b4 <_printf_n>:
_printf_n():
 80002b4:	296e      	cmp	r1, #110	; 0x6e
 80002b6:	f000 813d 	beq.w	8000534 <_printf_charcount>

080002ba <_printf_p>:
_printf_p():
 80002ba:	2970      	cmp	r1, #112	; 0x70
 80002bc:	f000 827f 	beq.w	80007be <_printf_hex_ptr>

080002c0 <_printf_f>:
_printf_f():
 80002c0:	2966      	cmp	r1, #102	; 0x66
 80002c2:	f003 8506 	beq.w	8003cd2 <_printf_fp_dec>

080002c6 <_printf_e>:
_printf_e():
 80002c6:	2965      	cmp	r1, #101	; 0x65
 80002c8:	f003 8503 	beq.w	8003cd2 <_printf_fp_dec>

080002cc <_printf_g>:
_printf_g():
 80002cc:	2967      	cmp	r1, #103	; 0x67
 80002ce:	f003 8500 	beq.w	8003cd2 <_printf_fp_dec>

080002d2 <_printf_a>:
_printf_a():
 80002d2:	2961      	cmp	r1, #97	; 0x61
 80002d4:	f003 84ff 	beq.w	8003cd6 <_printf_fp_hex>

080002d8 <_printf_ll>:
_printf_ll():
 80002d8:	6803      	ldr	r3, [r0, #0]
 80002da:	0a1b      	lsrs	r3, r3, #8
 80002dc:	bf28      	it	cs
 80002de:	f041 0180 	orrcs.w	r1, r1, #128	; 0x80

080002e2 <_printf_i>:
_printf_i():
 80002e2:	2969      	cmp	r1, #105	; 0x69
 80002e4:	f000 80ea 	beq.w	80004bc <_printf_int_dec>

080002e8 <_printf_d>:
_printf_d():
 80002e8:	2964      	cmp	r1, #100	; 0x64
 80002ea:	f000 80e7 	beq.w	80004bc <_printf_int_dec>

080002ee <_printf_u>:
_printf_u():
 80002ee:	2975      	cmp	r1, #117	; 0x75
 80002f0:	f000 80e4 	beq.w	80004bc <_printf_int_dec>

080002f4 <_printf_o>:
_printf_o():
 80002f4:	296f      	cmp	r1, #111	; 0x6f
 80002f6:	f000 820d 	beq.w	8000714 <_printf_int_oct>

080002fa <_printf_x>:
_printf_x():
 80002fa:	2978      	cmp	r1, #120	; 0x78
 80002fc:	f000 824b 	beq.w	8000796 <_printf_int_hex>

08000300 <_printf_lli>:
_printf_lli():
 8000300:	29e9      	cmp	r1, #233	; 0xe9
 8000302:	f000 81a7 	beq.w	8000654 <_printf_longlong_dec>

08000306 <_printf_lld>:
_printf_lld():
 8000306:	29e4      	cmp	r1, #228	; 0xe4
 8000308:	f000 81a4 	beq.w	8000654 <_printf_longlong_dec>

0800030c <_printf_llu>:
_printf_llu():
 800030c:	29f5      	cmp	r1, #245	; 0xf5
 800030e:	f000 81a1 	beq.w	8000654 <_printf_longlong_dec>

08000312 <_printf_llo>:
_printf_llo():
 8000312:	29ef      	cmp	r1, #239	; 0xef
 8000314:	f000 820a 	beq.w	800072c <_printf_ll_oct>

08000318 <_printf_llx>:
_printf_llx():
 8000318:	29f8      	cmp	r1, #248	; 0xf8
 800031a:	f000 824a 	beq.w	80007b2 <_printf_ll_hex>

0800031e <_printf_l>:
_printf_l():
 800031e:	6803      	ldr	r3, [r0, #0]
 8000320:	09db      	lsrs	r3, r3, #7
 8000322:	bf28      	it	cs
 8000324:	f041 0180 	orrcs.w	r1, r1, #128	; 0x80

08000328 <_printf_c>:
_printf_c():
 8000328:	2963      	cmp	r1, #99	; 0x63
 800032a:	f000 874b 	beq.w	80011c4 <_printf_char>

0800032e <_printf_s>:
_printf_s():
 800032e:	2973      	cmp	r1, #115	; 0x73
 8000330:	f000 8750 	beq.w	80011d4 <_printf_string>

08000334 <_printf_lc>:
_printf_lc():
 8000334:	29e3      	cmp	r1, #227	; 0xe3
 8000336:	f000 875b 	beq.w	80011f0 <_printf_wchar>

0800033a <_printf_ls>:
_printf_ls():
 800033a:	29f3      	cmp	r1, #243	; 0xf3
 800033c:	f000 8760 	beq.w	8001200 <_printf_wstring>

08000340 <_printf_percent_end>:
_printf_percent_end():
 8000340:	2000      	movs	r0, #0
 8000342:	4770      	bx	lr

08000344 <__rt_lib_init>:
__rt_lib_init():
 8000344:	b51f      	push	{r0, r1, r2, r3, r4, lr}

08000346 <__rt_lib_init_fp_1>:
__rt_lib_init_fp_1():
 8000346:	f003 fcb7 	bl	8003cb8 <_fp_init>

0800034a <__rt_lib_init_heap_1>:
__rt_lib_init_heap_1():
 800034a:	f000 ffaf 	bl	80012ac <__rt_locale>
 800034e:	0004      	movs	r4, r0

08000350 <__rt_lib_init_lc_collate_1>:
__rt_lib_init_lc_collate_1():
 8000350:	2000      	movs	r0, #0
 8000352:	2100      	movs	r1, #0
 8000354:	f003 fc9a 	bl	8003c8c <_get_lc_ctype>
 8000358:	1c40      	adds	r0, r0, #1
 800035a:	6060      	str	r0, [r4, #4]

0800035c <__rt_lib_init_lc_ctype_1>:
__rt_lib_init_lc_ctype_1():
 800035c:	2000      	movs	r0, #0
 800035e:	2100      	movs	r1, #0
 8000360:	f003 fc7e 	bl	8003c60 <_get_lc_numeric>
 8000364:	60e0      	str	r0, [r4, #12]

08000366 <__rt_lib_init_alloca_1>:
__rt_lib_init_alloca_1():
 8000366:	bd1f      	pop	{r0, r1, r2, r3, r4, pc}

08000368 <__rt_lib_shutdown>:
__rt_lib_shutdown():
 8000368:	b510      	push	{r4, lr}

0800036a <__rt_lib_shutdown_cpp_1>:
__rt_lib_shutdown_cpp_1():
 800036a:	bd10      	pop	{r4, pc}

0800036c <__rt_entry>:
__rt_entry():
 800036c:	f000 ff70 	bl	8001250 <__user_setup_stackheap>
 8000370:	4611      	mov	r1, r2

08000372 <__rt_entry_li>:
__rt_entry_li():
 8000372:	f7ff ffe7 	bl	8000344 <__rt_lib_init>

08000376 <__rt_entry_main>:
__rt_entry_main():
 8000376:	f003 f843 	bl	8003400 <main>
 800037a:	f001 f84d 	bl	8001418 <exit>

0800037e <__rt_exit>:
__rt_exit():
 800037e:	b403      	push	{r0, r1}

08000380 <__rt_exit_ls>:
__rt_exit_ls():
 8000380:	f7ff fff2 	bl	8000368 <__rt_lib_shutdown>

08000384 <__rt_exit_exit>:
__rt_exit_exit():
 8000384:	bc03      	pop	{r0, r1}
 8000386:	f001 f895 	bl	80014b4 <_sys_exit>
	...

0800038c <Reset_Handler>:
Reset_Handler():
D:\#Documents\UVISION\SMART_WAKE_UP/RTE/Device/STM32F767ZITx//startup_stm32f767xx.s:200
 800038c:	4809      	ldr	r0, [pc, #36]	; (80003b4 <__user_initial_stackheap+0xc>)
D:\#Documents\UVISION\SMART_WAKE_UP/RTE/Device/STM32F767ZITx//startup_stm32f767xx.s:201
 800038e:	4780      	blx	r0
D:\#Documents\UVISION\SMART_WAKE_UP/RTE/Device/STM32F767ZITx//startup_stm32f767xx.s:202
 8000390:	4809      	ldr	r0, [pc, #36]	; (80003b8 <__user_initial_stackheap+0x10>)
D:\#Documents\UVISION\SMART_WAKE_UP/RTE/Device/STM32F767ZITx//startup_stm32f767xx.s:203
 8000392:	4700      	bx	r0

08000394 <NMI_Handler>:
NMI_Handler():
D:\#Documents\UVISION\SMART_WAKE_UP/RTE/Device/STM32F767ZITx//startup_stm32f767xx.s:210
 8000394:	e7fe      	b.n	8000394 <NMI_Handler>

08000396 <HardFault_Handler>:
HardFault_Handler():
D:\#Documents\UVISION\SMART_WAKE_UP/RTE/Device/STM32F767ZITx//startup_stm32f767xx.s:215
 8000396:	e7fe      	b.n	8000396 <HardFault_Handler>

08000398 <MemManage_Handler>:
MemManage_Handler():
D:\#Documents\UVISION\SMART_WAKE_UP/RTE/Device/STM32F767ZITx//startup_stm32f767xx.s:220
 8000398:	e7fe      	b.n	8000398 <MemManage_Handler>

0800039a <BusFault_Handler>:
BusFault_Handler():
D:\#Documents\UVISION\SMART_WAKE_UP/RTE/Device/STM32F767ZITx//startup_stm32f767xx.s:225
 800039a:	e7fe      	b.n	800039a <BusFault_Handler>

0800039c <UsageFault_Handler>:
UsageFault_Handler():
D:\#Documents\UVISION\SMART_WAKE_UP/RTE/Device/STM32F767ZITx//startup_stm32f767xx.s:230
 800039c:	e7fe      	b.n	800039c <UsageFault_Handler>

0800039e <SVC_Handler>:
SVC_Handler():
D:\#Documents\UVISION\SMART_WAKE_UP/RTE/Device/STM32F767ZITx//startup_stm32f767xx.s:234
 800039e:	e7fe      	b.n	800039e <SVC_Handler>

080003a0 <DebugMon_Handler>:
DebugMon_Handler():
D:\#Documents\UVISION\SMART_WAKE_UP/RTE/Device/STM32F767ZITx//startup_stm32f767xx.s:239
 80003a0:	e7fe      	b.n	80003a0 <DebugMon_Handler>

080003a2 <PendSV_Handler>:
PendSV_Handler():
D:\#Documents\UVISION\SMART_WAKE_UP/RTE/Device/STM32F767ZITx//startup_stm32f767xx.s:243
 80003a2:	e7fe      	b.n	80003a2 <PendSV_Handler>

080003a4 <SysTick_Handler>:
SysTick_Handler():
D:\#Documents\UVISION\SMART_WAKE_UP/RTE/Device/STM32F767ZITx//startup_stm32f767xx.s:247
 80003a4:	e7fe      	b.n	80003a4 <SysTick_Handler>

080003a6 <ADC_IRQHandler>:
ADC_IRQHandler():
D:\#Documents\UVISION\SMART_WAKE_UP/RTE/Device/STM32F767ZITx//startup_stm32f767xx.s:469
 80003a6:	e7fe      	b.n	80003a6 <ADC_IRQHandler>

080003a8 <__user_initial_stackheap>:
__user_initial_stackheap():
D:\#Documents\UVISION\SMART_WAKE_UP/RTE/Device/STM32F767ZITx//startup_stm32f767xx.s:491
 80003a8:	4804      	ldr	r0, [pc, #16]	; (80003bc <__user_initial_stackheap+0x14>)
D:\#Documents\UVISION\SMART_WAKE_UP/RTE/Device/STM32F767ZITx//startup_stm32f767xx.s:492
 80003aa:	4905      	ldr	r1, [pc, #20]	; (80003c0 <__user_initial_stackheap+0x18>)
D:\#Documents\UVISION\SMART_WAKE_UP/RTE/Device/STM32F767ZITx//startup_stm32f767xx.s:493
 80003ac:	4a05      	ldr	r2, [pc, #20]	; (80003c4 <__user_initial_stackheap+0x1c>)
D:\#Documents\UVISION\SMART_WAKE_UP/RTE/Device/STM32F767ZITx//startup_stm32f767xx.s:494
 80003ae:	4b06      	ldr	r3, [pc, #24]	; (80003c8 <__user_initial_stackheap+0x20>)
D:\#Documents\UVISION\SMART_WAKE_UP/RTE/Device/STM32F767ZITx//startup_stm32f767xx.s:495
 80003b0:	4770      	bx	lr
 80003b2:	28310000 	ldmdacs	r1!, {}	; <UNPREDICTABLE>
 80003b6:	01f90800 	mvnseq	r0, r0, lsl #16
 80003ba:	38a80800 	stmiacc	r8!, {fp}
 80003be:	3ea82002 	cdpcc	0, 10, cr2, cr8, cr2, {0}
 80003c2:	3aa82002 	bcc	6a083d2 <__Vectors_Size+0x6a081da>
 80003c6:	3aa82002 	bcc	6a083d6 <__Vectors_Size+0x6a081de>
 80003ca:	 	ldrlt	r2, [ip, #-2]

080003cc <vsprintf>:
vsprintf():
 80003cc:	b51c      	push	{r2, r3, r4, lr}
 80003ce:	460c      	mov	r4, r1
 80003d0:	4b06      	ldr	r3, [pc, #24]	; (80003ec <vsprintf+0x20>)
 80003d2:	447b      	add	r3, pc
 80003d4:	4669      	mov	r1, sp
 80003d6:	9000      	str	r0, [sp, #0]
 80003d8:	4620      	mov	r0, r4
 80003da:	f000 f8c4 	bl	8000566 <_printf_char_common>
 80003de:	4604      	mov	r4, r0
 80003e0:	2000      	movs	r0, #0
 80003e2:	4669      	mov	r1, sp
 80003e4:	f000 f8d2 	bl	800058c <_sputc>
 80003e8:	4620      	mov	r0, r4
 80003ea:	bd1c      	pop	{r2, r3, r4, pc}
 80003ec:	000001b7 			; <UNDEFINED> instruction: 0x000001b7

080003f0 <__use_two_region_memory>:
__use_two_region_memory():
 80003f0:	4770      	bx	lr

080003f2 <__rt_heap_escrow$2region>:
__rt_heap_escrow$2region():
 80003f2:	4770      	bx	lr

080003f4 <__rt_heap_expand$2region>:
__rt_heap_expand$2region():
 80003f4:	4770      	bx	lr

080003f6 <_printf_pre_padding>:
_printf_pre_padding():
 80003f6:	b570      	push	{r4, r5, r6, lr}
 80003f8:	4604      	mov	r4, r0
 80003fa:	6985      	ldr	r5, [r0, #24]
 80003fc:	6800      	ldr	r0, [r0, #0]
 80003fe:	06c1      	lsls	r1, r0, #27
 8000400:	d501      	bpl.n	8000406 <_printf_pre_padding+0x10>
 8000402:	2630      	movs	r6, #48	; 0x30
 8000404:	e000      	b.n	8000408 <_printf_pre_padding+0x12>
 8000406:	2620      	movs	r6, #32
 8000408:	07c0      	lsls	r0, r0, #31
 800040a:	d007      	beq.n	800041c <_printf_pre_padding+0x26>
 800040c:	bd70      	pop	{r4, r5, r6, pc}
 800040e:	e9d4 2101 	ldrd	r2, r1, [r4, #4]
 8000412:	4630      	mov	r0, r6
 8000414:	4790      	blx	r2
 8000416:	6a20      	ldr	r0, [r4, #32]
 8000418:	1c40      	adds	r0, r0, #1
 800041a:	6220      	str	r0, [r4, #32]
 800041c:	1e6d      	subs	r5, r5, #1
 800041e:	d5f6      	bpl.n	800040e <_printf_pre_padding+0x18>
 8000420:	bd70      	pop	{r4, r5, r6, pc}

08000422 <_printf_post_padding>:
_printf_post_padding():
 8000422:	b570      	push	{r4, r5, r6, lr}
 8000424:	4604      	mov	r4, r0
 8000426:	6985      	ldr	r5, [r0, #24]
 8000428:	7800      	ldrb	r0, [r0, #0]
 800042a:	07c0      	lsls	r0, r0, #31
 800042c:	d107      	bne.n	800043e <_printf_post_padding+0x1c>
 800042e:	bd70      	pop	{r4, r5, r6, pc}
 8000430:	e9d4 2101 	ldrd	r2, r1, [r4, #4]
 8000434:	2020      	movs	r0, #32
 8000436:	4790      	blx	r2
 8000438:	6a20      	ldr	r0, [r4, #32]
 800043a:	1c40      	adds	r0, r0, #1
 800043c:	6220      	str	r0, [r4, #32]
 800043e:	1e6d      	subs	r5, r5, #1
 8000440:	d5f6      	bpl.n	8000430 <_printf_post_padding+0xe>
 8000442:	bd70      	pop	{r4, r5, r6, pc}

08000444 <_printf_truncate_signed>:
_printf_truncate_signed():
 8000444:	6809      	ldr	r1, [r1, #0]
 8000446:	054a      	lsls	r2, r1, #21
 8000448:	d501      	bpl.n	800044e <_printf_truncate_signed+0xa>
 800044a:	b240      	sxtb	r0, r0
 800044c:	4770      	bx	lr
 800044e:	05c9      	lsls	r1, r1, #23
 8000450:	d5fc      	bpl.n	800044c <_printf_truncate_signed+0x8>
 8000452:	b200      	sxth	r0, r0
 8000454:	4770      	bx	lr

08000456 <_printf_truncate_unsigned>:
_printf_truncate_unsigned():
 8000456:	6809      	ldr	r1, [r1, #0]
 8000458:	054a      	lsls	r2, r1, #21
 800045a:	d501      	bpl.n	8000460 <_printf_truncate_unsigned+0xa>
 800045c:	b2c0      	uxtb	r0, r0
 800045e:	4770      	bx	lr
 8000460:	05c9      	lsls	r1, r1, #23
 8000462:	d5fc      	bpl.n	800045e <_printf_truncate_unsigned+0x8>
 8000464:	b280      	uxth	r0, r0
 8000466:	4770      	bx	lr

08000468 <_printf_str>:
_printf_str():
 8000468:	b570      	push	{r4, r5, r6, lr}
 800046a:	460c      	mov	r4, r1
 800046c:	4605      	mov	r5, r0
 800046e:	2a01      	cmp	r2, #1
 8000470:	d005      	beq.n	800047e <_printf_str+0x16>
 8000472:	7828      	ldrb	r0, [r5, #0]
 8000474:	0680      	lsls	r0, r0, #26
 8000476:	d500      	bpl.n	800047a <_printf_str+0x12>
 8000478:	69ea      	ldr	r2, [r5, #28]
 800047a:	2300      	movs	r3, #0
 800047c:	e002      	b.n	8000484 <_printf_str+0x1c>
 800047e:	2301      	movs	r3, #1
 8000480:	e005      	b.n	800048e <_printf_str+0x26>
 8000482:	1c5b      	adds	r3, r3, #1
 8000484:	4293      	cmp	r3, r2
 8000486:	d202      	bcs.n	800048e <_printf_str+0x26>
 8000488:	5ce0      	ldrb	r0, [r4, r3]
 800048a:	2800      	cmp	r0, #0
 800048c:	d1f9      	bne.n	8000482 <_printf_str+0x1a>
 800048e:	69a8      	ldr	r0, [r5, #24]
 8000490:	18e6      	adds	r6, r4, r3
 8000492:	1ac0      	subs	r0, r0, r3
 8000494:	61a8      	str	r0, [r5, #24]
 8000496:	6a28      	ldr	r0, [r5, #32]
 8000498:	4418      	add	r0, r3
 800049a:	6228      	str	r0, [r5, #32]
 800049c:	4628      	mov	r0, r5
 800049e:	f7ff ffaa 	bl	80003f6 <_printf_pre_padding>
 80004a2:	e004      	b.n	80004ae <_printf_str+0x46>
 80004a4:	e9d5 2101 	ldrd	r2, r1, [r5, #4]
 80004a8:	f814 0b01 	ldrb.w	r0, [r4], #1
 80004ac:	4790      	blx	r2
 80004ae:	42b4      	cmp	r4, r6
 80004b0:	d3f8      	bcc.n	80004a4 <_printf_str+0x3c>
 80004b2:	4628      	mov	r0, r5
 80004b4:	f7ff ffb5 	bl	8000422 <_printf_post_padding>
 80004b8:	bd70      	pop	{r4, r5, r6, pc}
	...

080004bc <_printf_int_dec>:
_printf_int_dec():
 80004bc:	e92d 41f0 	stmdb	sp!, {r4, r5, r6, r7, r8, lr}
 80004c0:	4606      	mov	r6, r0
 80004c2:	2400      	movs	r4, #0
 80004c4:	6810      	ldr	r0, [r2, #0]
 80004c6:	2975      	cmp	r1, #117	; 0x75
 80004c8:	4631      	mov	r1, r6
 80004ca:	a516      	add	r5, pc, #88	; (adr r5, 8000524 <_printf_int_dec+0x68>)
 80004cc:	d010      	beq.n	80004f0 <_printf_int_dec+0x34>
 80004ce:	f7ff ffb9 	bl	8000444 <_printf_truncate_signed>
 80004d2:	2800      	cmp	r0, #0
 80004d4:	da02      	bge.n	80004dc <_printf_int_dec+0x20>
 80004d6:	4240      	negs	r0, r0
 80004d8:	a513      	add	r5, pc, #76	; (adr r5, 8000528 <_printf_int_dec+0x6c>)
 80004da:	e007      	b.n	80004ec <_printf_int_dec+0x30>
 80004dc:	6831      	ldr	r1, [r6, #0]
 80004de:	078a      	lsls	r2, r1, #30
 80004e0:	d501      	bpl.n	80004e6 <_printf_int_dec+0x2a>
 80004e2:	a512      	add	r5, pc, #72	; (adr r5, 800052c <_printf_int_dec+0x70>)
 80004e4:	e002      	b.n	80004ec <_printf_int_dec+0x30>
 80004e6:	0749      	lsls	r1, r1, #29
 80004e8:	d504      	bpl.n	80004f4 <_printf_int_dec+0x38>
 80004ea:	a511      	add	r5, pc, #68	; (adr r5, 8000530 <_printf_int_dec+0x74>)
 80004ec:	2401      	movs	r4, #1
 80004ee:	e001      	b.n	80004f4 <_printf_int_dec+0x38>
 80004f0:	f7ff ffb1 	bl	8000456 <_printf_truncate_unsigned>
 80004f4:	2100      	movs	r1, #0
 80004f6:	220a      	movs	r2, #10
 80004f8:	f106 0724 	add.w	r7, r6, #36	; 0x24
 80004fc:	e009      	b.n	8000512 <_printf_int_dec+0x56>
 80004fe:	fbb0 fcf2 	udiv	ip, r0, r2
 8000502:	fbb0 f3f2 	udiv	r3, r0, r2
 8000506:	fb02 001c 	mls	r0, r2, ip, r0
 800050a:	3030      	adds	r0, #48	; 0x30
 800050c:	5478      	strb	r0, [r7, r1]
 800050e:	4618      	mov	r0, r3
 8000510:	1c49      	adds	r1, r1, #1
 8000512:	2800      	cmp	r0, #0
 8000514:	d1f3      	bne.n	80004fe <_printf_int_dec+0x42>
 8000516:	4623      	mov	r3, r4
 8000518:	462a      	mov	r2, r5
 800051a:	4630      	mov	r0, r6
 800051c:	e8bd 41f0 	ldmia.w	sp!, {r4, r5, r6, r7, r8, lr}
 8000520:	f000 ba61 	b.w	80009e6 <_printf_int_common>
 8000524:	00000000 	andeq	r0, r0, r0
 8000528:	0000002d 	andeq	r0, r0, sp, lsr #32
 800052c:	0000002b 	andeq	r0, r0, fp, lsr #32
 8000530:	00000020 	andeq	r0, r0, r0, lsr #32

08000534 <_printf_charcount>:
_printf_charcount():
 8000534:	6811      	ldr	r1, [r2, #0]
 8000536:	6802      	ldr	r2, [r0, #0]
 8000538:	6a00      	ldr	r0, [r0, #32]
 800053a:	0553      	lsls	r3, r2, #21
 800053c:	d501      	bpl.n	8000542 <_printf_charcount+0xe>
 800053e:	7008      	strb	r0, [r1, #0]
 8000540:	e00a      	b.n	8000558 <_printf_charcount+0x24>
 8000542:	05d3      	lsls	r3, r2, #23
 8000544:	d501      	bpl.n	800054a <_printf_charcount+0x16>
 8000546:	8008      	strh	r0, [r1, #0]
 8000548:	e006      	b.n	8000558 <_printf_charcount+0x24>
 800054a:	0613      	lsls	r3, r2, #24
 800054c:	d503      	bpl.n	8000556 <_printf_charcount+0x22>
 800054e:	17c2      	asrs	r2, r0, #31
 8000550:	e9c1 0200 	strd	r0, r2, [r1]
 8000554:	e000      	b.n	8000558 <_printf_charcount+0x24>
 8000556:	6008      	str	r0, [r1, #0]
 8000558:	2001      	movs	r0, #1
 800055a:	4770      	bx	lr

0800055c <_printf_input_char>:
_printf_input_char():
 800055c:	6901      	ldr	r1, [r0, #16]
 800055e:	1c4a      	adds	r2, r1, #1
 8000560:	6102      	str	r2, [r0, #16]
 8000562:	7808      	ldrb	r0, [r1, #0]
 8000564:	4770      	bx	lr

08000566 <_printf_char_common>:
_printf_char_common():
 8000566:	b500      	push	{lr}
 8000568:	b08f      	sub	sp, #60	; 0x3c
 800056a:	e9cd 3101 	strd	r3, r1, [sp, #4]
 800056e:	2100      	movs	r1, #0
 8000570:	9105      	str	r1, [sp, #20]
 8000572:	4905      	ldr	r1, [pc, #20]	; (8000588 <_printf_char_common+0x22>)
 8000574:	4479      	add	r1, pc
 8000576:	e9cd 1003 	strd	r1, r0, [sp, #12]
 800057a:	4611      	mov	r1, r2
 800057c:	4668      	mov	r0, sp
 800057e:	f000 f929 	bl	80007d4 <__printf>
 8000582:	b00f      	add	sp, #60	; 0x3c
 8000584:	bd00      	pop	{pc}
 8000586:	ffe50000 			; <UNDEFINED> instruction: 0xffe50000
 800058a:	 	stmdavs	sl, {r0, r1, r2, r3, r4, r5, r6, r7, r8, r9, sl, fp, ip, sp, lr, pc}

0800058c <_sputc>:
_sputc():
 800058c:	680a      	ldr	r2, [r1, #0]
 800058e:	f802 0b01 	strb.w	r0, [r2], #1
 8000592:	600a      	str	r2, [r1, #0]
 8000594:	4770      	bx	lr
	...

08000598 <_printf_wctomb>:
_printf_wctomb():
 8000598:	e92d 5fff 	stmdb	sp!, {r0, r1, r2, r3, r4, r5, r6, r7, r8, r9, sl, fp, ip, lr}
 800059c:	4615      	mov	r5, r2
 800059e:	468a      	mov	sl, r1
 80005a0:	4604      	mov	r4, r0
 80005a2:	f8df 80ac 	ldr.w	r8, [pc, #172]	; 8000650 <_printf_wctomb+0xb8>
 80005a6:	44f8      	add	r8, pc
 80005a8:	2700      	movs	r7, #0
 80005aa:	e9d8 1000 	ldrd	r1, r0, [r8]
 80005ae:	463e      	mov	r6, r7
 80005b0:	e9cd 1000 	strd	r1, r0, [sp]
 80005b4:	e010      	b.n	80005d8 <_printf_wctomb+0x40>
 80005b6:	f83a 1016 	ldrh.w	r1, [sl, r6, lsl #1]
 80005ba:	466a      	mov	r2, sp
 80005bc:	a802      	add	r0, sp, #8
 80005be:	f000 fe23 	bl	8001208 <_c16rtomb>
 80005c2:	1c41      	adds	r1, r0, #1
 80005c4:	d007      	beq.n	80005d6 <_printf_wctomb+0x3e>
 80005c6:	7821      	ldrb	r1, [r4, #0]
 80005c8:	0689      	lsls	r1, r1, #26
 80005ca:	d503      	bpl.n	80005d4 <_printf_wctomb+0x3c>
 80005cc:	69e2      	ldr	r2, [r4, #28]
 80005ce:	1839      	adds	r1, r7, r0
 80005d0:	4291      	cmp	r1, r2
 80005d2:	d80d      	bhi.n	80005f0 <_printf_wctomb+0x58>
 80005d4:	4407      	add	r7, r0
 80005d6:	1c76      	adds	r6, r6, #1
 80005d8:	7820      	ldrb	r0, [r4, #0]
 80005da:	0680      	lsls	r0, r0, #26
 80005dc:	d502      	bpl.n	80005e4 <_printf_wctomb+0x4c>
 80005de:	69e0      	ldr	r0, [r4, #28]
 80005e0:	42b8      	cmp	r0, r7
 80005e2:	dd05      	ble.n	80005f0 <_printf_wctomb+0x58>
 80005e4:	42ae      	cmp	r6, r5
 80005e6:	dbe6      	blt.n	80005b6 <_printf_wctomb+0x1e>
 80005e8:	f83a 0016 	ldrh.w	r0, [sl, r6, lsl #1]
 80005ec:	2800      	cmp	r0, #0
 80005ee:	d1e2      	bne.n	80005b6 <_printf_wctomb+0x1e>
 80005f0:	69a0      	ldr	r0, [r4, #24]
 80005f2:	1bc0      	subs	r0, r0, r7
 80005f4:	61a0      	str	r0, [r4, #24]
 80005f6:	4620      	mov	r0, r4
 80005f8:	f7ff fefd 	bl	80003f6 <_printf_pre_padding>
 80005fc:	e9d8 1000 	ldrd	r1, r0, [r8]
 8000600:	e9cd 1000 	strd	r1, r0, [sp]
 8000604:	2000      	movs	r0, #0
 8000606:	e017      	b.n	8000638 <_printf_wctomb+0xa0>
 8000608:	f83a 1018 	ldrh.w	r1, [sl, r8, lsl #1]
 800060c:	466a      	mov	r2, sp
 800060e:	a802      	add	r0, sp, #8
 8000610:	f000 fdfa 	bl	8001208 <_c16rtomb>
 8000614:	f1b0 3fff 	cmp.w	r0, #4294967295	; 0xffffffff
 8000618:	4681      	mov	r9, r0
 800061a:	d00b      	beq.n	8000634 <_printf_wctomb+0x9c>
 800061c:	2500      	movs	r5, #0
 800061e:	f10d 0b08 	add.w	fp, sp, #8
 8000622:	e005      	b.n	8000630 <_printf_wctomb+0x98>
 8000624:	e9d4 2101 	ldrd	r2, r1, [r4, #4]
 8000628:	f81b 0005 	ldrb.w	r0, [fp, r5]
 800062c:	4790      	blx	r2
 800062e:	1c6d      	adds	r5, r5, #1
 8000630:	454d      	cmp	r5, r9
 8000632:	d3f7      	bcc.n	8000624 <_printf_wctomb+0x8c>
 8000634:	f108 0001 	add.w	r0, r8, #1
 8000638:	42b0      	cmp	r0, r6
 800063a:	4680      	mov	r8, r0
 800063c:	dbe4      	blt.n	8000608 <_printf_wctomb+0x70>
 800063e:	6a20      	ldr	r0, [r4, #32]
 8000640:	4438      	add	r0, r7
 8000642:	6220      	str	r0, [r4, #32]
 8000644:	4620      	mov	r0, r4
 8000646:	f7ff feec 	bl	8000422 <_printf_post_padding>
 800064a:	e8bd 9fff 	ldmia.w	sp!, {r0, r1, r2, r3, r4, r5, r6, r7, r8, r9, sl, fp, ip, pc}
 800064e:	37320000 	ldrcc	r0, [r2, -r0]!
	...

08000654 <_printf_longlong_dec>:
_printf_longlong_dec():
 8000654:	e92d 41f0 	stmdb	sp!, {r4, r5, r6, r7, r8, lr}
 8000658:	4680      	mov	r8, r0
 800065a:	1dd2      	adds	r2, r2, #7
 800065c:	f022 0207 	bic.w	r2, r2, #7
 8000660:	2500      	movs	r5, #0
 8000662:	e9d2 0200 	ldrd	r0, r2, [r2]
 8000666:	29f5      	cmp	r1, #245	; 0xf5
 8000668:	a615      	add	r6, pc, #84	; (adr r6, 80006c0 <_printf_longlong_dec+0x6c>)
 800066a:	d014      	beq.n	8000696 <_printf_longlong_dec+0x42>
 800066c:	1e01      	subs	r1, r0, #0
 800066e:	f172 0100 	sbcs.w	r1, r2, #0
 8000672:	da06      	bge.n	8000682 <_printf_longlong_dec+0x2e>
 8000674:	2300      	movs	r3, #0
 8000676:	ebd0 0003 	rsbs	r0, r0, r3
 800067a:	eb63 0202 	sbc.w	r2, r3, r2
 800067e:	a611      	add	r6, pc, #68	; (adr r6, 80006c4 <_printf_longlong_dec+0x70>)
 8000680:	e008      	b.n	8000694 <_printf_longlong_dec+0x40>
 8000682:	f8d8 1000 	ldr.w	r1, [r8]
 8000686:	078b      	lsls	r3, r1, #30
 8000688:	d501      	bpl.n	800068e <_printf_longlong_dec+0x3a>
 800068a:	a60f      	add	r6, pc, #60	; (adr r6, 80006c8 <_printf_longlong_dec+0x74>)
 800068c:	e002      	b.n	8000694 <_printf_longlong_dec+0x40>
 800068e:	0749      	lsls	r1, r1, #29
 8000690:	d501      	bpl.n	8000696 <_printf_longlong_dec+0x42>
 8000692:	a60e      	add	r6, pc, #56	; (adr r6, 80006cc <_printf_longlong_dec+0x78>)
 8000694:	2501      	movs	r5, #1
 8000696:	4611      	mov	r1, r2
 8000698:	2400      	movs	r4, #0
 800069a:	f108 0724 	add.w	r7, r8, #36	; 0x24
 800069e:	e004      	b.n	80006aa <_printf_longlong_dec+0x56>
 80006a0:	f000 f95c 	bl	800095c <_ll_udiv10>
 80006a4:	3230      	adds	r2, #48	; 0x30
 80006a6:	553a      	strb	r2, [r7, r4]
 80006a8:	1c64      	adds	r4, r4, #1
 80006aa:	ea50 0201 	orrs.w	r2, r0, r1
 80006ae:	d1f7      	bne.n	80006a0 <_printf_longlong_dec+0x4c>
 80006b0:	462b      	mov	r3, r5
 80006b2:	4632      	mov	r2, r6
 80006b4:	4621      	mov	r1, r4
 80006b6:	4640      	mov	r0, r8
 80006b8:	e8bd 41f0 	ldmia.w	sp!, {r4, r5, r6, r7, r8, lr}
 80006bc:	f000 b993 	b.w	80009e6 <_printf_int_common>
 80006c0:	00000000 	andeq	r0, r0, r0
 80006c4:	0000002d 	andeq	r0, r0, sp, lsr #32
 80006c8:	0000002b 	andeq	r0, r0, fp, lsr #32
 80006cc:	00000020 	andeq	r0, r0, r0, lsr #32

080006d0 <_printf_longlong_oct>:
_printf_longlong_oct():
 80006d0:	b430      	push	{r4, r5}
 80006d2:	2100      	movs	r1, #0
 80006d4:	f100 0424 	add.w	r4, r0, #36	; 0x24
 80006d8:	e008      	b.n	80006ec <_printf_longlong_oct+0x1c>
 80006da:	f002 0507 	and.w	r5, r2, #7
 80006de:	08d2      	lsrs	r2, r2, #3
 80006e0:	3530      	adds	r5, #48	; 0x30
 80006e2:	ea42 7243 	orr.w	r2, r2, r3, lsl #29
 80006e6:	08db      	lsrs	r3, r3, #3
 80006e8:	5465      	strb	r5, [r4, r1]
 80006ea:	1c49      	adds	r1, r1, #1
 80006ec:	ea52 0503 	orrs.w	r5, r2, r3
 80006f0:	d1f3      	bne.n	80006da <_printf_longlong_oct+0xa>
 80006f2:	6804      	ldr	r4, [r0, #0]
 80006f4:	2300      	movs	r3, #0
 80006f6:	a210      	add	r2, pc, #64	; (adr r2, 8000738 <_printf_ll_oct+0xc>)
 80006f8:	0725      	lsls	r5, r4, #28
 80006fa:	d508      	bpl.n	800070e <_printf_longlong_oct+0x3e>
 80006fc:	f004 0420 	and.w	r4, r4, #32
 8000700:	430c      	orrs	r4, r1
 8000702:	d004      	beq.n	800070e <_printf_longlong_oct+0x3e>
 8000704:	69c4      	ldr	r4, [r0, #28]
 8000706:	2301      	movs	r3, #1
 8000708:	a20c      	add	r2, pc, #48	; (adr r2, 800073c <_printf_ll_oct+0x10>)
 800070a:	1e64      	subs	r4, r4, #1
 800070c:	61c4      	str	r4, [r0, #28]
 800070e:	bc30      	pop	{r4, r5}
 8000710:	f000 b969 	b.w	80009e6 <_printf_int_common>

08000714 <_printf_int_oct>:
_printf_int_oct():
 8000714:	b510      	push	{r4, lr}
 8000716:	4604      	mov	r4, r0
 8000718:	4621      	mov	r1, r4
 800071a:	6810      	ldr	r0, [r2, #0]
 800071c:	f7ff fe9b 	bl	8000456 <_printf_truncate_unsigned>
 8000720:	4602      	mov	r2, r0
 8000722:	4620      	mov	r0, r4
 8000724:	e8bd 4010 	ldmia.w	sp!, {r4, lr}
 8000728:	2300      	movs	r3, #0
 800072a:	e7d1      	b.n	80006d0 <_printf_longlong_oct>

0800072c <_printf_ll_oct>:
_printf_ll_oct():
 800072c:	1dd2      	adds	r2, r2, #7
 800072e:	f022 0107 	bic.w	r1, r2, #7
 8000732:	e9d1 2300 	ldrd	r2, r3, [r1]
 8000736:	e7cb      	b.n	80006d0 <_printf_longlong_oct>
 8000738:	00000000 	andeq	r0, r0, r0
 800073c:	00000030 	andeq	r0, r0, r0, lsr r0

08000740 <_printf_longlong_hex>:
_printf_longlong_hex():
 8000740:	b4f0      	push	{r4, r5, r6, r7}
 8000742:	460d      	mov	r5, r1
 8000744:	8801      	ldrh	r1, [r0, #0]
 8000746:	0509      	lsls	r1, r1, #20
 8000748:	d502      	bpl.n	8000750 <_printf_longlong_hex+0x10>
 800074a:	4c21      	ldr	r4, [pc, #132]	; (80007d0 <_printf_hex_ptr+0x12>)
 800074c:	447c      	add	r4, pc
 800074e:	e002      	b.n	8000756 <_printf_longlong_hex+0x16>
 8000750:	4c1f      	ldr	r4, [pc, #124]	; (80007d0 <_printf_hex_ptr+0x12>)
 8000752:	447c      	add	r4, pc
 8000754:	340e      	adds	r4, #14
 8000756:	2100      	movs	r1, #0
 8000758:	f100 0624 	add.w	r6, r0, #36	; 0x24
 800075c:	e008      	b.n	8000770 <_printf_longlong_hex+0x30>
 800075e:	f002 070f 	and.w	r7, r2, #15
 8000762:	0912      	lsrs	r2, r2, #4
 8000764:	5de7      	ldrb	r7, [r4, r7]
 8000766:	ea42 7203 	orr.w	r2, r2, r3, lsl #28
 800076a:	091b      	lsrs	r3, r3, #4
 800076c:	5477      	strb	r7, [r6, r1]
 800076e:	1c49      	adds	r1, r1, #1
 8000770:	ea52 0703 	orrs.w	r7, r2, r3
 8000774:	d1f3      	bne.n	800075e <_printf_longlong_hex+0x1e>
 8000776:	7802      	ldrb	r2, [r0, #0]
 8000778:	2300      	movs	r3, #0
 800077a:	0712      	lsls	r2, r2, #28
 800077c:	d504      	bpl.n	8000788 <_printf_longlong_hex+0x48>
 800077e:	2d70      	cmp	r5, #112	; 0x70
 8000780:	d006      	beq.n	8000790 <_printf_longlong_hex+0x50>
 8000782:	b109      	cbz	r1, 8000788 <_printf_longlong_hex+0x48>
 8000784:	2302      	movs	r3, #2
 8000786:	3411      	adds	r4, #17
 8000788:	4622      	mov	r2, r4
 800078a:	bcf0      	pop	{r4, r5, r6, r7}
 800078c:	f000 b92b 	b.w	80009e6 <_printf_int_common>
 8000790:	2301      	movs	r3, #1
 8000792:	3410      	adds	r4, #16
 8000794:	e7f8      	b.n	8000788 <_printf_longlong_hex+0x48>

08000796 <_printf_int_hex>:
_printf_int_hex():
 8000796:	b570      	push	{r4, r5, r6, lr}
 8000798:	4604      	mov	r4, r0
 800079a:	460d      	mov	r5, r1
 800079c:	4621      	mov	r1, r4
 800079e:	6810      	ldr	r0, [r2, #0]
 80007a0:	f7ff fe59 	bl	8000456 <_printf_truncate_unsigned>
 80007a4:	4602      	mov	r2, r0
 80007a6:	4629      	mov	r1, r5
 80007a8:	4620      	mov	r0, r4
 80007aa:	e8bd 4070 	ldmia.w	sp!, {r4, r5, r6, lr}
 80007ae:	2300      	movs	r3, #0
 80007b0:	e7c6      	b.n	8000740 <_printf_longlong_hex>

080007b2 <_printf_ll_hex>:
_printf_ll_hex():
 80007b2:	1dd2      	adds	r2, r2, #7
 80007b4:	f022 0307 	bic.w	r3, r2, #7
 80007b8:	e9d3 2300 	ldrd	r2, r3, [r3]
 80007bc:	e7c0      	b.n	8000740 <_printf_longlong_hex>

080007be <_printf_hex_ptr>:
_printf_hex_ptr():
 80007be:	6803      	ldr	r3, [r0, #0]
 80007c0:	6812      	ldr	r2, [r2, #0]
 80007c2:	f043 0320 	orr.w	r3, r3, #32
 80007c6:	6003      	str	r3, [r0, #0]
 80007c8:	2308      	movs	r3, #8
 80007ca:	61c3      	str	r3, [r0, #28]
 80007cc:	2300      	movs	r3, #0
 80007ce:	e7b7      	b.n	8000740 <_printf_longlong_hex>
 80007d0:	00003594 	muleq	r0, r4, r5

080007d4 <__printf>:
__printf():
 80007d4:	e92d 5ff0 	stmdb	sp!, {r4, r5, r6, r7, r8, r9, sl, fp, ip, lr}
 80007d8:	4689      	mov	r9, r1
 80007da:	4604      	mov	r4, r0
 80007dc:	f04f 0a00 	mov.w	sl, #0
 80007e0:	f8df b174 	ldr.w	fp, [pc, #372]	; 8000958 <__printf+0x184>
 80007e4:	44fb      	add	fp, pc
 80007e6:	f8c0 a020 	str.w	sl, [r0, #32]
 80007ea:	4620      	mov	r0, r4
 80007ec:	68e1      	ldr	r1, [r4, #12]
 80007ee:	4788      	blx	r1
 80007f0:	2800      	cmp	r0, #0
 80007f2:	d074      	beq.n	80008de <__printf+0x10a>
 80007f4:	2825      	cmp	r0, #37	; 0x25
 80007f6:	d006      	beq.n	8000806 <__printf+0x32>
 80007f8:	e9d4 2101 	ldrd	r2, r1, [r4, #4]
 80007fc:	4790      	blx	r2
 80007fe:	6a20      	ldr	r0, [r4, #32]
 8000800:	1c40      	adds	r0, r0, #1
 8000802:	6220      	str	r0, [r4, #32]
 8000804:	e7f1      	b.n	80007ea <__printf+0x16>
 8000806:	2600      	movs	r6, #0
 8000808:	465f      	mov	r7, fp
 800080a:	4620      	mov	r0, r4
 800080c:	68e1      	ldr	r1, [r4, #12]
 800080e:	4788      	blx	r1
 8000810:	2820      	cmp	r0, #32
 8000812:	4605      	mov	r5, r0
 8000814:	db07      	blt.n	8000826 <__printf+0x52>
 8000816:	2d31      	cmp	r5, #49	; 0x31
 8000818:	d205      	bcs.n	8000826 <__printf+0x52>
 800081a:	1978      	adds	r0, r7, r5
 800081c:	f810 0c20 	ldrb.w	r0, [r0, #-32]
 8000820:	b108      	cbz	r0, 8000826 <__printf+0x52>
 8000822:	4306      	orrs	r6, r0
 8000824:	e7f1      	b.n	800080a <__printf+0x36>
 8000826:	07b0      	lsls	r0, r6, #30
 8000828:	d501      	bpl.n	800082e <__printf+0x5a>
 800082a:	f026 0604 	bic.w	r6, r6, #4
 800082e:	f8c4 a01c 	str.w	sl, [r4, #28]
 8000832:	2700      	movs	r7, #0
 8000834:	f8c4 a018 	str.w	sl, [r4, #24]
 8000838:	2d2a      	cmp	r5, #42	; 0x2a
 800083a:	d009      	beq.n	8000850 <__printf+0x7c>
 800083c:	4628      	mov	r0, r5
 800083e:	f003 fa07 	bl	8003c50 <_is_digit>
 8000842:	b338      	cbz	r0, 8000894 <__printf+0xc0>
 8000844:	eb04 0887 	add.w	r8, r4, r7, lsl #2
 8000848:	3d30      	subs	r5, #48	; 0x30
 800084a:	f8c8 5018 	str.w	r5, [r8, #24]
 800084e:	e019      	b.n	8000884 <__printf+0xb0>
 8000850:	f859 1b04 	ldr.w	r1, [r9], #4
 8000854:	4620      	mov	r0, r4
 8000856:	eb04 0287 	add.w	r2, r4, r7, lsl #2
 800085a:	6191      	str	r1, [r2, #24]
 800085c:	68e1      	ldr	r1, [r4, #12]
 800085e:	4788      	blx	r1
 8000860:	2f01      	cmp	r7, #1
 8000862:	4605      	mov	r5, r0
 8000864:	d118      	bne.n	8000898 <__printf+0xc4>
 8000866:	69e0      	ldr	r0, [r4, #28]
 8000868:	2800      	cmp	r0, #0
 800086a:	da20      	bge.n	80008ae <__printf+0xda>
 800086c:	f026 0620 	bic.w	r6, r6, #32
 8000870:	e01d      	b.n	80008ae <__printf+0xda>
 8000872:	f8d8 0018 	ldr.w	r0, [r8, #24]
 8000876:	eb00 0080 	add.w	r0, r0, r0, lsl #2
 800087a:	eb05 0040 	add.w	r0, r5, r0, lsl #1
 800087e:	3830      	subs	r0, #48	; 0x30
 8000880:	f8c8 0018 	str.w	r0, [r8, #24]
 8000884:	4620      	mov	r0, r4
 8000886:	68e1      	ldr	r1, [r4, #12]
 8000888:	4788      	blx	r1
 800088a:	4605      	mov	r5, r0
 800088c:	f003 f9e0 	bl	8003c50 <_is_digit>
 8000890:	2800      	cmp	r0, #0
 8000892:	d1ee      	bne.n	8000872 <__printf+0x9e>
 8000894:	2f01      	cmp	r7, #1
 8000896:	d00a      	beq.n	80008ae <__printf+0xda>
 8000898:	2d2e      	cmp	r5, #46	; 0x2e
 800089a:	d108      	bne.n	80008ae <__printf+0xda>
 800089c:	4620      	mov	r0, r4
 800089e:	68e1      	ldr	r1, [r4, #12]
 80008a0:	4788      	blx	r1
 80008a2:	1c7f      	adds	r7, r7, #1
 80008a4:	4605      	mov	r5, r0
 80008a6:	2f02      	cmp	r7, #2
 80008a8:	f046 0620 	orr.w	r6, r6, #32
 80008ac:	dbc4      	blt.n	8000838 <__printf+0x64>
 80008ae:	69a0      	ldr	r0, [r4, #24]
 80008b0:	2800      	cmp	r0, #0
 80008b2:	da03      	bge.n	80008bc <__printf+0xe8>
 80008b4:	4240      	negs	r0, r0
 80008b6:	f046 0601 	orr.w	r6, r6, #1
 80008ba:	61a0      	str	r0, [r4, #24]
 80008bc:	07f0      	lsls	r0, r6, #31
 80008be:	d001      	beq.n	80008c4 <__printf+0xf0>
 80008c0:	f026 0610 	bic.w	r6, r6, #16
 80008c4:	2d6c      	cmp	r5, #108	; 0x6c
 80008c6:	d00b      	beq.n	80008e0 <__printf+0x10c>
 80008c8:	2d68      	cmp	r5, #104	; 0x68
 80008ca:	d009      	beq.n	80008e0 <__printf+0x10c>
 80008cc:	2d4c      	cmp	r5, #76	; 0x4c
 80008ce:	d039      	beq.n	8000944 <__printf+0x170>
 80008d0:	2d6a      	cmp	r5, #106	; 0x6a
 80008d2:	d035      	beq.n	8000940 <__printf+0x16c>
 80008d4:	2d74      	cmp	r5, #116	; 0x74
 80008d6:	d035      	beq.n	8000944 <__printf+0x170>
 80008d8:	2d7a      	cmp	r5, #122	; 0x7a
 80008da:	d033      	beq.n	8000944 <__printf+0x170>
 80008dc:	e016      	b.n	800090c <__printf+0x138>
 80008de:	e038      	b.n	8000952 <__printf+0x17e>
 80008e0:	68e1      	ldr	r1, [r4, #12]
 80008e2:	462f      	mov	r7, r5
 80008e4:	4620      	mov	r0, r4
 80008e6:	4788      	blx	r1
 80008e8:	42b8      	cmp	r0, r7
 80008ea:	4605      	mov	r5, r0
 80008ec:	d109      	bne.n	8000902 <__printf+0x12e>
 80008ee:	2f6c      	cmp	r7, #108	; 0x6c
 80008f0:	d026      	beq.n	8000940 <__printf+0x16c>
 80008f2:	f44f 6080 	mov.w	r0, #1024	; 0x400
 80008f6:	68e1      	ldr	r1, [r4, #12]
 80008f8:	4306      	orrs	r6, r0
 80008fa:	4620      	mov	r0, r4
 80008fc:	4788      	blx	r1
 80008fe:	4605      	mov	r5, r0
 8000900:	e004      	b.n	800090c <__printf+0x138>
 8000902:	2f6c      	cmp	r7, #108	; 0x6c
 8000904:	d01a      	beq.n	800093c <__printf+0x168>
 8000906:	f44f 7080 	mov.w	r0, #256	; 0x100
 800090a:	4306      	orrs	r6, r0
 800090c:	b30d      	cbz	r5, 8000952 <__printf+0x17e>
 800090e:	f1a5 0041 	sub.w	r0, r5, #65	; 0x41
 8000912:	2819      	cmp	r0, #25
 8000914:	d802      	bhi.n	800091c <__printf+0x148>
 8000916:	3520      	adds	r5, #32
 8000918:	f446 6600 	orr.w	r6, r6, #2048	; 0x800
 800091c:	464a      	mov	r2, r9
 800091e:	4629      	mov	r1, r5
 8000920:	4620      	mov	r0, r4
 8000922:	6026      	str	r6, [r4, #0]
 8000924:	464e      	mov	r6, r9
 8000926:	f7ff fcc5 	bl	80002b4 <_printf_n>
 800092a:	b180      	cbz	r0, 800094e <__printf+0x17a>
 800092c:	2801      	cmp	r0, #1
 800092e:	d00b      	beq.n	8000948 <__printf+0x174>
 8000930:	1df6      	adds	r6, r6, #7
 8000932:	f026 0007 	bic.w	r0, r6, #7
 8000936:	f100 0908 	add.w	r9, r0, #8
 800093a:	e756      	b.n	80007ea <__printf+0x16>
 800093c:	2040      	movs	r0, #64	; 0x40
 800093e:	e7e4      	b.n	800090a <__printf+0x136>
 8000940:	2080      	movs	r0, #128	; 0x80
 8000942:	e7d8      	b.n	80008f6 <__printf+0x122>
 8000944:	2000      	movs	r0, #0
 8000946:	e7d6      	b.n	80008f6 <__printf+0x122>
 8000948:	f106 0904 	add.w	r9, r6, #4
 800094c:	e74d      	b.n	80007ea <__printf+0x16>
 800094e:	4628      	mov	r0, r5
 8000950:	e752      	b.n	80007f8 <__printf+0x24>
 8000952:	6a20      	ldr	r0, [r4, #32]
 8000954:	e8bd 9ff0 	ldmia.w	sp!, {r4, r5, r6, r7, r8, r9, sl, fp, ip, pc}
 8000958:	00003524 	andeq	r3, r0, r4, lsr #10

0800095c <_ll_udiv10>:
_ll_udiv10():
 800095c:	b530      	push	{r4, r5, lr}
 800095e:	f1b0 020a 	subs.w	r2, r0, #10
 8000962:	f171 0300 	sbcs.w	r3, r1, #0
 8000966:	ea4f 0e90 	mov.w	lr, r0, lsr #2
 800096a:	ea4e 7e81 	orr.w	lr, lr, r1, lsl #30
 800096e:	ebb0 000e 	subs.w	r0, r0, lr
 8000972:	eb61 0191 	sbc.w	r1, r1, r1, lsr #2
 8000976:	ea4f 1e10 	mov.w	lr, r0, lsr #4
 800097a:	ea4e 7e01 	orr.w	lr, lr, r1, lsl #28
 800097e:	eb10 000e 	adds.w	r0, r0, lr
 8000982:	eb41 1111 	adc.w	r1, r1, r1, lsr #4
 8000986:	ea4f 2e10 	mov.w	lr, r0, lsr #8
 800098a:	ea4e 6e01 	orr.w	lr, lr, r1, lsl #24
 800098e:	eb10 000e 	adds.w	r0, r0, lr
 8000992:	eb41 2111 	adc.w	r1, r1, r1, lsr #8
 8000996:	ea4f 4e10 	mov.w	lr, r0, lsr #16
 800099a:	ea4e 4e01 	orr.w	lr, lr, r1, lsl #16
 800099e:	eb10 000e 	adds.w	r0, r0, lr
 80009a2:	eb41 4111 	adc.w	r1, r1, r1, lsr #16
 80009a6:	1840      	adds	r0, r0, r1
 80009a8:	f141 0100 	adc.w	r1, r1, #0
 80009ac:	ea4f 00d0 	mov.w	r0, r0, lsr #3
 80009b0:	ea40 7041 	orr.w	r0, r0, r1, lsl #29
 80009b4:	ea4f 01d1 	mov.w	r1, r1, lsr #3
 80009b8:	ea4f 0481 	mov.w	r4, r1, lsl #2
 80009bc:	ea44 7490 	orr.w	r4, r4, r0, lsr #30
 80009c0:	eb10 0580 	adds.w	r5, r0, r0, lsl #2
 80009c4:	eb44 0401 	adc.w	r4, r4, r1
 80009c8:	196d      	adds	r5, r5, r5
 80009ca:	eb44 0404 	adc.w	r4, r4, r4
 80009ce:	1b52      	subs	r2, r2, r5
 80009d0:	41a3      	sbcs	r3, r4
 80009d2:	f04f 0300 	mov.w	r3, #0
 80009d6:	bf48      	it	mi
 80009d8:	320a      	addmi	r2, #10
 80009da:	d500      	bpl.n	80009de <_ll_udiv10+0x82>
 80009dc:	bd30      	pop	{r4, r5, pc}
 80009de:	1c40      	adds	r0, r0, #1
 80009e0:	f141 0100 	adc.w	r1, r1, #0
 80009e4:	bd30      	pop	{r4, r5, pc}

080009e6 <_printf_int_common>:
_printf_int_common():
 80009e6:	e92d 47f0 	stmdb	sp!, {r4, r5, r6, r7, r8, r9, sl, lr}
 80009ea:	460d      	mov	r5, r1
 80009ec:	4699      	mov	r9, r3
 80009ee:	4692      	mov	sl, r2
 80009f0:	4604      	mov	r4, r0
 80009f2:	f100 0824 	add.w	r8, r0, #36	; 0x24
 80009f6:	6801      	ldr	r1, [r0, #0]
 80009f8:	0688      	lsls	r0, r1, #26
 80009fa:	d504      	bpl.n	8000a06 <_printf_int_common+0x20>
 80009fc:	69e0      	ldr	r0, [r4, #28]
 80009fe:	f021 0110 	bic.w	r1, r1, #16
 8000a02:	6021      	str	r1, [r4, #0]
 8000a04:	e000      	b.n	8000a08 <_printf_int_common+0x22>
 8000a06:	2001      	movs	r0, #1
 8000a08:	42a8      	cmp	r0, r5
 8000a0a:	dd01      	ble.n	8000a10 <_printf_int_common+0x2a>
 8000a0c:	1b47      	subs	r7, r0, r5
 8000a0e:	e000      	b.n	8000a12 <_printf_int_common+0x2c>
 8000a10:	2700      	movs	r7, #0
 8000a12:	69a1      	ldr	r1, [r4, #24]
 8000a14:	197a      	adds	r2, r7, r5
 8000a16:	eb02 0009 	add.w	r0, r2, r9
 8000a1a:	1a08      	subs	r0, r1, r0
 8000a1c:	61a0      	str	r0, [r4, #24]
 8000a1e:	7820      	ldrb	r0, [r4, #0]
 8000a20:	06c0      	lsls	r0, r0, #27
 8000a22:	d402      	bmi.n	8000a2a <_printf_int_common+0x44>
 8000a24:	4620      	mov	r0, r4
 8000a26:	f7ff fce6 	bl	80003f6 <_printf_pre_padding>
 8000a2a:	2600      	movs	r6, #0
 8000a2c:	e008      	b.n	8000a40 <_printf_int_common+0x5a>
 8000a2e:	e9d4 2101 	ldrd	r2, r1, [r4, #4]
 8000a32:	f81a 0006 	ldrb.w	r0, [sl, r6]
 8000a36:	4790      	blx	r2
 8000a38:	6a20      	ldr	r0, [r4, #32]
 8000a3a:	1c40      	adds	r0, r0, #1
 8000a3c:	1c76      	adds	r6, r6, #1
 8000a3e:	6220      	str	r0, [r4, #32]
 8000a40:	454e      	cmp	r6, r9
 8000a42:	dbf4      	blt.n	8000a2e <_printf_int_common+0x48>
 8000a44:	7820      	ldrb	r0, [r4, #0]
 8000a46:	06c0      	lsls	r0, r0, #27
 8000a48:	d50a      	bpl.n	8000a60 <_printf_int_common+0x7a>
 8000a4a:	4620      	mov	r0, r4
 8000a4c:	f7ff fcd3 	bl	80003f6 <_printf_pre_padding>
 8000a50:	e006      	b.n	8000a60 <_printf_int_common+0x7a>
 8000a52:	e9d4 2101 	ldrd	r2, r1, [r4, #4]
 8000a56:	2030      	movs	r0, #48	; 0x30
 8000a58:	4790      	blx	r2
 8000a5a:	6a20      	ldr	r0, [r4, #32]
 8000a5c:	1c40      	adds	r0, r0, #1
 8000a5e:	6220      	str	r0, [r4, #32]
 8000a60:	1e38      	subs	r0, r7, #0
 8000a62:	f1a7 0701 	sub.w	r7, r7, #1
 8000a66:	dcf4      	bgt.n	8000a52 <_printf_int_common+0x6c>
 8000a68:	e007      	b.n	8000a7a <_printf_int_common+0x94>
 8000a6a:	e9d4 2101 	ldrd	r2, r1, [r4, #4]
 8000a6e:	f818 0005 	ldrb.w	r0, [r8, r5]
 8000a72:	4790      	blx	r2
 8000a74:	6a20      	ldr	r0, [r4, #32]
 8000a76:	1c40      	adds	r0, r0, #1
 8000a78:	6220      	str	r0, [r4, #32]
 8000a7a:	1e28      	subs	r0, r5, #0
 8000a7c:	f1a5 0501 	sub.w	r5, r5, #1
 8000a80:	dcf3      	bgt.n	8000a6a <_printf_int_common+0x84>
 8000a82:	4620      	mov	r0, r4
 8000a84:	f7ff fccd 	bl	8000422 <_printf_post_padding>
 8000a88:	7820      	ldrb	r0, [r4, #0]
 8000a8a:	0600      	lsls	r0, r0, #24
 8000a8c:	d502      	bpl.n	8000a94 <_printf_int_common+0xae>
 8000a8e:	2002      	movs	r0, #2
 8000a90:	e8bd 87f0 	ldmia.w	sp!, {r4, r5, r6, r7, r8, r9, sl, pc}
 8000a94:	2001      	movs	r0, #1
 8000a96:	e7fb      	b.n	8000a90 <_printf_int_common+0xaa>

08000a98 <_fp_digits>:
_fp_digits():
 8000a98:	e92d 4fff 	stmdb	sp!, {r0, r1, r2, r3, r4, r5, r6, r7, r8, r9, sl, fp, lr}
 8000a9c:	460c      	mov	r4, r1
 8000a9e:	461e      	mov	r6, r3
 8000aa0:	f04f 37ff 	mov.w	r7, #4294967295	; 0xffffffff
 8000aa4:	b08b      	sub	sp, #44	; 0x2c
 8000aa6:	e9d2 0100 	ldrd	r0, r1, [r2]
 8000aaa:	f8dd 8060 	ldr.w	r8, [sp, #96]	; 0x60
 8000aae:	900a      	str	r0, [sp, #40]	; 0x28
 8000ab0:	468a      	mov	sl, r1
 8000ab2:	f3c1 550a 	ubfx	r5, r1, #20, #11
 8000ab6:	b905      	cbnz	r5, 8000aba <_fp_digits+0x22>
 8000ab8:	463d      	mov	r5, r7
 8000aba:	2100      	movs	r1, #0
 8000abc:	4608      	mov	r0, r1
 8000abe:	f04f 0000 	mov.w	r0, #0
 8000ac2:	f1ba 0f00 	cmp.w	sl, #0
 8000ac6:	f400 0040 	and.w	r0, r0, #12582912	; 0xc00000
 8000aca:	da05      	bge.n	8000ad8 <_fp_digits+0x40>
 8000acc:	eb00 0080 	add.w	r0, r0, r0, lsl #2
 8000ad0:	f44f 0140 	mov.w	r1, #12582912	; 0xc00000
 8000ad4:	ea01 0050 	and.w	r0, r1, r0, lsr #1
 8000ad8:	ea4f 5990 	mov.w	r9, r0, lsr #22
 8000adc:	f1b9 0f01 	cmp.w	r9, #1
 8000ae0:	dd00      	ble.n	8000ae4 <_fp_digits+0x4c>
 8000ae2:	46b9      	mov	r9, r7
 8000ae4:	980a      	ldr	r0, [sp, #40]	; 0x28
 8000ae6:	ea50 004a 	orrs.w	r0, r0, sl, lsl #1
 8000aea:	d00e      	beq.n	8000b0a <_fp_digits+0x72>
 8000aec:	f644 5010 	movw	r0, #19728	; 0x4d10
 8000af0:	f2a5 35ff 	subw	r5, r5, #1023	; 0x3ff
 8000af4:	4345      	muls	r5, r0
 8000af6:	142f      	asrs	r7, r5, #16
 8000af8:	f1b8 0f00 	cmp.w	r8, #0
 8000afc:	d01e      	beq.n	8000b3c <_fp_digits+0xa4>
 8000afe:	4275      	negs	r5, r6
 8000b00:	1e29      	subs	r1, r5, #0
 8000b02:	dd1e      	ble.n	8000b42 <_fp_digits+0xaa>
 8000b04:	f1c9 0200 	rsb	r2, r9, #0
 8000b08:	e01c      	b.n	8000b44 <_fp_digits+0xac>
 8000b0a:	f1b8 0f01 	cmp.w	r8, #1
 8000b0e:	f04f 0000 	mov.w	r0, #0
 8000b12:	d001      	beq.n	8000b18 <_fp_digits+0x80>
 8000b14:	2130      	movs	r1, #48	; 0x30
 8000b16:	e003      	b.n	8000b20 <_fp_digits+0x88>
 8000b18:	43f2      	mvns	r2, r6
 8000b1a:	e005      	b.n	8000b28 <_fp_digits+0x90>
 8000b1c:	5421      	strb	r1, [r4, r0]
 8000b1e:	1c40      	adds	r0, r0, #1
 8000b20:	42b0      	cmp	r0, r6
 8000b22:	dbfb      	blt.n	8000b1c <_fp_digits+0x84>
 8000b24:	4630      	mov	r0, r6
 8000b26:	2200      	movs	r2, #0
 8000b28:	2100      	movs	r1, #0
 8000b2a:	5421      	strb	r1, [r4, r0]
 8000b2c:	990b      	ldr	r1, [sp, #44]	; 0x2c
 8000b2e:	f8c1 8008 	str.w	r8, [r1, #8]
 8000b32:	e9c1 2000 	strd	r2, r0, [r1]
 8000b36:	b00f      	add	sp, #60	; 0x3c
 8000b38:	e8bd 8ff0 	ldmia.w	sp!, {r4, r5, r6, r7, r8, r9, sl, fp, pc}
 8000b3c:	1bbd      	subs	r5, r7, r6
 8000b3e:	1c6d      	adds	r5, r5, #1
 8000b40:	e7de      	b.n	8000b00 <_fp_digits+0x68>
 8000b42:	464a      	mov	r2, r9
 8000b44:	da00      	bge.n	8000b48 <_fp_digits+0xb0>
 8000b46:	4269      	negs	r1, r5
 8000b48:	a806      	add	r0, sp, #24
 8000b4a:	f000 fbf3 	bl	8001334 <_btod_etento>
 8000b4e:	ab06      	add	r3, sp, #24
 8000b50:	e893 0007 	ldmia.w	r3, {r0, r1, r2}
 8000b54:	ab03      	add	r3, sp, #12
 8000b56:	e883 0007 	stmia.w	r3, {r0, r1, r2}
 8000b5a:	4650      	mov	r0, sl
 8000b5c:	990a      	ldr	r1, [sp, #40]	; 0x28
 8000b5e:	f002 fc96 	bl	800348e <_btod_d2e>
 8000b62:	e88d 0007 	stmia.w	sp, {r0, r1, r2}
 8000b66:	f5a0 5000 	sub.w	r0, r0, #8192	; 0x2000
 8000b6a:	381f      	subs	r0, #31
 8000b6c:	9000      	str	r0, [sp, #0]
 8000b6e:	9803      	ldr	r0, [sp, #12]
 8000b70:	2d00      	cmp	r5, #0
 8000b72:	dd0a      	ble.n	8000b8a <_fp_digits+0xf2>
 8000b74:	f242 011f 	movw	r1, #8223	; 0x201f
 8000b78:	464a      	mov	r2, r9
 8000b7a:	4408      	add	r0, r1
 8000b7c:	2300      	movs	r3, #0
 8000b7e:	a903      	add	r1, sp, #12
 8000b80:	9003      	str	r0, [sp, #12]
 8000b82:	4668      	mov	r0, sp
 8000b84:	f002 ff00 	bl	8003988 <_btod_ediv>
 8000b88:	e009      	b.n	8000b9e <_fp_digits+0x106>
 8000b8a:	f5a0 5000 	sub.w	r0, r0, #8192	; 0x2000
 8000b8e:	464a      	mov	r2, r9
 8000b90:	381f      	subs	r0, #31
 8000b92:	2300      	movs	r3, #0
 8000b94:	a903      	add	r1, sp, #12
 8000b96:	9003      	str	r0, [sp, #12]
 8000b98:	4668      	mov	r0, sp
 8000b9a:	f002 ff0a 	bl	80039b2 <_btod_emul>
 8000b9e:	e88d 0007 	stmia.w	sp, {r0, r1, r2}
 8000ba2:	0400      	lsls	r0, r0, #16
 8000ba4:	0c00      	lsrs	r0, r0, #16
 8000ba6:	d003      	beq.n	8000bb0 <_fp_digits+0x118>
 8000ba8:	f04f 30ff 	mov.w	r0, #4294967295	; 0xffffffff
 8000bac:	0841      	lsrs	r1, r0, #1
 8000bae:	e000      	b.n	8000bb2 <_fp_digits+0x11a>
 8000bb0:	4610      	mov	r0, r2
 8000bb2:	f1b8 0f00 	cmp.w	r8, #0
 8000bb6:	d003      	beq.n	8000bc0 <_fp_digits+0x128>
 8000bb8:	2200      	movs	r2, #0
 8000bba:	9200      	str	r2, [sp, #0]
 8000bbc:	4615      	mov	r5, r2
 8000bbe:	e01e      	b.n	8000bfe <_fp_digits+0x166>
 8000bc0:	1e75      	subs	r5, r6, #1
 8000bc2:	d405      	bmi.n	8000bd0 <_fp_digits+0x138>
 8000bc4:	f7ff feca 	bl	800095c <_ll_udiv10>
 8000bc8:	3230      	adds	r2, #48	; 0x30
 8000bca:	5562      	strb	r2, [r4, r5]
 8000bcc:	1e6d      	subs	r5, r5, #1
 8000bce:	d5f9      	bpl.n	8000bc4 <_fp_digits+0x12c>
 8000bd0:	46b3      	mov	fp, r6
 8000bd2:	2201      	movs	r2, #1
 8000bd4:	4308      	orrs	r0, r1
 8000bd6:	d002      	beq.n	8000bde <_fp_digits+0x146>
 8000bd8:	2200      	movs	r2, #0
 8000bda:	1c7f      	adds	r7, r7, #1
 8000bdc:	e004      	b.n	8000be8 <_fp_digits+0x150>
 8000bde:	7820      	ldrb	r0, [r4, #0]
 8000be0:	2830      	cmp	r0, #48	; 0x30
 8000be2:	d101      	bne.n	8000be8 <_fp_digits+0x150>
 8000be4:	2200      	movs	r2, #0
 8000be6:	1e7f      	subs	r7, r7, #1
 8000be8:	2a00      	cmp	r2, #0
 8000bea:	9709      	str	r7, [sp, #36]	; 0x24
 8000bec:	d084      	beq.n	8000af8 <_fp_digits+0x60>
 8000bee:	e01d      	b.n	8000c2c <_fp_digits+0x194>
 8000bf0:	2d11      	cmp	r5, #17
 8000bf2:	da07      	bge.n	8000c04 <_fp_digits+0x16c>
 8000bf4:	f7ff feb2 	bl	800095c <_ll_udiv10>
 8000bf8:	3230      	adds	r2, #48	; 0x30
 8000bfa:	5562      	strb	r2, [r4, r5]
 8000bfc:	1c6d      	adds	r5, r5, #1
 8000bfe:	ea50 0201 	orrs.w	r2, r0, r1
 8000c02:	d1f5      	bne.n	8000bf0 <_fp_digits+0x158>
 8000c04:	4308      	orrs	r0, r1
 8000c06:	d002      	beq.n	8000c0e <_fp_digits+0x176>
 8000c08:	9800      	ldr	r0, [sp, #0]
 8000c0a:	b1c8      	cbz	r0, 8000c40 <_fp_digits+0x1a8>
 8000c0c:	e00e      	b.n	8000c2c <_fp_digits+0x194>
 8000c0e:	2100      	movs	r1, #0
 8000c10:	1e68      	subs	r0, r5, #1
 8000c12:	e005      	b.n	8000c20 <_fp_digits+0x188>
 8000c14:	5c23      	ldrb	r3, [r4, r0]
 8000c16:	5c62      	ldrb	r2, [r4, r1]
 8000c18:	5463      	strb	r3, [r4, r1]
 8000c1a:	5422      	strb	r2, [r4, r0]
 8000c1c:	1e40      	subs	r0, r0, #1
 8000c1e:	1c49      	adds	r1, r1, #1
 8000c20:	4281      	cmp	r1, r0
 8000c22:	dbf7      	blt.n	8000c14 <_fp_digits+0x17c>
 8000c24:	46ab      	mov	fp, r5
 8000c26:	1ba8      	subs	r0, r5, r6
 8000c28:	1e40      	subs	r0, r0, #1
 8000c2a:	9009      	str	r0, [sp, #36]	; 0x24
 8000c2c:	2000      	movs	r0, #0
 8000c2e:	f804 000b 	strb.w	r0, [r4, fp]
 8000c32:	980b      	ldr	r0, [sp, #44]	; 0x2c
 8000c34:	9a09      	ldr	r2, [sp, #36]	; 0x24
 8000c36:	f8c0 8008 	str.w	r8, [r0, #8]
 8000c3a:	e9c0 2b00 	strd	r2, fp, [r0]
 8000c3e:	e77a      	b.n	8000b36 <_fp_digits+0x9e>
 8000c40:	2611      	movs	r6, #17
 8000c42:	f04f 0800 	mov.w	r8, #0
 8000c46:	e757      	b.n	8000af8 <_fp_digits+0x60>

08000c48 <_printf_fp_dec_real>:
_printf_fp_dec_real():
 8000c48:	e92d 4ff0 	stmdb	sp!, {r4, r5, r6, r7, r8, r9, sl, fp, lr}
 8000c4c:	4688      	mov	r8, r1
 8000c4e:	4604      	mov	r4, r0
 8000c50:	1dd2      	adds	r2, r2, #7
 8000c52:	f022 0107 	bic.w	r1, r2, #7
 8000c56:	b091      	sub	sp, #68	; 0x44
 8000c58:	e9d1 0100 	ldrd	r0, r1, [r1]
 8000c5c:	e9cd 010a 	strd	r0, r1, [sp, #40]	; 0x28
 8000c60:	f002 ffde 	bl	8003c20 <__ARM_fpclassify>
 8000c64:	4602      	mov	r2, r0
 8000c66:	980b      	ldr	r0, [sp, #44]	; 0x2c
 8000c68:	0fc0      	lsrs	r0, r0, #31
 8000c6a:	d001      	beq.n	8000c70 <_printf_fp_dec_real+0x28>
 8000c6c:	202d      	movs	r0, #45	; 0x2d
 8000c6e:	e007      	b.n	8000c80 <_printf_fp_dec_real+0x38>
 8000c70:	6820      	ldr	r0, [r4, #0]
 8000c72:	0781      	lsls	r1, r0, #30
 8000c74:	d501      	bpl.n	8000c7a <_printf_fp_dec_real+0x32>
 8000c76:	202b      	movs	r0, #43	; 0x2b
 8000c78:	e002      	b.n	8000c80 <_printf_fp_dec_real+0x38>
 8000c7a:	2120      	movs	r1, #32
 8000c7c:	ea01 00c0 	and.w	r0, r1, r0, lsl #3
 8000c80:	2a03      	cmp	r2, #3
 8000c82:	9009      	str	r0, [sp, #36]	; 0x24
 8000c84:	d001      	beq.n	8000c8a <_printf_fp_dec_real+0x42>
 8000c86:	2a07      	cmp	r2, #7
 8000c88:	db05      	blt.n	8000c96 <_printf_fp_dec_real+0x4e>
 8000c8a:	4603      	mov	r3, r0
 8000c8c:	4641      	mov	r1, r8
 8000c8e:	4620      	mov	r0, r4
 8000c90:	f000 fb10 	bl	80012b4 <_printf_fp_infnan>
 8000c94:	e10b      	b.n	8000eae <_printf_fp_dec_real+0x266>
 8000c96:	7820      	ldrb	r0, [r4, #0]
 8000c98:	0680      	lsls	r0, r0, #26
 8000c9a:	d501      	bpl.n	8000ca0 <_printf_fp_dec_real+0x58>
 8000c9c:	69e0      	ldr	r0, [r4, #28]
 8000c9e:	e000      	b.n	8000ca2 <_printf_fp_dec_real+0x5a>
 8000ca0:	2006      	movs	r0, #6
 8000ca2:	f1b8 0f65 	cmp.w	r8, #101	; 0x65
 8000ca6:	4681      	mov	r9, r0
 8000ca8:	d006      	beq.n	8000cb8 <_printf_fp_dec_real+0x70>
 8000caa:	f1b8 0f66 	cmp.w	r8, #102	; 0x66
 8000cae:	d018      	beq.n	8000ce2 <_printf_fp_dec_real+0x9a>
 8000cb0:	f1b8 0f67 	cmp.w	r8, #103	; 0x67
 8000cb4:	d170      	bne.n	8000d98 <_printf_fp_dec_real+0x150>
 8000cb6:	e031      	b.n	8000d1c <_printf_fp_dec_real+0xd4>
 8000cb8:	2000      	movs	r0, #0
 8000cba:	f1b9 0f11 	cmp.w	r9, #17
 8000cbe:	9000      	str	r0, [sp, #0]
 8000cc0:	db01      	blt.n	8000cc6 <_printf_fp_dec_real+0x7e>
 8000cc2:	2311      	movs	r3, #17
 8000cc4:	e001      	b.n	8000cca <_printf_fp_dec_real+0x82>
 8000cc6:	f109 0301 	add.w	r3, r9, #1
 8000cca:	aa0a      	add	r2, sp, #40	; 0x28
 8000ccc:	a901      	add	r1, sp, #4
 8000cce:	a80c      	add	r0, sp, #48	; 0x30
 8000cd0:	f7ff fee2 	bl	8000a98 <_fp_digits>
 8000cd4:	e9dd 700c 	ldrd	r7, r0, [sp, #48]	; 0x30
 8000cd8:	2600      	movs	r6, #0
 8000cda:	f109 0501 	add.w	r5, r9, #1
 8000cde:	4683      	mov	fp, r0
 8000ce0:	e047      	b.n	8000d72 <_printf_fp_dec_real+0x12a>
 8000ce2:	2001      	movs	r0, #1
 8000ce4:	464b      	mov	r3, r9
 8000ce6:	9000      	str	r0, [sp, #0]
 8000ce8:	f04f 4700 	mov.w	r7, #2147483648	; 0x80000000
 8000cec:	aa0a      	add	r2, sp, #40	; 0x28
 8000cee:	a901      	add	r1, sp, #4
 8000cf0:	a80c      	add	r0, sp, #48	; 0x30
 8000cf2:	f7ff fed1 	bl	8000a98 <_fp_digits>
 8000cf6:	e9dd b00d 	ldrd	fp, r0, [sp, #52]	; 0x34
 8000cfa:	990c      	ldr	r1, [sp, #48]	; 0x30
 8000cfc:	465d      	mov	r5, fp
 8000cfe:	2600      	movs	r6, #0
 8000d00:	b910      	cbnz	r0, 8000d08 <_printf_fp_dec_real+0xc0>
 8000d02:	f109 0001 	add.w	r0, r9, #1
 8000d06:	180d      	adds	r5, r1, r0
 8000d08:	ebb9 0005 	subs.w	r0, r9, r5
 8000d0c:	d403      	bmi.n	8000d16 <_printf_fp_dec_real+0xce>
 8000d0e:	f1c0 36ff 	rsb	r6, r0, #4294967295	; 0xffffffff
 8000d12:	f109 0501 	add.w	r5, r9, #1
 8000d16:	eba5 0009 	sub.w	r0, r5, r9
 8000d1a:	e02b      	b.n	8000d74 <_printf_fp_dec_real+0x12c>
 8000d1c:	f1b9 0f01 	cmp.w	r9, #1
 8000d20:	da01      	bge.n	8000d26 <_printf_fp_dec_real+0xde>
 8000d22:	f04f 0901 	mov.w	r9, #1
 8000d26:	2000      	movs	r0, #0
 8000d28:	f1b9 0f11 	cmp.w	r9, #17
 8000d2c:	9000      	str	r0, [sp, #0]
 8000d2e:	4648      	mov	r0, r9
 8000d30:	dd01      	ble.n	8000d36 <_printf_fp_dec_real+0xee>
 8000d32:	2311      	movs	r3, #17
 8000d34:	e000      	b.n	8000d38 <_printf_fp_dec_real+0xf0>
 8000d36:	4603      	mov	r3, r0
 8000d38:	aa0a      	add	r2, sp, #40	; 0x28
 8000d3a:	a901      	add	r1, sp, #4
 8000d3c:	a80c      	add	r0, sp, #48	; 0x30
 8000d3e:	f7ff feab 	bl	8000a98 <_fp_digits>
 8000d42:	e9dd 700c 	ldrd	r7, r0, [sp, #48]	; 0x30
 8000d46:	464d      	mov	r5, r9
 8000d48:	2600      	movs	r6, #0
 8000d4a:	4683      	mov	fp, r0
 8000d4c:	7820      	ldrb	r0, [r4, #0]
 8000d4e:	0700      	lsls	r0, r0, #28
 8000d50:	d40a      	bmi.n	8000d68 <_printf_fp_dec_real+0x120>
 8000d52:	45ab      	cmp	fp, r5
 8000d54:	da00      	bge.n	8000d58 <_printf_fp_dec_real+0x110>
 8000d56:	465d      	mov	r5, fp
 8000d58:	a801      	add	r0, sp, #4
 8000d5a:	2d01      	cmp	r5, #1
 8000d5c:	dd04      	ble.n	8000d68 <_printf_fp_dec_real+0x120>
 8000d5e:	1941      	adds	r1, r0, r5
 8000d60:	f811 1c01 	ldrb.w	r1, [r1, #-1]
 8000d64:	2930      	cmp	r1, #48	; 0x30
 8000d66:	d007      	beq.n	8000d78 <_printf_fp_dec_real+0x130>
 8000d68:	454f      	cmp	r7, r9
 8000d6a:	da02      	bge.n	8000d72 <_printf_fp_dec_real+0x12a>
 8000d6c:	f117 0f04 	cmn.w	r7, #4
 8000d70:	da04      	bge.n	8000d7c <_printf_fp_dec_real+0x134>
 8000d72:	2001      	movs	r0, #1
 8000d74:	4682      	mov	sl, r0
 8000d76:	e00f      	b.n	8000d98 <_printf_fp_dec_real+0x150>
 8000d78:	1e6d      	subs	r5, r5, #1
 8000d7a:	e7ee      	b.n	8000d5a <_printf_fp_dec_real+0x112>
 8000d7c:	2f00      	cmp	r7, #0
 8000d7e:	dc02      	bgt.n	8000d86 <_printf_fp_dec_real+0x13e>
 8000d80:	1bed      	subs	r5, r5, r7
 8000d82:	443e      	add	r6, r7
 8000d84:	e003      	b.n	8000d8e <_printf_fp_dec_real+0x146>
 8000d86:	1c78      	adds	r0, r7, #1
 8000d88:	42a8      	cmp	r0, r5
 8000d8a:	dd00      	ble.n	8000d8e <_printf_fp_dec_real+0x146>
 8000d8c:	1c7d      	adds	r5, r7, #1
 8000d8e:	1bb8      	subs	r0, r7, r6
 8000d90:	f100 0a01 	add.w	sl, r0, #1
 8000d94:	f04f 4700 	mov.w	r7, #2147483648	; 0x80000000
 8000d98:	7820      	ldrb	r0, [r4, #0]
 8000d9a:	0700      	lsls	r0, r0, #28
 8000d9c:	d403      	bmi.n	8000da6 <_printf_fp_dec_real+0x15e>
 8000d9e:	45aa      	cmp	sl, r5
 8000da0:	db01      	blt.n	8000da6 <_printf_fp_dec_real+0x15e>
 8000da2:	f04f 3aff 	mov.w	sl, #4294967295	; 0xffffffff
 8000da6:	2100      	movs	r1, #0
 8000da8:	f1b7 4f00 	cmp.w	r7, #2147483648	; 0x80000000
 8000dac:	f10d 0843 	add.w	r8, sp, #67	; 0x43
 8000db0:	f88d 1043 	strb.w	r1, [sp, #67]	; 0x43
 8000db4:	d024      	beq.n	8000e00 <_printf_fp_dec_real+0x1b8>
 8000db6:	2002      	movs	r0, #2
 8000db8:	232b      	movs	r3, #43	; 0x2b
 8000dba:	2f00      	cmp	r7, #0
 8000dbc:	da01      	bge.n	8000dc2 <_printf_fp_dec_real+0x17a>
 8000dbe:	427f      	negs	r7, r7
 8000dc0:	232d      	movs	r3, #45	; 0x2d
 8000dc2:	210a      	movs	r1, #10
 8000dc4:	1e02      	subs	r2, r0, #0
 8000dc6:	f1a0 0001 	sub.w	r0, r0, #1
 8000dca:	dc00      	bgt.n	8000dce <_printf_fp_dec_real+0x186>
 8000dcc:	b15f      	cbz	r7, 8000de6 <_printf_fp_dec_real+0x19e>
 8000dce:	fb97 fcf1 	sdiv	ip, r7, r1
 8000dd2:	fb97 f2f1 	sdiv	r2, r7, r1
 8000dd6:	fb01 7c1c 	mls	ip, r1, ip, r7
 8000dda:	4617      	mov	r7, r2
 8000ddc:	f10c 0c30 	add.w	ip, ip, #48	; 0x30
 8000de0:	f808 cd01 	strb.w	ip, [r8, #-1]!
 8000de4:	e7ee      	b.n	8000dc4 <_printf_fp_dec_real+0x17c>
 8000de6:	f1a8 0001 	sub.w	r0, r8, #1
 8000dea:	7003      	strb	r3, [r0, #0]
 8000dec:	8821      	ldrh	r1, [r4, #0]
 8000dee:	0509      	lsls	r1, r1, #20
 8000df0:	d501      	bpl.n	8000df6 <_printf_fp_dec_real+0x1ae>
 8000df2:	2145      	movs	r1, #69	; 0x45
 8000df4:	e000      	b.n	8000df8 <_printf_fp_dec_real+0x1b0>
 8000df6:	2165      	movs	r1, #101	; 0x65
 8000df8:	f1a0 0801 	sub.w	r8, r0, #1
 8000dfc:	f800 1c01 	strb.w	r1, [r0, #-1]
 8000e00:	9809      	ldr	r0, [sp, #36]	; 0x24
 8000e02:	a90f      	add	r1, sp, #60	; 0x3c
 8000e04:	eba1 0708 	sub.w	r7, r1, r8
 8000e08:	1dff      	adds	r7, r7, #7
 8000e0a:	b100      	cbz	r0, 8000e0e <_printf_fp_dec_real+0x1c6>
 8000e0c:	2001      	movs	r0, #1
 8000e0e:	1941      	adds	r1, r0, r5
 8000e10:	eb01 70ea 	add.w	r0, r1, sl, asr #31
 8000e14:	69a1      	ldr	r1, [r4, #24]
 8000e16:	4438      	add	r0, r7
 8000e18:	1a08      	subs	r0, r1, r0
 8000e1a:	1e40      	subs	r0, r0, #1
 8000e1c:	61a0      	str	r0, [r4, #24]
 8000e1e:	7820      	ldrb	r0, [r4, #0]
 8000e20:	06c0      	lsls	r0, r0, #27
 8000e22:	d402      	bmi.n	8000e2a <_printf_fp_dec_real+0x1e2>
 8000e24:	4620      	mov	r0, r4
 8000e26:	f7ff fae6 	bl	80003f6 <_printf_pre_padding>
 8000e2a:	9809      	ldr	r0, [sp, #36]	; 0x24
 8000e2c:	b128      	cbz	r0, 8000e3a <_printf_fp_dec_real+0x1f2>
 8000e2e:	e9d4 2101 	ldrd	r2, r1, [r4, #4]
 8000e32:	4790      	blx	r2
 8000e34:	6a20      	ldr	r0, [r4, #32]
 8000e36:	1c40      	adds	r0, r0, #1
 8000e38:	6220      	str	r0, [r4, #32]
 8000e3a:	7820      	ldrb	r0, [r4, #0]
 8000e3c:	06c0      	lsls	r0, r0, #27
 8000e3e:	d522      	bpl.n	8000e86 <_printf_fp_dec_real+0x23e>
 8000e40:	4620      	mov	r0, r4
 8000e42:	f7ff fad8 	bl	80003f6 <_printf_pre_padding>
 8000e46:	e01e      	b.n	8000e86 <_printf_fp_dec_real+0x23e>
 8000e48:	2e00      	cmp	r6, #0
 8000e4a:	db04      	blt.n	8000e56 <_printf_fp_dec_real+0x20e>
 8000e4c:	45b3      	cmp	fp, r6
 8000e4e:	dd02      	ble.n	8000e56 <_printf_fp_dec_real+0x20e>
 8000e50:	a801      	add	r0, sp, #4
 8000e52:	5d80      	ldrb	r0, [r0, r6]
 8000e54:	e000      	b.n	8000e58 <_printf_fp_dec_real+0x210>
 8000e56:	2030      	movs	r0, #48	; 0x30
 8000e58:	e9d4 2101 	ldrd	r2, r1, [r4, #4]
 8000e5c:	4790      	blx	r2
 8000e5e:	6a20      	ldr	r0, [r4, #32]
 8000e60:	1c40      	adds	r0, r0, #1
 8000e62:	6220      	str	r0, [r4, #32]
 8000e64:	1c76      	adds	r6, r6, #1
 8000e66:	f1aa 0001 	sub.w	r0, sl, #1
 8000e6a:	ea5f 0a00 	movs.w	sl, r0
 8000e6e:	d10a      	bne.n	8000e86 <_printf_fp_dec_real+0x23e>
 8000e70:	f000 fa1c 	bl	80012ac <__rt_locale>
 8000e74:	68c0      	ldr	r0, [r0, #12]
 8000e76:	6801      	ldr	r1, [r0, #0]
 8000e78:	5c40      	ldrb	r0, [r0, r1]
 8000e7a:	e9d4 2101 	ldrd	r2, r1, [r4, #4]
 8000e7e:	4790      	blx	r2
 8000e80:	6a20      	ldr	r0, [r4, #32]
 8000e82:	1c40      	adds	r0, r0, #1
 8000e84:	6220      	str	r0, [r4, #32]
 8000e86:	1e28      	subs	r0, r5, #0
 8000e88:	f1a5 0501 	sub.w	r5, r5, #1
 8000e8c:	dcdc      	bgt.n	8000e48 <_printf_fp_dec_real+0x200>
 8000e8e:	e007      	b.n	8000ea0 <_printf_fp_dec_real+0x258>
 8000e90:	e9d4 2101 	ldrd	r2, r1, [r4, #4]
 8000e94:	f818 0b01 	ldrb.w	r0, [r8], #1
 8000e98:	4790      	blx	r2
 8000e9a:	6a20      	ldr	r0, [r4, #32]
 8000e9c:	1c40      	adds	r0, r0, #1
 8000e9e:	6220      	str	r0, [r4, #32]
 8000ea0:	1e38      	subs	r0, r7, #0
 8000ea2:	f1a7 0701 	sub.w	r7, r7, #1
 8000ea6:	dcf3      	bgt.n	8000e90 <_printf_fp_dec_real+0x248>
 8000ea8:	4620      	mov	r0, r4
 8000eaa:	f7ff faba 	bl	8000422 <_printf_post_padding>
 8000eae:	2003      	movs	r0, #3
 8000eb0:	b011      	add	sp, #68	; 0x44
 8000eb2:	e641      	b.n	8000b38 <_fp_digits+0xa0>

08000eb4 <_printf_fp_hex_real>:
_printf_fp_hex_real():
 8000eb4:	e92d 4ff0 	stmdb	sp!, {r4, r5, r6, r7, r8, r9, sl, fp, lr}
 8000eb8:	4604      	mov	r4, r0
 8000eba:	460d      	mov	r5, r1
 8000ebc:	1dd2      	adds	r2, r2, #7
 8000ebe:	f022 0007 	bic.w	r0, r2, #7
 8000ec2:	b089      	sub	sp, #36	; 0x24
 8000ec4:	e9d0 9700 	ldrd	r9, r7, [r0]
 8000ec8:	4648      	mov	r0, r9
 8000eca:	4639      	mov	r1, r7
 8000ecc:	f002 fea8 	bl	8003c20 <__ARM_fpclassify>
 8000ed0:	4602      	mov	r2, r0
 8000ed2:	0ff8      	lsrs	r0, r7, #31
 8000ed4:	d001      	beq.n	8000eda <_printf_fp_hex_real+0x26>
 8000ed6:	232d      	movs	r3, #45	; 0x2d
 8000ed8:	e007      	b.n	8000eea <_printf_fp_hex_real+0x36>
 8000eda:	6820      	ldr	r0, [r4, #0]
 8000edc:	0781      	lsls	r1, r0, #30
 8000ede:	d501      	bpl.n	8000ee4 <_printf_fp_hex_real+0x30>
 8000ee0:	232b      	movs	r3, #43	; 0x2b
 8000ee2:	e002      	b.n	8000eea <_printf_fp_hex_real+0x36>
 8000ee4:	2120      	movs	r1, #32
 8000ee6:	ea01 03c0 	and.w	r3, r1, r0, lsl #3
 8000eea:	f88d 3020 	strb.w	r3, [sp, #32]
 8000eee:	b10b      	cbz	r3, 8000ef4 <_printf_fp_hex_real+0x40>
 8000ef0:	2001      	movs	r0, #1
 8000ef2:	e000      	b.n	8000ef6 <_printf_fp_hex_real+0x42>
 8000ef4:	2000      	movs	r0, #0
 8000ef6:	2a03      	cmp	r2, #3
 8000ef8:	4682      	mov	sl, r0
 8000efa:	d001      	beq.n	8000f00 <_printf_fp_hex_real+0x4c>
 8000efc:	2a07      	cmp	r2, #7
 8000efe:	db04      	blt.n	8000f0a <_printf_fp_hex_real+0x56>
 8000f00:	4629      	mov	r1, r5
 8000f02:	4620      	mov	r0, r4
 8000f04:	f000 f9d6 	bl	80012b4 <_printf_fp_infnan>
 8000f08:	e13f      	b.n	800118a <_printf_fp_hex_real+0x2d6>
 8000f0a:	7820      	ldrb	r0, [r4, #0]
 8000f0c:	0680      	lsls	r0, r0, #26
 8000f0e:	d401      	bmi.n	8000f14 <_printf_fp_hex_real+0x60>
 8000f10:	250d      	movs	r5, #13
 8000f12:	e000      	b.n	8000f16 <_printf_fp_hex_real+0x62>
 8000f14:	69e5      	ldr	r5, [r4, #28]
 8000f16:	f3c7 560a 	ubfx	r6, r7, #20, #11
 8000f1a:	2d0d      	cmp	r5, #13
 8000f1c:	da49      	bge.n	8000fb2 <_printf_fp_hex_real+0xfe>
 8000f1e:	2100      	movs	r1, #0
 8000f20:	ea4f 5b17 	mov.w	fp, r7, lsr #20
 8000f24:	4608      	mov	r0, r1
 8000f26:	f04f 0000 	mov.w	r0, #0
 8000f2a:	2f00      	cmp	r7, #0
 8000f2c:	f400 0040 	and.w	r0, r0, #12582912	; 0xc00000
 8000f30:	da07      	bge.n	8000f42 <_printf_fp_hex_real+0x8e>
 8000f32:	eb00 0080 	add.w	r0, r0, r0, lsl #2
 8000f36:	f44f 0140 	mov.w	r1, #12582912	; 0xc00000
 8000f3a:	eb00 70d0 	add.w	r0, r0, r0, lsr #31
 8000f3e:	ea01 0060 	and.w	r0, r1, r0, asr #1
 8000f42:	1581      	asrs	r1, r0, #22
 8000f44:	2901      	cmp	r1, #1
 8000f46:	dd01      	ble.n	8000f4c <_printf_fp_hex_real+0x98>
 8000f48:	f04f 31ff 	mov.w	r1, #4294967295	; 0xffffffff
 8000f4c:	2200      	movs	r2, #0
 8000f4e:	ea4f 0c85 	mov.w	ip, r5, lsl #2
 8000f52:	f1bc 0f18 	cmp.w	ip, #24
 8000f56:	d306      	bcc.n	8000f66 <_printf_fp_hex_real+0xb2>
 8000f58:	4613      	mov	r3, r2
 8000f5a:	f1ac 0018 	sub.w	r0, ip, #24
 8000f5e:	f04f 5280 	mov.w	r2, #268435456	; 0x10000000
 8000f62:	40c2      	lsrs	r2, r0
 8000f64:	e003      	b.n	8000f6e <_printf_fp_hex_real+0xba>
 8000f66:	f44f 1380 	mov.w	r3, #1048576	; 0x100000
 8000f6a:	fa23 f30c 	lsr.w	r3, r3, ip
 8000f6e:	f10c 0c0c 	add.w	ip, ip, #12
 8000f72:	f1bc 0f20 	cmp.w	ip, #32
 8000f76:	d304      	bcc.n	8000f82 <_printf_fp_hex_real+0xce>
 8000f78:	f1ac 0c20 	sub.w	ip, ip, #32
 8000f7c:	fa09 f00c 	lsl.w	r0, r9, ip
 8000f80:	e001      	b.n	8000f86 <_printf_fp_hex_real+0xd2>
 8000f82:	fa07 f00c 	lsl.w	r0, r7, ip
 8000f86:	2900      	cmp	r1, #0
 8000f88:	f04f 4800 	mov.w	r8, #2147483648	; 0x80000000
 8000f8c:	dd01      	ble.n	8000f92 <_printf_fp_hex_real+0xde>
 8000f8e:	b918      	cbnz	r0, 8000f98 <_printf_fp_hex_real+0xe4>
 8000f90:	e00f      	b.n	8000fb2 <_printf_fp_hex_real+0xfe>
 8000f92:	d10e      	bne.n	8000fb2 <_printf_fp_hex_real+0xfe>
 8000f94:	4540      	cmp	r0, r8
 8000f96:	d30c      	bcc.n	8000fb2 <_printf_fp_hex_real+0xfe>
 8000f98:	eb19 0902 	adds.w	r9, r9, r2
 8000f9c:	415f      	adcs	r7, r3
 8000f9e:	b921      	cbnz	r1, 8000faa <_printf_fp_hex_real+0xf6>
 8000fa0:	4540      	cmp	r0, r8
 8000fa2:	d102      	bne.n	8000faa <_printf_fp_hex_real+0xf6>
 8000fa4:	439f      	bics	r7, r3
 8000fa6:	ea29 0902 	bic.w	r9, r9, r2
 8000faa:	ebbb 5f17 	cmp.w	fp, r7, lsr #20
 8000fae:	d000      	beq.n	8000fb2 <_printf_fp_hex_real+0xfe>
 8000fb0:	1c76      	adds	r6, r6, #1
 8000fb2:	8820      	ldrh	r0, [r4, #0]
 8000fb4:	0500      	lsls	r0, r0, #20
 8000fb6:	d502      	bpl.n	8000fbe <_printf_fp_hex_real+0x10a>
 8000fb8:	487b      	ldr	r0, [pc, #492]	; (80011a8 <_printf_fp_hex_real+0x2f4>)
 8000fba:	4478      	add	r0, pc
 8000fbc:	e002      	b.n	8000fc4 <_printf_fp_hex_real+0x110>
 8000fbe:	487a      	ldr	r0, [pc, #488]	; (80011a8 <_printf_fp_hex_real+0x2f4>)
 8000fc0:	4478      	add	r0, pc
 8000fc2:	3819      	subs	r0, #25
 8000fc4:	aa08      	add	r2, sp, #32
 8000fc6:	2330      	movs	r3, #48	; 0x30
 8000fc8:	f802 300a 	strb.w	r3, [r2, sl]
 8000fcc:	7c03      	ldrb	r3, [r0, #16]
 8000fce:	f10a 0101 	add.w	r1, sl, #1
 8000fd2:	2e00      	cmp	r6, #0
 8000fd4:	f10a 0a02 	add.w	sl, sl, #2
 8000fd8:	5453      	strb	r3, [r2, r1]
 8000fda:	466a      	mov	r2, sp
 8000fdc:	dc02      	bgt.n	8000fe4 <_printf_fp_hex_real+0x130>
 8000fde:	f04f 0130 	mov.w	r1, #48	; 0x30
 8000fe2:	e001      	b.n	8000fe8 <_printf_fp_hex_real+0x134>
 8000fe4:	f04f 0131 	mov.w	r1, #49	; 0x31
 8000fe8:	f04f 0801 	mov.w	r8, #1
 8000fec:	f88d 1000 	strb.w	r1, [sp]
 8000ff0:	d002      	beq.n	8000ff8 <_printf_fp_hex_real+0x144>
 8000ff2:	f2a6 36ff 	subw	r6, r6, #1023	; 0x3ff
 8000ff6:	e003      	b.n	8001000 <_printf_fp_hex_real+0x14c>
 8000ff8:	ea59 0147 	orrs.w	r1, r9, r7, lsl #1
 8000ffc:	d000      	beq.n	8001000 <_printf_fp_hex_real+0x14c>
 8000ffe:	4e6b      	ldr	r6, [pc, #428]	; (80011ac <_printf_fp_hex_real+0x2f8>)
 8001000:	2d00      	cmp	r5, #0
 8001002:	dc02      	bgt.n	800100a <_printf_fp_hex_real+0x156>
 8001004:	7821      	ldrb	r1, [r4, #0]
 8001006:	0709      	lsls	r1, r1, #28
 8001008:	d504      	bpl.n	8001014 <_printf_fp_hex_real+0x160>
 800100a:	f04f 0802 	mov.w	r8, #2
 800100e:	212e      	movs	r1, #46	; 0x2e
 8001010:	f88d 1001 	strb.w	r1, [sp, #1]
 8001014:	46c4      	mov	ip, r8
 8001016:	2100      	movs	r1, #0
 8001018:	e00b      	b.n	8001032 <_printf_fp_hex_real+0x17e>
 800101a:	f3c7 4303 	ubfx	r3, r7, #16, #4
 800101e:	013f      	lsls	r7, r7, #4
 8001020:	5cc3      	ldrb	r3, [r0, r3]
 8001022:	1c49      	adds	r1, r1, #1
 8001024:	1e6d      	subs	r5, r5, #1
 8001026:	f802 3008 	strb.w	r3, [r2, r8]
 800102a:	2905      	cmp	r1, #5
 800102c:	f108 0801 	add.w	r8, r8, #1
 8001030:	da01      	bge.n	8001036 <_printf_fp_hex_real+0x182>
 8001032:	2d00      	cmp	r5, #0
 8001034:	dcf1      	bgt.n	800101a <_printf_fp_hex_real+0x166>
 8001036:	2100      	movs	r1, #0
 8001038:	e00c      	b.n	8001054 <_printf_fp_hex_real+0x1a0>
 800103a:	eb00 7319 	add.w	r3, r0, r9, lsr #28
 800103e:	1c49      	adds	r1, r1, #1
 8001040:	781b      	ldrb	r3, [r3, #0]
 8001042:	1e6d      	subs	r5, r5, #1
 8001044:	2908      	cmp	r1, #8
 8001046:	f802 3008 	strb.w	r3, [r2, r8]
 800104a:	ea4f 1909 	mov.w	r9, r9, lsl #4
 800104e:	f108 0801 	add.w	r8, r8, #1
 8001052:	da01      	bge.n	8001058 <_printf_fp_hex_real+0x1a4>
 8001054:	2d00      	cmp	r5, #0
 8001056:	dcf0      	bgt.n	800103a <_printf_fp_hex_real+0x186>
 8001058:	6821      	ldr	r1, [r4, #0]
 800105a:	068b      	lsls	r3, r1, #26
 800105c:	d502      	bpl.n	8001064 <_printf_fp_hex_real+0x1b0>
 800105e:	e016      	b.n	800108e <_printf_fp_hex_real+0x1da>
 8001060:	f1a8 0801 	sub.w	r8, r8, #1
 8001064:	45e0      	cmp	r8, ip
 8001066:	dd05      	ble.n	8001074 <_printf_fp_hex_real+0x1c0>
 8001068:	eb02 0308 	add.w	r3, r2, r8
 800106c:	f813 3c01 	ldrb.w	r3, [r3, #-1]
 8001070:	2b30      	cmp	r3, #48	; 0x30
 8001072:	d0f5      	beq.n	8001060 <_printf_fp_hex_real+0x1ac>
 8001074:	f1b8 0f00 	cmp.w	r8, #0
 8001078:	dd09      	ble.n	800108e <_printf_fp_hex_real+0x1da>
 800107a:	eb02 0308 	add.w	r3, r2, r8
 800107e:	f813 3c01 	ldrb.w	r3, [r3, #-1]
 8001082:	2b2e      	cmp	r3, #46	; 0x2e
 8001084:	d103      	bne.n	800108e <_printf_fp_hex_real+0x1da>
 8001086:	0709      	lsls	r1, r1, #28
 8001088:	d401      	bmi.n	800108e <_printf_fp_hex_real+0x1da>
 800108a:	f1a8 0801 	sub.w	r8, r8, #1
 800108e:	2d00      	cmp	r5, #0
 8001090:	dd05      	ble.n	800109e <_printf_fp_hex_real+0x1ea>
 8001092:	213e      	movs	r1, #62	; 0x3e
 8001094:	f802 1008 	strb.w	r1, [r2, r8]
 8001098:	1e6d      	subs	r5, r5, #1
 800109a:	f108 0801 	add.w	r8, r8, #1
 800109e:	7c40      	ldrb	r0, [r0, #17]
 80010a0:	2e00      	cmp	r6, #0
 80010a2:	f802 0008 	strb.w	r0, [r2, r8]
 80010a6:	f108 0801 	add.w	r8, r8, #1
 80010aa:	da04      	bge.n	80010b6 <_printf_fp_hex_real+0x202>
 80010ac:	202d      	movs	r0, #45	; 0x2d
 80010ae:	4276      	negs	r6, r6
 80010b0:	f802 0008 	strb.w	r0, [r2, r8]
 80010b4:	e002      	b.n	80010bc <_printf_fp_hex_real+0x208>
 80010b6:	202b      	movs	r0, #43	; 0x2b
 80010b8:	f802 0008 	strb.w	r0, [r2, r8]
 80010bc:	210a      	movs	r1, #10
 80010be:	f44f 707a 	mov.w	r0, #1000	; 0x3e8
 80010c2:	4286      	cmp	r6, r0
 80010c4:	f108 0801 	add.w	r8, r8, #1
 80010c8:	db0b      	blt.n	80010e2 <_printf_fp_hex_real+0x22e>
 80010ca:	fb96 f3f0 	sdiv	r3, r6, r0
 80010ce:	3330      	adds	r3, #48	; 0x30
 80010d0:	f802 3008 	strb.w	r3, [r2, r8]
 80010d4:	fb96 f3f0 	sdiv	r3, r6, r0
 80010d8:	f108 0801 	add.w	r8, r8, #1
 80010dc:	fb00 6613 	mls	r6, r0, r3, r6
 80010e0:	e001      	b.n	80010e6 <_printf_fp_hex_real+0x232>
 80010e2:	2e64      	cmp	r6, #100	; 0x64
 80010e4:	db0c      	blt.n	8001100 <_printf_fp_hex_real+0x24c>
 80010e6:	2064      	movs	r0, #100	; 0x64
 80010e8:	fb96 f3f0 	sdiv	r3, r6, r0
 80010ec:	3330      	adds	r3, #48	; 0x30
 80010ee:	f802 3008 	strb.w	r3, [r2, r8]
 80010f2:	fb96 f3f0 	sdiv	r3, r6, r0
 80010f6:	f108 0801 	add.w	r8, r8, #1
 80010fa:	fb00 6613 	mls	r6, r0, r3, r6
 80010fe:	e001      	b.n	8001104 <_printf_fp_hex_real+0x250>
 8001100:	2e0a      	cmp	r6, #10
 8001102:	db06      	blt.n	8001112 <_printf_fp_hex_real+0x25e>
 8001104:	fb96 f0f1 	sdiv	r0, r6, r1
 8001108:	3030      	adds	r0, #48	; 0x30
 800110a:	f802 0008 	strb.w	r0, [r2, r8]
 800110e:	f108 0801 	add.w	r8, r8, #1
 8001112:	fb96 f0f1 	sdiv	r0, r6, r1
 8001116:	fb01 6010 	mls	r0, r1, r0, r6
 800111a:	3030      	adds	r0, #48	; 0x30
 800111c:	f802 0008 	strb.w	r0, [r2, r8]
 8001120:	69a1      	ldr	r1, [r4, #24]
 8001122:	f108 0801 	add.w	r8, r8, #1
 8001126:	eb08 0205 	add.w	r2, r8, r5
 800112a:	eb02 000a 	add.w	r0, r2, sl
 800112e:	1a08      	subs	r0, r1, r0
 8001130:	61a0      	str	r0, [r4, #24]
 8001132:	7820      	ldrb	r0, [r4, #0]
 8001134:	06c0      	lsls	r0, r0, #27
 8001136:	d402      	bmi.n	800113e <_printf_fp_hex_real+0x28a>
 8001138:	4620      	mov	r0, r4
 800113a:	f7ff f95c 	bl	80003f6 <_printf_pre_padding>
 800113e:	6a21      	ldr	r1, [r4, #32]
 8001140:	ae08      	add	r6, sp, #32
 8001142:	eb01 000a 	add.w	r0, r1, sl
 8001146:	6220      	str	r0, [r4, #32]
 8001148:	e004      	b.n	8001154 <_printf_fp_hex_real+0x2a0>
 800114a:	e9d4 2101 	ldrd	r2, r1, [r4, #4]
 800114e:	f816 0b01 	ldrb.w	r0, [r6], #1
 8001152:	4790      	blx	r2
 8001154:	f1ba 0a01 	subs.w	sl, sl, #1
 8001158:	d2f7      	bcs.n	800114a <_printf_fp_hex_real+0x296>
 800115a:	7820      	ldrb	r0, [r4, #0]
 800115c:	06c0      	lsls	r0, r0, #27
 800115e:	d502      	bpl.n	8001166 <_printf_fp_hex_real+0x2b2>
 8001160:	4620      	mov	r0, r4
 8001162:	f7ff f948 	bl	80003f6 <_printf_pre_padding>
 8001166:	466e      	mov	r6, sp
 8001168:	e009      	b.n	800117e <_printf_fp_hex_real+0x2ca>
 800116a:	f816 0b01 	ldrb.w	r0, [r6], #1
 800116e:	283e      	cmp	r0, #62	; 0x3e
 8001170:	d00f      	beq.n	8001192 <_printf_fp_hex_real+0x2de>
 8001172:	e9d4 2101 	ldrd	r2, r1, [r4, #4]
 8001176:	4790      	blx	r2
 8001178:	6a20      	ldr	r0, [r4, #32]
 800117a:	1c40      	adds	r0, r0, #1
 800117c:	6220      	str	r0, [r4, #32]
 800117e:	f1b8 0801 	subs.w	r8, r8, #1
 8001182:	d2f2      	bcs.n	800116a <_printf_fp_hex_real+0x2b6>
 8001184:	4620      	mov	r0, r4
 8001186:	f7ff f94c 	bl	8000422 <_printf_post_padding>
 800118a:	b009      	add	sp, #36	; 0x24
 800118c:	2003      	movs	r0, #3
 800118e:	e8bd 8ff0 	ldmia.w	sp!, {r4, r5, r6, r7, r8, r9, sl, fp, pc}
 8001192:	6a20      	ldr	r0, [r4, #32]
 8001194:	4428      	add	r0, r5
 8001196:	6220      	str	r0, [r4, #32]
 8001198:	e003      	b.n	80011a2 <_printf_fp_hex_real+0x2ee>
 800119a:	e9d4 2101 	ldrd	r2, r1, [r4, #4]
 800119e:	2030      	movs	r0, #48	; 0x30
 80011a0:	4790      	blx	r2
 80011a2:	1e6d      	subs	r5, r5, #1
 80011a4:	d3eb      	bcc.n	800117e <_printf_fp_hex_real+0x2ca>
 80011a6:	e7f8      	b.n	800119a <_printf_fp_hex_real+0x2e6>
 80011a8:	00002d72 	andeq	r2, r0, r2, ror sp
 80011ac:	fffffc02 			; <UNDEFINED> instruction: 0xfffffc02

080011b0 <_printf_cs_common>:
_printf_cs_common():
 80011b0:	b510      	push	{r4, lr}
 80011b2:	6943      	ldr	r3, [r0, #20]
 80011b4:	b113      	cbz	r3, 80011bc <_printf_cs_common+0xc>
 80011b6:	f3af 8000 	nop.w
 80011ba:	e001      	b.n	80011c0 <_printf_cs_common+0x10>
 80011bc:	f7ff f954 	bl	8000468 <_printf_str>
 80011c0:	2001      	movs	r0, #1
 80011c2:	bd10      	pop	{r4, pc}

080011c4 <_printf_char>:
_printf_char():
 80011c4:	7812      	ldrb	r2, [r2, #0]
 80011c6:	f100 0124 	add.w	r1, r0, #36	; 0x24
 80011ca:	700a      	strb	r2, [r1, #0]
 80011cc:	2200      	movs	r2, #0
 80011ce:	704a      	strb	r2, [r1, #1]
 80011d0:	2201      	movs	r2, #1
 80011d2:	e7ed      	b.n	80011b0 <_printf_cs_common>

080011d4 <_printf_string>:
_printf_string():
 80011d4:	6811      	ldr	r1, [r2, #0]
 80011d6:	f04f 32ff 	mov.w	r2, #4294967295	; 0xffffffff
 80011da:	e7e9      	b.n	80011b0 <_printf_cs_common>

080011dc <_printf_lcs_common>:
_printf_lcs_common():
 80011dc:	b510      	push	{r4, lr}
 80011de:	6943      	ldr	r3, [r0, #20]
 80011e0:	b113      	cbz	r3, 80011e8 <_printf_lcs_common+0xc>
 80011e2:	f3af 8000 	nop.w
 80011e6:	e001      	b.n	80011ec <_printf_lcs_common+0x10>
 80011e8:	f7ff f9d6 	bl	8000598 <_printf_wctomb>
 80011ec:	2001      	movs	r0, #1
 80011ee:	bd10      	pop	{r4, pc}

080011f0 <_printf_wchar>:
_printf_wchar():
 80011f0:	8812      	ldrh	r2, [r2, #0]
 80011f2:	f100 0124 	add.w	r1, r0, #36	; 0x24
 80011f6:	8482      	strh	r2, [r0, #36]	; 0x24
 80011f8:	2200      	movs	r2, #0
 80011fa:	84c2      	strh	r2, [r0, #38]	; 0x26
 80011fc:	2201      	movs	r2, #1
 80011fe:	e7ed      	b.n	80011dc <_printf_lcs_common>

08001200 <_printf_wstring>:
_printf_wstring():
 8001200:	6811      	ldr	r1, [r2, #0]
 8001202:	f04f 32ff 	mov.w	r2, #4294967295	; 0xffffffff
 8001206:	e7e9      	b.n	80011dc <_printf_lcs_common>

08001208 <_c16rtomb>:
_c16rtomb():
 8001208:	e92d 41f0 	stmdb	sp!, {r4, r5, r6, r7, r8, lr}
 800120c:	4616      	mov	r6, r2
 800120e:	460c      	mov	r4, r1
 8001210:	4605      	mov	r5, r0
 8001212:	f000 f843 	bl	800129c <__rt_ctype_table>
 8001216:	6803      	ldr	r3, [r0, #0]
 8001218:	f893 0101 	ldrb.w	r0, [r3, #257]	; 0x101
 800121c:	2801      	cmp	r0, #1
 800121e:	d007      	beq.n	8001230 <_c16rtomb+0x28>
 8001220:	2cff      	cmp	r4, #255	; 0xff
 8001222:	d812      	bhi.n	800124a <_c16rtomb+0x42>
 8001224:	5d18      	ldrb	r0, [r3, r4]
 8001226:	b180      	cbz	r0, 800124a <_c16rtomb+0x42>
 8001228:	2001      	movs	r0, #1
 800122a:	702c      	strb	r4, [r5, #0]
 800122c:	e8bd 81f0 	ldmia.w	sp!, {r4, r5, r6, r7, r8, pc}
 8001230:	f8d3 0107 	ldr.w	r0, [r3, #263]	; 0x107
 8001234:	4632      	mov	r2, r6
 8001236:	4621      	mov	r1, r4
 8001238:	f203 1307 	addw	r3, r3, #263	; 0x107
 800123c:	18c7      	adds	r7, r0, r3
 800123e:	4628      	mov	r0, r5
 8001240:	46bc      	mov	ip, r7
 8001242:	e8bd 41f0 	ldmia.w	sp!, {r4, r5, r6, r7, r8, lr}
 8001246:	2300      	movs	r3, #0
 8001248:	4760      	bx	ip
 800124a:	f04f 30ff 	mov.w	r0, #4294967295	; 0xffffffff
 800124e:	e7ed      	b.n	800122c <_c16rtomb+0x24>

08001250 <__user_setup_stackheap>:
__user_setup_stackheap():
 8001250:	4675      	mov	r5, lr
 8001252:	f000 f8eb 	bl	800142c <__user_libspace>
 8001256:	46ae      	mov	lr, r5
 8001258:	0005      	movs	r5, r0
 800125a:	4669      	mov	r1, sp
 800125c:	4653      	mov	r3, sl
 800125e:	f020 0007 	bic.w	r0, r0, #7
 8001262:	4685      	mov	sp, r0
 8001264:	b018      	add	sp, #96	; 0x60
 8001266:	b520      	push	{r5, lr}
 8001268:	f7ff f89e 	bl	80003a8 <__user_initial_stackheap>
 800126c:	e8bd 4020 	ldmia.w	sp!, {r5, lr}
 8001270:	f04f 0600 	mov.w	r6, #0
 8001274:	f04f 0700 	mov.w	r7, #0
 8001278:	f04f 0800 	mov.w	r8, #0
 800127c:	f04f 0b00 	mov.w	fp, #0
 8001280:	46ac      	mov	ip, r5
 8001282:	e8ac 09c0 	stmia.w	ip!, {r6, r7, r8, fp}
 8001286:	e8ac 09c0 	stmia.w	ip!, {r6, r7, r8, fp}
 800128a:	e8ac 09c0 	stmia.w	ip!, {r6, r7, r8, fp}
 800128e:	e8ac 09c0 	stmia.w	ip!, {r6, r7, r8, fp}
 8001292:	f021 0107 	bic.w	r1, r1, #7
 8001296:	468d      	mov	sp, r1
 8001298:	4770      	bx	lr
	...

0800129c <__rt_ctype_table>:
__rt_ctype_table():
 800129c:	b510      	push	{r4, lr}
 800129e:	f000 f805 	bl	80012ac <__rt_locale>
 80012a2:	1d00      	adds	r0, r0, #4
 80012a4:	bd10      	pop	{r4, pc}
 80012a6:	bf00      	nop
 80012a8:	000029e5 	andeq	r2, r0, r5, ror #19

080012ac <__rt_locale>:
__rt_locale():
 80012ac:	4800      	ldr	r0, [pc, #0]	; (80012b0 <__rt_locale+0x4>)
 80012ae:	4770      	bx	lr
 80012b0:	20023440 	andcs	r3, r2, r0, asr #8

080012b4 <_printf_fp_infnan>:
_printf_fp_infnan():
 80012b4:	e92d 41f0 	stmdb	sp!, {r4, r5, r6, r7, r8, lr}
 80012b8:	461f      	mov	r7, r3
 80012ba:	4604      	mov	r4, r0
 80012bc:	2603      	movs	r6, #3
 80012be:	6801      	ldr	r1, [r0, #0]
 80012c0:	2a07      	cmp	r2, #7
 80012c2:	f401 6000 	and.w	r0, r1, #2048	; 0x800
 80012c6:	db04      	blt.n	80012d2 <_printf_fp_infnan+0x1e>
 80012c8:	b108      	cbz	r0, 80012ce <_printf_fp_infnan+0x1a>
 80012ca:	a516      	add	r5, pc, #88	; (adr r5, 8001324 <_printf_fp_infnan+0x70>)
 80012cc:	e005      	b.n	80012da <_printf_fp_infnan+0x26>
 80012ce:	a516      	add	r5, pc, #88	; (adr r5, 8001328 <_printf_fp_infnan+0x74>)
 80012d0:	e003      	b.n	80012da <_printf_fp_infnan+0x26>
 80012d2:	b108      	cbz	r0, 80012d8 <_printf_fp_infnan+0x24>
 80012d4:	a515      	add	r5, pc, #84	; (adr r5, 800132c <_printf_fp_infnan+0x78>)
 80012d6:	e000      	b.n	80012da <_printf_fp_infnan+0x26>
 80012d8:	a515      	add	r5, pc, #84	; (adr r5, 8001330 <_printf_fp_infnan+0x7c>)
 80012da:	f021 0010 	bic.w	r0, r1, #16
 80012de:	6020      	str	r0, [r4, #0]
 80012e0:	69a0      	ldr	r0, [r4, #24]
 80012e2:	1ec0      	subs	r0, r0, #3
 80012e4:	61a0      	str	r0, [r4, #24]
 80012e6:	b10f      	cbz	r7, 80012ec <_printf_fp_infnan+0x38>
 80012e8:	1e40      	subs	r0, r0, #1
 80012ea:	61a0      	str	r0, [r4, #24]
 80012ec:	4620      	mov	r0, r4
 80012ee:	f7ff f882 	bl	80003f6 <_printf_pre_padding>
 80012f2:	b14f      	cbz	r7, 8001308 <_printf_fp_infnan+0x54>
 80012f4:	e9d4 2101 	ldrd	r2, r1, [r4, #4]
 80012f8:	4638      	mov	r0, r7
 80012fa:	4790      	blx	r2
 80012fc:	6a20      	ldr	r0, [r4, #32]
 80012fe:	1c40      	adds	r0, r0, #1
 8001300:	6220      	str	r0, [r4, #32]
 8001302:	1cc0      	adds	r0, r0, #3
 8001304:	6220      	str	r0, [r4, #32]
 8001306:	e006      	b.n	8001316 <_printf_fp_infnan+0x62>
 8001308:	6a20      	ldr	r0, [r4, #32]
 800130a:	e7fa      	b.n	8001302 <_printf_fp_infnan+0x4e>
 800130c:	e9d4 2101 	ldrd	r2, r1, [r4, #4]
 8001310:	f815 0b01 	ldrb.w	r0, [r5], #1
 8001314:	4790      	blx	r2
 8001316:	1e76      	subs	r6, r6, #1
 8001318:	d2f8      	bcs.n	800130c <_printf_fp_infnan+0x58>
 800131a:	4620      	mov	r0, r4
 800131c:	f7ff f881 	bl	8000422 <_printf_post_padding>
 8001320:	e8bd 81f0 	ldmia.w	sp!, {r4, r5, r6, r7, r8, pc}
 8001324:	004e414e 	subeq	r4, lr, lr, asr #2
 8001328:	006e616e 	rsbeq	r6, lr, lr, ror #2
 800132c:	00464e49 	subeq	r4, r6, r9, asr #28
 8001330:	00666e69 	rsbeq	r6, r6, r9, ror #28

08001334 <_btod_etento>:
_btod_etento():
 8001334:	e92d 47f0 	stmdb	sp!, {r4, r5, r6, r7, r8, r9, sl, lr}
 8001338:	4681      	mov	r9, r0
 800133a:	4616      	mov	r6, r2
 800133c:	b08a      	sub	sp, #40	; 0x28
 800133e:	4835      	ldr	r0, [pc, #212]	; (8001414 <_btod_etento+0xe0>)
 8001340:	4478      	add	r0, pc
 8001342:	c80d      	ldmia	r0, {r0, r2, r3}
 8001344:	e88d 000d 	stmia.w	sp, {r0, r2, r3}
 8001348:	4832      	ldr	r0, [pc, #200]	; (8001414 <_btod_etento+0xe0>)
 800134a:	4478      	add	r0, pc
 800134c:	1c80      	adds	r0, r0, #2
 800134e:	ac03      	add	r4, sp, #12
 8001350:	c80d      	ldmia	r0, {r0, r2, r3}
 8001352:	e884 000d 	stmia.w	r4, {r0, r2, r3}
 8001356:	f641 309b 	movw	r0, #7067	; 0x1b9b
 800135a:	4408      	add	r0, r1
 800135c:	2137      	movs	r1, #55	; 0x37
 800135e:	fb90 f2f1 	sdiv	r2, r0, r1
 8001362:	fb90 f5f1 	sdiv	r5, r0, r1
 8001366:	f1a5 0580 	sub.w	r5, r5, #128	; 0x80
 800136a:	fb01 0412 	mls	r4, r1, r2, r0
 800136e:	3c1b      	subs	r4, #27
 8001370:	d502      	bpl.n	8001378 <_btod_etento+0x44>
 8001372:	4264      	negs	r4, r4
 8001374:	2001      	movs	r0, #1
 8001376:	e000      	b.n	800137a <_btod_etento+0x46>
 8001378:	2000      	movs	r0, #0
 800137a:	f8df a098 	ldr.w	sl, [pc, #152]	; 8001414 <_btod_etento+0xe0>
 800137e:	4680      	mov	r8, r0
 8001380:	2700      	movs	r7, #0
 8001382:	44fa      	add	sl, pc
 8001384:	f1aa 0abe 	sub.w	sl, sl, #190	; 0xbe
 8001388:	e00e      	b.n	80013a8 <_btod_etento+0x74>
 800138a:	07e0      	lsls	r0, r4, #31
 800138c:	d00a      	beq.n	80013a4 <_btod_etento+0x70>
 800138e:	4632      	mov	r2, r6
 8001390:	4668      	mov	r0, sp
 8001392:	eb07 0147 	add.w	r1, r7, r7, lsl #1
 8001396:	2301      	movs	r3, #1
 8001398:	eb0a 0181 	add.w	r1, sl, r1, lsl #2
 800139c:	f002 fb09 	bl	80039b2 <_btod_emul>
 80013a0:	e88d 0007 	stmia.w	sp, {r0, r1, r2}
 80013a4:	1064      	asrs	r4, r4, #1
 80013a6:	1c7f      	adds	r7, r7, #1
 80013a8:	2c00      	cmp	r4, #0
 80013aa:	d1ee      	bne.n	800138a <_btod_etento+0x56>
 80013ac:	4f19      	ldr	r7, [pc, #100]	; (8001414 <_btod_etento+0xe0>)
 80013ae:	447f      	add	r7, pc
 80013b0:	3fae      	subs	r7, #174	; 0xae
 80013b2:	e019      	b.n	80013e8 <_btod_etento+0xb4>
 80013b4:	07e8      	lsls	r0, r5, #31
 80013b6:	d015      	beq.n	80013e4 <_btod_etento+0xb0>
 80013b8:	eb07 1004 	add.w	r0, r7, r4, lsl #4
 80013bc:	f10d 0a18 	add.w	sl, sp, #24
 80013c0:	e890 000e 	ldmia.w	r0, {r1, r2, r3}
 80013c4:	e88a 000e 	stmia.w	sl, {r1, r2, r3}
 80013c8:	68c0      	ldr	r0, [r0, #12]
 80013ca:	42f0      	cmn	r0, r6
 80013cc:	d101      	bne.n	80013d2 <_btod_etento+0x9e>
 80013ce:	1998      	adds	r0, r3, r6
 80013d0:	9008      	str	r0, [sp, #32]
 80013d2:	4632      	mov	r2, r6
 80013d4:	2301      	movs	r3, #1
 80013d6:	a906      	add	r1, sp, #24
 80013d8:	a803      	add	r0, sp, #12
 80013da:	f002 faea 	bl	80039b2 <_btod_emul>
 80013de:	ab03      	add	r3, sp, #12
 80013e0:	e883 0007 	stmia.w	r3, {r0, r1, r2}
 80013e4:	106d      	asrs	r5, r5, #1
 80013e6:	1c64      	adds	r4, r4, #1
 80013e8:	2d00      	cmp	r5, #0
 80013ea:	d1e3      	bne.n	80013b4 <_btod_etento+0x80>
 80013ec:	f04f 0301 	mov.w	r3, #1
 80013f0:	4632      	mov	r2, r6
 80013f2:	4669      	mov	r1, sp
 80013f4:	f1b8 0f00 	cmp.w	r8, #0
 80013f8:	a803      	add	r0, sp, #12
 80013fa:	d002      	beq.n	8001402 <_btod_etento+0xce>
 80013fc:	f002 fac4 	bl	8003988 <_btod_ediv>
 8001400:	e001      	b.n	8001406 <_btod_etento+0xd2>
 8001402:	f002 fad6 	bl	80039b2 <_btod_emul>
 8001406:	e9c9 0100 	strd	r0, r1, [r9]
 800140a:	f8c9 2008 	str.w	r2, [r9, #8]
 800140e:	b00a      	add	sp, #40	; 0x28
 8001410:	e8bd 87f0 	ldmia.w	sp!, {r4, r5, r6, r7, r8, r9, sl, pc}
 8001414:	00002a7c 	andeq	r2, r0, ip, ror sl

08001418 <exit>:
exit():
 8001418:	b510      	push	{r4, lr}
 800141a:	4604      	mov	r4, r0
 800141c:	f3af 8000 	nop.w
 8001420:	4620      	mov	r0, r4
 8001422:	e8bd 4010 	ldmia.w	sp!, {r4, lr}
 8001426:	f7fe bfaa 	b.w	800037e <__rt_exit>
	...

0800142c <__user_libspace>:
__user_libspace():
 800142c:	4800      	ldr	r0, [pc, #0]	; (8001430 <__user_libspace+0x4>)
 800142e:	4770      	bx	lr
 8001430:	20023420 	andcs	r3, r2, r0, lsr #8
 8001434:	00000000 	andeq	r0, r0, r0

08001438 <strcmp>:
strcmp():
 8001438:	b430      	push	{r4, r5}
 800143a:	f04f 3c01 	mov.w	ip, #16843009	; 0x1010101
 800143e:	f850 2b04 	ldr.w	r2, [r0], #4
 8001442:	facc f452 	uqsub8	r4, ip, r2
 8001446:	f851 3b04 	ldr.w	r3, [r1], #4
 800144a:	1ad5      	subs	r5, r2, r3
 800144c:	d120      	bne.n	8001490 <strcmp+0x58>
 800144e:	b9fc      	cbnz	r4, 8001490 <strcmp+0x58>
 8001450:	f850 2b04 	ldr.w	r2, [r0], #4
 8001454:	facc f452 	uqsub8	r4, ip, r2
 8001458:	f851 3b04 	ldr.w	r3, [r1], #4
 800145c:	1ad5      	subs	r5, r2, r3
 800145e:	d117      	bne.n	8001490 <strcmp+0x58>
 8001460:	b9b4      	cbnz	r4, 8001490 <strcmp+0x58>
 8001462:	f850 2b04 	ldr.w	r2, [r0], #4
 8001466:	facc f452 	uqsub8	r4, ip, r2
 800146a:	f851 3b04 	ldr.w	r3, [r1], #4
 800146e:	1ad5      	subs	r5, r2, r3
 8001470:	d10e      	bne.n	8001490 <strcmp+0x58>
 8001472:	b96c      	cbnz	r4, 8001490 <strcmp+0x58>
 8001474:	f850 2b04 	ldr.w	r2, [r0], #4
 8001478:	facc f452 	uqsub8	r4, ip, r2
 800147c:	f851 3b04 	ldr.w	r3, [r1], #4
 8001480:	1ad5      	subs	r5, r2, r3
 8001482:	d105      	bne.n	8001490 <strcmp+0x58>
 8001484:	2c00      	cmp	r4, #0
 8001486:	d0da      	beq.n	800143e <strcmp+0x6>
 8001488:	bc30      	pop	{r4, r5}
 800148a:	f04f 0000 	mov.w	r0, #0
 800148e:	4770      	bx	lr
 8001490:	ba29      	rev	r1, r5
 8001492:	fab1 f181 	clz	r1, r1
 8001496:	f011 0118 	ands.w	r1, r1, #24
 800149a:	f1d1 0020 	rsbs	r0, r1, #32
 800149e:	4084      	lsls	r4, r0
 80014a0:	d1f2      	bne.n	8001488 <strcmp+0x50>
 80014a2:	40ca      	lsrs	r2, r1
 80014a4:	40cb      	lsrs	r3, r1
 80014a6:	f012 02ff 	ands.w	r2, r2, #255	; 0xff
 80014aa:	f013 03ff 	ands.w	r3, r3, #255	; 0xff
 80014ae:	bc30      	pop	{r4, r5}
 80014b0:	1ad0      	subs	r0, r2, r3
 80014b2:	4770      	bx	lr

080014b4 <_sys_exit>:
_sys_exit():
 80014b4:	4901      	ldr	r1, [pc, #4]	; (80014bc <_sys_exit+0x8>)
 80014b6:	2018      	movs	r0, #24
 80014b8:	beab      	bkpt	0x00ab
 80014ba:	e7fe      	b.n	80014ba <_sys_exit+0x6>
 80014bc:	00020026 	andeq	r0, r2, r6, lsr #32

080014c0 <__use_no_semihosting_swi>:
__use_no_semihosting_swi():
 80014c0:	4770      	bx	lr

080014c2 <__semihosting_library_function>:
__semihosting_library_function():
 80014c2:	0000      	movs	r0, r0
 80014c4:	0000      	movs	r0, r0
	...

080014c8 <BUTTONS_Init>:
BUTTONS_Init():
D:\#Documents\UVISION\SMART_WAKE_UP/buttons.c:88
 80014c8:	b580      	push	{r7, lr}
 80014ca:	f643 0144 	movw	r1, #14404	; 0x3844
 80014ce:	f2c4 0102 	movt	r1, #16386	; 0x4002
D:\#Documents\UVISION\SMART_WAKE_UP/buttons.c:90
 80014d2:	6808      	ldr	r0, [r1, #0]
 80014d4:	f440 4080 	orr.w	r0, r0, #16384	; 0x4000
 80014d8:	6008      	str	r0, [r1, #0]
D:\#Documents\UVISION\SMART_WAKE_UP/buttons.c:92
 80014da:	f000 f805 	bl	80014e8 <BUTTONS_InitGPIO>
D:\#Documents\UVISION\SMART_WAKE_UP/buttons.c:93
 80014de:	f000 f88f 	bl	8001600 <BUTTONS_InitInterrupts>
D:\#Documents\UVISION\SMART_WAKE_UP/buttons.c:94
 80014e2:	f000 f8c1 	bl	8001668 <BUTTONS_TIM2_Init>
D:\#Documents\UVISION\SMART_WAKE_UP/buttons.c:95
 80014e6:	bd80      	pop	{r7, pc}

080014e8 <BUTTONS_InitGPIO>:
BUTTONS_InitGPIO():
D:\#Documents\UVISION\SMART_WAKE_UP/buttons.c:24
 80014e8:	b510      	push	{r4, lr}
 80014ea:	f643 0e30 	movw	lr, #14384	; 0x3830
 80014ee:	f2c4 0e02 	movt	lr, #16386	; 0x4002
D:\#Documents\UVISION\SMART_WAKE_UP/buttons.c:26
 80014f2:	f8de 0000 	ldr.w	r0, [lr]
 80014f6:	f040 0008 	orr.w	r0, r0, #8
 80014fa:	f8ce 0000 	str.w	r0, [lr]
 80014fe:	f640 4100 	movw	r1, #3072	; 0xc00
 8001502:	f2c4 0102 	movt	r1, #16386	; 0x4002
D:\#Documents\UVISION\SMART_WAKE_UP/buttons.c:27
 8001506:	6808      	ldr	r0, [r1, #0]
 8001508:	f420 0040 	bic.w	r0, r0, #12582912	; 0xc00000
 800150c:	6008      	str	r0, [r1, #0]
 800150e:	f643 0110 	movw	r1, #14352	; 0x3810
 8001512:	f2c4 0101 	movt	r1, #16385	; 0x4001
D:\#Documents\UVISION\SMART_WAKE_UP/buttons.c:28
 8001516:	6808      	ldr	r0, [r1, #0]
 8001518:	f440 5040 	orr.w	r0, r0, #12288	; 0x3000
 800151c:	6008      	str	r0, [r1, #0]
 800151e:	f643 4308 	movw	r3, #15368	; 0x3c08
 8001522:	f2c4 0301 	movt	r3, #16385	; 0x4001
D:\#Documents\UVISION\SMART_WAKE_UP/buttons.c:29
 8001526:	6818      	ldr	r0, [r3, #0]
 8001528:	f440 6000 	orr.w	r0, r0, #2048	; 0x800
 800152c:	6018      	str	r0, [r3, #0]
 800152e:	f643 4200 	movw	r2, #15360	; 0x3c00
 8001532:	f2c4 0201 	movt	r2, #16385	; 0x4001
D:\#Documents\UVISION\SMART_WAKE_UP/buttons.c:30
 8001536:	6810      	ldr	r0, [r2, #0]
 8001538:	f440 6000 	orr.w	r0, r0, #2048	; 0x800
 800153c:	6010      	str	r0, [r2, #0]
D:\#Documents\UVISION\SMART_WAKE_UP/buttons.c:33
 800153e:	f8de 0000 	ldr.w	r0, [lr]
 8001542:	f040 0010 	orr.w	r0, r0, #16
 8001546:	f8ce 0000 	str.w	r0, [lr]
 800154a:	f241 0100 	movw	r1, #4096	; 0x1000
 800154e:	f2c4 0102 	movt	r1, #16386	; 0x4002
D:\#Documents\UVISION\SMART_WAKE_UP/buttons.c:34
 8001552:	6808      	ldr	r0, [r1, #0]
 8001554:	f020 0030 	bic.w	r0, r0, #48	; 0x30
 8001558:	6008      	str	r0, [r1, #0]
 800155a:	f643 0c08 	movw	ip, #14344	; 0x3808
 800155e:	f2c4 0c01 	movt	ip, #16385	; 0x4001
D:\#Documents\UVISION\SMART_WAKE_UP/buttons.c:35
 8001562:	f8dc 0000 	ldr.w	r0, [ip]
 8001566:	f440 6080 	orr.w	r0, r0, #1024	; 0x400
 800156a:	f8cc 0000 	str.w	r0, [ip]
D:\#Documents\UVISION\SMART_WAKE_UP/buttons.c:36
 800156e:	6818      	ldr	r0, [r3, #0]
 8001570:	f040 0004 	orr.w	r0, r0, #4
 8001574:	6018      	str	r0, [r3, #0]
D:\#Documents\UVISION\SMART_WAKE_UP/buttons.c:37
 8001576:	6810      	ldr	r0, [r2, #0]
 8001578:	f040 0004 	orr.w	r0, r0, #4
 800157c:	6010      	str	r0, [r2, #0]
D:\#Documents\UVISION\SMART_WAKE_UP/buttons.c:40
 800157e:	f8de 0000 	ldr.w	r0, [lr]
 8001582:	f040 0001 	orr.w	r0, r0, #1
 8001586:	f8ce 0000 	str.w	r0, [lr]
 800158a:	2400      	movs	r4, #0
 800158c:	f2c4 0402 	movt	r4, #16386	; 0x4002
D:\#Documents\UVISION\SMART_WAKE_UP/buttons.c:41
 8001590:	6820      	ldr	r0, [r4, #0]
 8001592:	f420 7040 	bic.w	r0, r0, #768	; 0x300
 8001596:	6020      	str	r0, [r4, #0]
 8001598:	f643 040c 	movw	r4, #14348	; 0x380c
 800159c:	f2c4 0401 	movt	r4, #16385	; 0x4001
D:\#Documents\UVISION\SMART_WAKE_UP/buttons.c:42
 80015a0:	6820      	ldr	r0, [r4, #0]
 80015a2:	6020      	str	r0, [r4, #0]
D:\#Documents\UVISION\SMART_WAKE_UP/buttons.c:43
 80015a4:	6818      	ldr	r0, [r3, #0]
 80015a6:	f040 0010 	orr.w	r0, r0, #16
 80015aa:	6018      	str	r0, [r3, #0]
D:\#Documents\UVISION\SMART_WAKE_UP/buttons.c:44
 80015ac:	6810      	ldr	r0, [r2, #0]
 80015ae:	f040 0010 	orr.w	r0, r0, #16
 80015b2:	6010      	str	r0, [r2, #0]
D:\#Documents\UVISION\SMART_WAKE_UP/buttons.c:47
 80015b4:	f8de 0000 	ldr.w	r0, [lr]
 80015b8:	f040 0002 	orr.w	r0, r0, #2
 80015bc:	f8ce 0000 	str.w	r0, [lr]
 80015c0:	f240 4e00 	movw	lr, #1024	; 0x400
 80015c4:	f2c4 0e02 	movt	lr, #16386	; 0x4002
D:\#Documents\UVISION\SMART_WAKE_UP/buttons.c:48
 80015c8:	f8de 0000 	ldr.w	r0, [lr]
 80015cc:	f020 00c0 	bic.w	r0, r0, #192	; 0xc0
 80015d0:	f8ce 0000 	str.w	r0, [lr]
D:\#Documents\UVISION\SMART_WAKE_UP/buttons.c:49
 80015d4:	f8dc 0000 	ldr.w	r0, [ip]
 80015d8:	f440 5080 	orr.w	r0, r0, #4096	; 0x1000
 80015dc:	f8cc 0000 	str.w	r0, [ip]
D:\#Documents\UVISION\SMART_WAKE_UP/buttons.c:50
 80015e0:	6818      	ldr	r0, [r3, #0]
 80015e2:	f040 0008 	orr.w	r0, r0, #8
 80015e6:	6018      	str	r0, [r3, #0]
D:\#Documents\UVISION\SMART_WAKE_UP/buttons.c:51
 80015e8:	6810      	ldr	r0, [r2, #0]
 80015ea:	f040 0008 	orr.w	r0, r0, #8
 80015ee:	6010      	str	r0, [r2, #0]
D:\#Documents\UVISION\SMART_WAKE_UP/buttons.c:54
 80015f0:	6808      	ldr	r0, [r1, #0]
 80015f2:	f020 0003 	bic.w	r0, r0, #3
 80015f6:	6008      	str	r0, [r1, #0]
D:\#Documents\UVISION\SMART_WAKE_UP/buttons.c:55
 80015f8:	bd10      	pop	{r4, pc}
 80015fa:	0000      	movs	r0, r0
 80015fc:	0000      	movs	r0, r0
	...

08001600 <BUTTONS_InitInterrupts>:
BUTTONS_InitInterrupts():
D:\#Documents\UVISION\SMART_WAKE_UP/buttons.c:59
 8001600:	b580      	push	{r7, lr}
 8001602:	b084      	sub	sp, #16
 8001604:	2028      	movs	r0, #40	; 0x28
 8001606:	9000      	str	r0, [sp, #0]
 8001608:	2100      	movs	r1, #0
D:\#Documents\UVISION\SMART_WAKE_UP/buttons.c:61
 800160a:	f001 fa4d 	bl	8002aa8 <__NVIC_SetPriority>
 800160e:	9800      	ldr	r0, [sp, #0]
D:\#Documents\UVISION\SMART_WAKE_UP/buttons.c:62
 8001610:	f001 fa32 	bl	8002a78 <__NVIC_EnableIRQ>
 8001614:	2008      	movs	r0, #8
 8001616:	9001      	str	r0, [sp, #4]
 8001618:	2101      	movs	r1, #1
D:\#Documents\UVISION\SMART_WAKE_UP/buttons.c:63
 800161a:	f001 fa45 	bl	8002aa8 <__NVIC_SetPriority>
 800161e:	9801      	ldr	r0, [sp, #4]
D:\#Documents\UVISION\SMART_WAKE_UP/buttons.c:64
 8001620:	f001 fa2a 	bl	8002a78 <__NVIC_EnableIRQ>
 8001624:	200a      	movs	r0, #10
 8001626:	9002      	str	r0, [sp, #8]
 8001628:	2102      	movs	r1, #2
D:\#Documents\UVISION\SMART_WAKE_UP/buttons.c:65
 800162a:	f001 fa3d 	bl	8002aa8 <__NVIC_SetPriority>
 800162e:	9802      	ldr	r0, [sp, #8]
D:\#Documents\UVISION\SMART_WAKE_UP/buttons.c:66
 8001630:	f001 fa22 	bl	8002a78 <__NVIC_EnableIRQ>
 8001634:	2009      	movs	r0, #9
 8001636:	9003      	str	r0, [sp, #12]
 8001638:	2103      	movs	r1, #3
D:\#Documents\UVISION\SMART_WAKE_UP/buttons.c:67
 800163a:	f001 fa35 	bl	8002aa8 <__NVIC_SetPriority>
 800163e:	9803      	ldr	r0, [sp, #12]
D:\#Documents\UVISION\SMART_WAKE_UP/buttons.c:68
 8001640:	f001 fa1a 	bl	8002a78 <__NVIC_EnableIRQ>
D:\#Documents\UVISION\SMART_WAKE_UP/buttons.c:69
 8001644:	b004      	add	sp, #16
 8001646:	bd80      	pop	{r7, pc}

08001648 <BUTTONS_KeyState>:
BUTTONS_KeyState():
D:\#Documents\UVISION\SMART_WAKE_UP/buttons.c:141
 8001648:	f241 0010 	movw	r0, #4112	; 0x1010
 800164c:	f2c4 0002 	movt	r0, #16386	; 0x4002
D:\#Documents\UVISION\SMART_WAKE_UP/buttons.c:142
 8001650:	6800      	ldr	r0, [r0, #0]
 8001652:	f000 0001 	and.w	r0, r0, #1
 8001656:	f243 4183 	movw	r1, #13443	; 0x3483
 800165a:	f2c2 0102 	movt	r1, #8194	; 0x2002
 800165e:	7008      	strb	r0, [r1, #0]
D:\#Documents\UVISION\SMART_WAKE_UP/buttons.c:143
 8001660:	4770      	bx	lr
 8001662:	0000      	movs	r0, r0
 8001664:	0000      	movs	r0, r0
	...

08001668 <BUTTONS_TIM2_Init>:
BUTTONS_TIM2_Init():
D:\#Documents\UVISION\SMART_WAKE_UP/buttons.c:73
 8001668:	b580      	push	{r7, lr}
 800166a:	b082      	sub	sp, #8
 800166c:	f643 0140 	movw	r1, #14400	; 0x3840
 8001670:	f2c4 0102 	movt	r1, #16386	; 0x4002
D:\#Documents\UVISION\SMART_WAKE_UP/buttons.c:74
 8001674:	6808      	ldr	r0, [r1, #0]
 8001676:	f040 0001 	orr.w	r0, r0, #1
 800167a:	6008      	str	r0, [r1, #0]
 800167c:	2128      	movs	r1, #40	; 0x28
 800167e:	f2c4 0100 	movt	r1, #16384	; 0x4000
 8001682:	f643 607f 	movw	r0, #15999	; 0x3e7f
D:\#Documents\UVISION\SMART_WAKE_UP/buttons.c:76
 8001686:	6008      	str	r0, [r1, #0]
 8001688:	212c      	movs	r1, #44	; 0x2c
 800168a:	f2c4 0100 	movt	r1, #16384	; 0x4000
 800168e:	f240 30e7 	movw	r0, #999	; 0x3e7
D:\#Documents\UVISION\SMART_WAKE_UP/buttons.c:77
 8001692:	6008      	str	r0, [r1, #0]
 8001694:	210c      	movs	r1, #12
 8001696:	f2c4 0100 	movt	r1, #16384	; 0x4000
D:\#Documents\UVISION\SMART_WAKE_UP/buttons.c:79
 800169a:	6808      	ldr	r0, [r1, #0]
 800169c:	f040 0001 	orr.w	r0, r0, #1
 80016a0:	6008      	str	r0, [r1, #0]
 80016a2:	f04f 4180 	mov.w	r1, #1073741824	; 0x40000000
D:\#Documents\UVISION\SMART_WAKE_UP/buttons.c:80
 80016a6:	6808      	ldr	r0, [r1, #0]
 80016a8:	f040 0001 	orr.w	r0, r0, #1
 80016ac:	6008      	str	r0, [r1, #0]
 80016ae:	201c      	movs	r0, #28
 80016b0:	9001      	str	r0, [sp, #4]
 80016b2:	2104      	movs	r1, #4
D:\#Documents\UVISION\SMART_WAKE_UP/buttons.c:82
 80016b4:	f001 f9f8 	bl	8002aa8 <__NVIC_SetPriority>
 80016b8:	9801      	ldr	r0, [sp, #4]
D:\#Documents\UVISION\SMART_WAKE_UP/buttons.c:83
 80016ba:	f001 f9dd 	bl	8002a78 <__NVIC_EnableIRQ>
D:\#Documents\UVISION\SMART_WAKE_UP/buttons.c:84
 80016be:	b002      	add	sp, #8
 80016c0:	bd80      	pop	{r7, pc}
 80016c2:	0000      	movs	r0, r0
 80016c4:	0000      	movs	r0, r0
	...

080016c8 <DS3231_BCD_DEC>:
DS3231_BCD_DEC():
D:\#Documents\UVISION\SMART_WAKE_UP/ds3231.c:27
 80016c8:	b081      	sub	sp, #4
 80016ca:	f88d 0003 	strb.w	r0, [sp, #3]
D:\#Documents\UVISION\SMART_WAKE_UP/ds3231.c:28
 80016ce:	f89d 0003 	ldrb.w	r0, [sp, #3]
 80016d2:	0901      	lsrs	r1, r0, #4
 80016d4:	eb01 0141 	add.w	r1, r1, r1, lsl #1
 80016d8:	eba0 0041 	sub.w	r0, r0, r1, lsl #1
 80016dc:	b001      	add	sp, #4
 80016de:	4770      	bx	lr

080016e0 <DS3231_DEC_BCD>:
DS3231_DEC_BCD():
D:\#Documents\UVISION\SMART_WAKE_UP/ds3231.c:31
 80016e0:	b081      	sub	sp, #4
 80016e2:	f88d 0003 	strb.w	r0, [sp, #3]
D:\#Documents\UVISION\SMART_WAKE_UP/ds3231.c:32
 80016e6:	f89d 0003 	ldrb.w	r0, [sp, #3]
 80016ea:	f64c 41cd 	movw	r1, #52429	; 0xcccd
 80016ee:	f6cc 41cc 	movt	r1, #52428	; 0xcccc
 80016f2:	fba0 2101 	umull	r2, r1, r0, r1
 80016f6:	08c9      	lsrs	r1, r1, #3
 80016f8:	eb01 0141 	add.w	r1, r1, r1, lsl #1
 80016fc:	eb00 0041 	add.w	r0, r0, r1, lsl #1
 8001700:	b001      	add	sp, #4
 8001702:	4770      	bx	lr
 8001704:	0000      	movs	r0, r0
	...

08001708 <DS3231_Init>:
DS3231_Init():
D:\#Documents\UVISION\SMART_WAKE_UP/ds3231.c:8
 8001708:	f643 0130 	movw	r1, #14384	; 0x3830
 800170c:	f2c4 0102 	movt	r1, #16386	; 0x4002
D:\#Documents\UVISION\SMART_WAKE_UP/ds3231.c:9
 8001710:	6808      	ldr	r0, [r1, #0]
 8001712:	f040 0002 	orr.w	r0, r0, #2
 8001716:	6008      	str	r0, [r1, #0]
 8001718:	f240 4100 	movw	r1, #1024	; 0x400
 800171c:	f2c4 0102 	movt	r1, #16386	; 0x4002
D:\#Documents\UVISION\SMART_WAKE_UP/ds3231.c:11
 8001720:	6808      	ldr	r0, [r1, #0]
 8001722:	f440 3000 	orr.w	r0, r0, #131072	; 0x20000
 8001726:	6008      	str	r0, [r1, #0]
D:\#Documents\UVISION\SMART_WAKE_UP/ds3231.c:12
 8001728:	6808      	ldr	r0, [r1, #0]
 800172a:	f420 3080 	bic.w	r0, r0, #65536	; 0x10000
 800172e:	6008      	str	r0, [r1, #0]
D:\#Documents\UVISION\SMART_WAKE_UP/ds3231.c:14
 8001730:	6808      	ldr	r0, [r1, #0]
 8001732:	f440 2000 	orr.w	r0, r0, #524288	; 0x80000
 8001736:	6008      	str	r0, [r1, #0]
D:\#Documents\UVISION\SMART_WAKE_UP/ds3231.c:15
 8001738:	6808      	ldr	r0, [r1, #0]
 800173a:	f420 2080 	bic.w	r0, r0, #262144	; 0x40000
 800173e:	6008      	str	r0, [r1, #0]
 8001740:	f240 4104 	movw	r1, #1028	; 0x404
 8001744:	f2c4 0102 	movt	r1, #16386	; 0x4002
D:\#Documents\UVISION\SMART_WAKE_UP/ds3231.c:17
 8001748:	6808      	ldr	r0, [r1, #0]
 800174a:	f440 7080 	orr.w	r0, r0, #256	; 0x100
 800174e:	6008      	str	r0, [r1, #0]
D:\#Documents\UVISION\SMART_WAKE_UP/ds3231.c:18
 8001750:	6808      	ldr	r0, [r1, #0]
 8001752:	f440 7000 	orr.w	r0, r0, #512	; 0x200
 8001756:	6008      	str	r0, [r1, #0]
 8001758:	f240 4124 	movw	r1, #1060	; 0x424
 800175c:	f2c4 0102 	movt	r1, #16386	; 0x4002
D:\#Documents\UVISION\SMART_WAKE_UP/ds3231.c:20
 8001760:	6808      	ldr	r0, [r1, #0]
 8001762:	f040 0044 	orr.w	r0, r0, #68	; 0x44
 8001766:	6008      	str	r0, [r1, #0]
 8001768:	f643 0140 	movw	r1, #14400	; 0x3840
 800176c:	f2c4 0102 	movt	r1, #16386	; 0x4002
D:\#Documents\UVISION\SMART_WAKE_UP/ds3231.c:22
 8001770:	6808      	ldr	r0, [r1, #0]
 8001772:	f440 1000 	orr.w	r0, r0, #2097152	; 0x200000
 8001776:	6008      	str	r0, [r1, #0]
 8001778:	f245 4100 	movw	r1, #21504	; 0x5400
 800177c:	f2c4 0100 	movt	r1, #16384	; 0x4000
D:\#Documents\UVISION\SMART_WAKE_UP/ds3231.c:23
 8001780:	6808      	ldr	r0, [r1, #0]
 8001782:	f020 0001 	bic.w	r0, r0, #1
 8001786:	6008      	str	r0, [r1, #0]
 8001788:	f245 4110 	movw	r1, #21520	; 0x5410
 800178c:	f2c4 0100 	movt	r1, #16384	; 0x4000
 8001790:	f24c 10c1 	movw	r0, #49601	; 0xc1c1
D:\#Documents\UVISION\SMART_WAKE_UP/ds3231.c:24
 8001794:	6008      	str	r0, [r1, #0]
D:\#Documents\UVISION\SMART_WAKE_UP/ds3231.c:25
 8001796:	4770      	bx	lr

08001798 <DS3231_Read>:
DS3231_Read():
D:\#Documents\UVISION\SMART_WAKE_UP/ds3231.c:35
 8001798:	b086      	sub	sp, #24
 800179a:	f88d 0017 	strb.w	r0, [sp, #23]
 800179e:	f88d 1016 	strb.w	r1, [sp, #22]
 80017a2:	9204      	str	r2, [sp, #16]
 80017a4:	f88d 300f 	strb.w	r3, [sp, #15]
D:\#Documents\UVISION\SMART_WAKE_UP/ds3231.c:36
 80017a8:	f243 4186 	movw	r1, #13446	; 0x3486
 80017ac:	f2c2 0102 	movt	r1, #8194	; 0x2002
 80017b0:	2000      	movs	r0, #0
 80017b2:	7008      	strb	r0, [r1, #0]
 80017b4:	f245 4200 	movw	r2, #21504	; 0x5400
 80017b8:	f2c4 0200 	movt	r2, #16384	; 0x4000
D:\#Documents\UVISION\SMART_WAKE_UP/ds3231.c:39
 80017bc:	6811      	ldr	r1, [r2, #0]
 80017be:	f041 0101 	orr.w	r1, r1, #1
 80017c2:	6011      	str	r1, [r2, #0]
 80017c4:	f245 4204 	movw	r2, #21508	; 0x5404
 80017c8:	f2c4 0200 	movt	r2, #16384	; 0x4000
D:\#Documents\UVISION\SMART_WAKE_UP/ds3231.c:42
 80017cc:	9202      	str	r2, [sp, #8]
 80017ce:	6010      	str	r0, [r2, #0]
D:\#Documents\UVISION\SMART_WAKE_UP/ds3231.c:43
 80017d0:	f89d 1017 	ldrb.w	r1, [sp, #23]
 80017d4:	0049      	lsls	r1, r1, #1
 80017d6:	6011      	str	r1, [r2, #0]
D:\#Documents\UVISION\SMART_WAKE_UP/ds3231.c:45
 80017d8:	6811      	ldr	r1, [r2, #0]
 80017da:	f421 6100 	bic.w	r1, r1, #2048	; 0x800
 80017de:	6011      	str	r1, [r2, #0]
D:\#Documents\UVISION\SMART_WAKE_UP/ds3231.c:46
 80017e0:	6811      	ldr	r1, [r2, #0]
 80017e2:	f441 3180 	orr.w	r1, r1, #65536	; 0x10000
 80017e6:	6011      	str	r1, [r2, #0]
D:\#Documents\UVISION\SMART_WAKE_UP/ds3231.c:47
 80017e8:	6811      	ldr	r1, [r2, #0]
 80017ea:	f421 6180 	bic.w	r1, r1, #1024	; 0x400
 80017ee:	6011      	str	r1, [r2, #0]
D:\#Documents\UVISION\SMART_WAKE_UP/ds3231.c:48
 80017f0:	6811      	ldr	r1, [r2, #0]
 80017f2:	f021 7100 	bic.w	r1, r1, #33554432	; 0x2000000
 80017f6:	6011      	str	r1, [r2, #0]
D:\#Documents\UVISION\SMART_WAKE_UP/ds3231.c:49
 80017f8:	6811      	ldr	r1, [r2, #0]
 80017fa:	f441 5100 	orr.w	r1, r1, #8192	; 0x2000
 80017fe:	6011      	str	r1, [r2, #0]
D:\#Documents\UVISION\SMART_WAKE_UP/ds3231.c:52
 8001800:	f8ad 000c 	strh.w	r0, [sp, #12]
D:\#Documents\UVISION\SMART_WAKE_UP/ds3231.c:53
 8001804:	e7ff      	b.n	8001806 <DS3231_Read+0x6e>
 8001806:	f245 4018 	movw	r0, #21528	; 0x5418
 800180a:	f2c4 0000 	movt	r0, #16384	; 0x4000
 800180e:	6801      	ldr	r1, [r0, #0]
 8001810:	2000      	movs	r0, #0
 8001812:	0649      	lsls	r1, r1, #25
 8001814:	2900      	cmp	r1, #0
 8001816:	9001      	str	r0, [sp, #4]
 8001818:	d409      	bmi.n	800182e <DS3231_Read+0x96>
 800181a:	e7ff      	b.n	800181c <DS3231_Read+0x84>
 800181c:	f8bd 100c 	ldrh.w	r1, [sp, #12]
 8001820:	2000      	movs	r0, #0
 8001822:	f5b1 7f96 	cmp.w	r1, #300	; 0x12c
 8001826:	bfb8      	it	lt
 8001828:	2001      	movlt	r0, #1
 800182a:	9001      	str	r0, [sp, #4]
 800182c:	e7ff      	b.n	800182e <DS3231_Read+0x96>
 800182e:	9801      	ldr	r0, [sp, #4]
 8001830:	07c0      	lsls	r0, r0, #31
 8001832:	b1b0      	cbz	r0, 8001862 <DS3231_Read+0xca>
 8001834:	e7ff      	b.n	8001836 <DS3231_Read+0x9e>
 8001836:	f245 4018 	movw	r0, #21528	; 0x5418
 800183a:	f2c4 0000 	movt	r0, #16384	; 0x4000
D:\#Documents\UVISION\SMART_WAKE_UP/ds3231.c:54
 800183e:	6800      	ldr	r0, [r0, #0]
 8001840:	07c0      	lsls	r0, r0, #31
 8001842:	b140      	cbz	r0, 8001856 <DS3231_Read+0xbe>
 8001844:	e7ff      	b.n	8001846 <DS3231_Read+0xae>
D:\#Documents\UVISION\SMART_WAKE_UP/ds3231.c:55
 8001846:	f89d 0016 	ldrb.w	r0, [sp, #22]
 800184a:	f245 4128 	movw	r1, #21544	; 0x5428
 800184e:	f2c4 0100 	movt	r1, #16384	; 0x4000
 8001852:	6008      	str	r0, [r1, #0]
 8001854:	e7ff      	b.n	8001856 <DS3231_Read+0xbe>
D:\#Documents\UVISION\SMART_WAKE_UP/ds3231.c:56
 8001856:	f8bd 000c 	ldrh.w	r0, [sp, #12]
 800185a:	3001      	adds	r0, #1
 800185c:	f8ad 000c 	strh.w	r0, [sp, #12]
D:\#Documents\UVISION\SMART_WAKE_UP/ds3231.c:53
 8001860:	e7d1      	b.n	8001806 <DS3231_Read+0x6e>
D:\#Documents\UVISION\SMART_WAKE_UP/ds3231.c:59
 8001862:	f8bd 000c 	ldrh.w	r0, [sp, #12]
 8001866:	f5b0 7f91 	cmp.w	r0, #290	; 0x122
 800186a:	db07      	blt.n	800187c <DS3231_Read+0xe4>
 800186c:	e7ff      	b.n	800186e <DS3231_Read+0xd6>
D:\#Documents\UVISION\SMART_WAKE_UP/ds3231.c:60
 800186e:	f243 4186 	movw	r1, #13446	; 0x3486
 8001872:	f2c2 0102 	movt	r1, #8194	; 0x2002
 8001876:	2001      	movs	r0, #1
 8001878:	7008      	strb	r0, [r1, #0]
 800187a:	e04f      	b.n	800191c <DS3231_Read+0x184>
 800187c:	f245 4100 	movw	r1, #21504	; 0x5400
 8001880:	f2c4 0100 	movt	r1, #16384	; 0x4000
D:\#Documents\UVISION\SMART_WAKE_UP/ds3231.c:63
 8001884:	6808      	ldr	r0, [r1, #0]
 8001886:	f020 0001 	bic.w	r0, r0, #1
 800188a:	6008      	str	r0, [r1, #0]
D:\#Documents\UVISION\SMART_WAKE_UP/ds3231.c:68
 800188c:	6808      	ldr	r0, [r1, #0]
 800188e:	f040 0001 	orr.w	r0, r0, #1
 8001892:	6008      	str	r0, [r1, #0]
 8001894:	f245 4104 	movw	r1, #21508	; 0x5404
 8001898:	f2c4 0100 	movt	r1, #16384	; 0x4000
 800189c:	9100      	str	r1, [sp, #0]
 800189e:	2000      	movs	r0, #0
D:\#Documents\UVISION\SMART_WAKE_UP/ds3231.c:70
 80018a0:	6008      	str	r0, [r1, #0]
D:\#Documents\UVISION\SMART_WAKE_UP/ds3231.c:71
 80018a2:	f89d 0017 	ldrb.w	r0, [sp, #23]
 80018a6:	0040      	lsls	r0, r0, #1
 80018a8:	6008      	str	r0, [r1, #0]
D:\#Documents\UVISION\SMART_WAKE_UP/ds3231.c:72
 80018aa:	6808      	ldr	r0, [r1, #0]
 80018ac:	f440 6080 	orr.w	r0, r0, #1024	; 0x400
 80018b0:	6008      	str	r0, [r1, #0]
D:\#Documents\UVISION\SMART_WAKE_UP/ds3231.c:73
 80018b2:	f89d 200f 	ldrb.w	r2, [sp, #15]
 80018b6:	6808      	ldr	r0, [r1, #0]
 80018b8:	ea40 4002 	orr.w	r0, r0, r2, lsl #16
 80018bc:	6008      	str	r0, [r1, #0]
D:\#Documents\UVISION\SMART_WAKE_UP/ds3231.c:74
 80018be:	6808      	ldr	r0, [r1, #0]
 80018c0:	f040 7000 	orr.w	r0, r0, #33554432	; 0x2000000
 80018c4:	6008      	str	r0, [r1, #0]
D:\#Documents\UVISION\SMART_WAKE_UP/ds3231.c:75
 80018c6:	6808      	ldr	r0, [r1, #0]
 80018c8:	f440 5000 	orr.w	r0, r0, #8192	; 0x2000
 80018cc:	6008      	str	r0, [r1, #0]
D:\#Documents\UVISION\SMART_WAKE_UP/ds3231.c:78
 80018ce:	e7ff      	b.n	80018d0 <DS3231_Read+0x138>
 80018d0:	f245 4018 	movw	r0, #21528	; 0x5418
 80018d4:	f2c4 0000 	movt	r0, #16384	; 0x4000
 80018d8:	6800      	ldr	r0, [r0, #0]
 80018da:	0680      	lsls	r0, r0, #26
 80018dc:	2800      	cmp	r0, #0
 80018de:	d414      	bmi.n	800190a <DS3231_Read+0x172>
 80018e0:	e7ff      	b.n	80018e2 <DS3231_Read+0x14a>
 80018e2:	f245 4018 	movw	r0, #21528	; 0x5418
 80018e6:	f2c4 0000 	movt	r0, #16384	; 0x4000
D:\#Documents\UVISION\SMART_WAKE_UP/ds3231.c:79
 80018ea:	6800      	ldr	r0, [r0, #0]
 80018ec:	0740      	lsls	r0, r0, #29
 80018ee:	2800      	cmp	r0, #0
 80018f0:	d50a      	bpl.n	8001908 <DS3231_Read+0x170>
 80018f2:	e7ff      	b.n	80018f4 <DS3231_Read+0x15c>
 80018f4:	f245 4024 	movw	r0, #21540	; 0x5424
 80018f8:	f2c4 0000 	movt	r0, #16384	; 0x4000
D:\#Documents\UVISION\SMART_WAKE_UP/ds3231.c:80
 80018fc:	6800      	ldr	r0, [r0, #0]
 80018fe:	9904      	ldr	r1, [sp, #16]
 8001900:	1c4a      	adds	r2, r1, #1
 8001902:	9204      	str	r2, [sp, #16]
 8001904:	7008      	strb	r0, [r1, #0]
 8001906:	e7ff      	b.n	8001908 <DS3231_Read+0x170>
D:\#Documents\UVISION\SMART_WAKE_UP/ds3231.c:78
 8001908:	e7e2      	b.n	80018d0 <DS3231_Read+0x138>
 800190a:	f245 4100 	movw	r1, #21504	; 0x5400
 800190e:	f2c4 0100 	movt	r1, #16384	; 0x4000
D:\#Documents\UVISION\SMART_WAKE_UP/ds3231.c:83
 8001912:	6808      	ldr	r0, [r1, #0]
 8001914:	f020 0001 	bic.w	r0, r0, #1
 8001918:	6008      	str	r0, [r1, #0]
 800191a:	e7ff      	b.n	800191c <DS3231_Read+0x184>
D:\#Documents\UVISION\SMART_WAKE_UP/ds3231.c:85
 800191c:	b006      	add	sp, #24
 800191e:	4770      	bx	lr

08001920 <DS3231_WriteMemory>:
DS3231_WriteMemory():
D:\#Documents\UVISION\SMART_WAKE_UP/ds3231.c:89
 8001920:	b086      	sub	sp, #24
 8001922:	f88d 0017 	strb.w	r0, [sp, #23]
 8001926:	f88d 1016 	strb.w	r1, [sp, #22]
 800192a:	9204      	str	r2, [sp, #16]
 800192c:	f88d 300f 	strb.w	r3, [sp, #15]
 8001930:	f245 4100 	movw	r1, #21504	; 0x5400
 8001934:	f2c4 0100 	movt	r1, #16384	; 0x4000
D:\#Documents\UVISION\SMART_WAKE_UP/ds3231.c:91
 8001938:	6808      	ldr	r0, [r1, #0]
 800193a:	f040 0001 	orr.w	r0, r0, #1
 800193e:	6008      	str	r0, [r1, #0]
 8001940:	f245 4204 	movw	r2, #21508	; 0x5404
 8001944:	f2c4 0200 	movt	r2, #16384	; 0x4000
 8001948:	9201      	str	r2, [sp, #4]
 800194a:	2000      	movs	r0, #0
D:\#Documents\UVISION\SMART_WAKE_UP/ds3231.c:92
 800194c:	6010      	str	r0, [r2, #0]
D:\#Documents\UVISION\SMART_WAKE_UP/ds3231.c:93
 800194e:	f89d 1017 	ldrb.w	r1, [sp, #23]
 8001952:	0049      	lsls	r1, r1, #1
 8001954:	6011      	str	r1, [r2, #0]
D:\#Documents\UVISION\SMART_WAKE_UP/ds3231.c:94
 8001956:	6811      	ldr	r1, [r2, #0]
 8001958:	f421 6100 	bic.w	r1, r1, #2048	; 0x800
 800195c:	6011      	str	r1, [r2, #0]
D:\#Documents\UVISION\SMART_WAKE_UP/ds3231.c:95
 800195e:	f89d 100f 	ldrb.w	r1, [sp, #15]
 8001962:	1c4b      	adds	r3, r1, #1
 8001964:	6811      	ldr	r1, [r2, #0]
 8001966:	ea41 4103 	orr.w	r1, r1, r3, lsl #16
 800196a:	6011      	str	r1, [r2, #0]
D:\#Documents\UVISION\SMART_WAKE_UP/ds3231.c:96
 800196c:	6811      	ldr	r1, [r2, #0]
 800196e:	f421 6180 	bic.w	r1, r1, #1024	; 0x400
 8001972:	6011      	str	r1, [r2, #0]
D:\#Documents\UVISION\SMART_WAKE_UP/ds3231.c:97
 8001974:	6811      	ldr	r1, [r2, #0]
 8001976:	f041 7100 	orr.w	r1, r1, #33554432	; 0x2000000
 800197a:	6011      	str	r1, [r2, #0]
D:\#Documents\UVISION\SMART_WAKE_UP/ds3231.c:98
 800197c:	6811      	ldr	r1, [r2, #0]
 800197e:	f441 5100 	orr.w	r1, r1, #8192	; 0x2000
 8001982:	6011      	str	r1, [r2, #0]
D:\#Documents\UVISION\SMART_WAKE_UP/ds3231.c:101
 8001984:	9002      	str	r0, [sp, #8]
D:\#Documents\UVISION\SMART_WAKE_UP/ds3231.c:102
 8001986:	e7ff      	b.n	8001988 <DS3231_WriteMemory+0x68>
 8001988:	f245 4018 	movw	r0, #21528	; 0x5418
 800198c:	f2c4 0000 	movt	r0, #16384	; 0x4000
 8001990:	6800      	ldr	r0, [r0, #0]
 8001992:	0680      	lsls	r0, r0, #26
 8001994:	2800      	cmp	r0, #0
 8001996:	d421      	bmi.n	80019dc <DS3231_WriteMemory+0xbc>
 8001998:	e7ff      	b.n	800199a <DS3231_WriteMemory+0x7a>
 800199a:	f245 4018 	movw	r0, #21528	; 0x5418
 800199e:	f2c4 0000 	movt	r0, #16384	; 0x4000
D:\#Documents\UVISION\SMART_WAKE_UP/ds3231.c:103
 80019a2:	6800      	ldr	r0, [r0, #0]
 80019a4:	07c0      	lsls	r0, r0, #31
 80019a6:	b1c0      	cbz	r0, 80019da <DS3231_WriteMemory+0xba>
 80019a8:	e7ff      	b.n	80019aa <DS3231_WriteMemory+0x8a>
D:\#Documents\UVISION\SMART_WAKE_UP/ds3231.c:104
 80019aa:	9802      	ldr	r0, [sp, #8]
 80019ac:	b920      	cbnz	r0, 80019b8 <DS3231_WriteMemory+0x98>
 80019ae:	e7ff      	b.n	80019b0 <DS3231_WriteMemory+0x90>
 80019b0:	f89d 0016 	ldrb.w	r0, [sp, #22]
 80019b4:	9000      	str	r0, [sp, #0]
 80019b6:	e006      	b.n	80019c6 <DS3231_WriteMemory+0xa6>
 80019b8:	9904      	ldr	r1, [sp, #16]
 80019ba:	9802      	ldr	r0, [sp, #8]
 80019bc:	4408      	add	r0, r1
 80019be:	f810 0c01 	ldrb.w	r0, [r0, #-1]
 80019c2:	9000      	str	r0, [sp, #0]
 80019c4:	e7ff      	b.n	80019c6 <DS3231_WriteMemory+0xa6>
 80019c6:	9800      	ldr	r0, [sp, #0]
 80019c8:	f245 4128 	movw	r1, #21544	; 0x5428
 80019cc:	f2c4 0100 	movt	r1, #16384	; 0x4000
 80019d0:	6008      	str	r0, [r1, #0]
D:\#Documents\UVISION\SMART_WAKE_UP/ds3231.c:105
 80019d2:	9802      	ldr	r0, [sp, #8]
 80019d4:	3001      	adds	r0, #1
 80019d6:	9002      	str	r0, [sp, #8]
D:\#Documents\UVISION\SMART_WAKE_UP/ds3231.c:106
 80019d8:	e7ff      	b.n	80019da <DS3231_WriteMemory+0xba>
D:\#Documents\UVISION\SMART_WAKE_UP/ds3231.c:102
 80019da:	e7d5      	b.n	8001988 <DS3231_WriteMemory+0x68>
 80019dc:	f245 4100 	movw	r1, #21504	; 0x5400
 80019e0:	f2c4 0100 	movt	r1, #16384	; 0x4000
D:\#Documents\UVISION\SMART_WAKE_UP/ds3231.c:110
 80019e4:	6808      	ldr	r0, [r1, #0]
 80019e6:	f020 0001 	bic.w	r0, r0, #1
 80019ea:	6008      	str	r0, [r1, #0]
D:\#Documents\UVISION\SMART_WAKE_UP/ds3231.c:111
 80019ec:	b006      	add	sp, #24
 80019ee:	4770      	bx	lr

080019f0 <EXTI15_10_IRQHandler>:
EXTI15_10_IRQHandler():
D:\#Documents\UVISION\SMART_WAKE_UP/buttons.c:99
 80019f0:	f643 4014 	movw	r0, #15380	; 0x3c14
 80019f4:	f2c4 0001 	movt	r0, #16385	; 0x4001
D:\#Documents\UVISION\SMART_WAKE_UP/buttons.c:100
 80019f8:	6800      	ldr	r0, [r0, #0]
 80019fa:	0500      	lsls	r0, r0, #20
 80019fc:	2800      	cmp	r0, #0
 80019fe:	d514      	bpl.n	8001a2a <EXTI15_10_IRQHandler+0x3a>
 8001a00:	e7ff      	b.n	8001a02 <EXTI15_10_IRQHandler+0x12>
 8001a02:	2124      	movs	r1, #36	; 0x24
 8001a04:	f2c4 0100 	movt	r1, #16384	; 0x4000
 8001a08:	2000      	movs	r0, #0
D:\#Documents\UVISION\SMART_WAKE_UP/buttons.c:102
 8001a0a:	6008      	str	r0, [r1, #0]
 8001a0c:	f643 4114 	movw	r1, #15380	; 0x3c14
 8001a10:	f2c4 0101 	movt	r1, #16385	; 0x4001
D:\#Documents\UVISION\SMART_WAKE_UP/buttons.c:103
 8001a14:	6808      	ldr	r0, [r1, #0]
 8001a16:	f440 6000 	orr.w	r0, r0, #2048	; 0x800
 8001a1a:	6008      	str	r0, [r1, #0]
D:\#Documents\UVISION\SMART_WAKE_UP/buttons.c:104
 8001a1c:	f243 4184 	movw	r1, #13444	; 0x3484
 8001a20:	f2c2 0102 	movt	r1, #8194	; 0x2002
 8001a24:	2001      	movs	r0, #1
 8001a26:	7008      	strb	r0, [r1, #0]
D:\#Documents\UVISION\SMART_WAKE_UP/buttons.c:105
 8001a28:	e7ff      	b.n	8001a2a <EXTI15_10_IRQHandler+0x3a>
D:\#Documents\UVISION\SMART_WAKE_UP/buttons.c:106
 8001a2a:	4770      	bx	lr
 8001a2c:	0000      	movs	r0, r0
	...

08001a30 <EXTI2_IRQHandler>:
EXTI2_IRQHandler():
D:\#Documents\UVISION\SMART_WAKE_UP/buttons.c:110
 8001a30:	f643 4014 	movw	r0, #15380	; 0x3c14
 8001a34:	f2c4 0001 	movt	r0, #16385	; 0x4001
D:\#Documents\UVISION\SMART_WAKE_UP/buttons.c:111
 8001a38:	6800      	ldr	r0, [r0, #0]
 8001a3a:	0740      	lsls	r0, r0, #29
 8001a3c:	2800      	cmp	r0, #0
 8001a3e:	d514      	bpl.n	8001a6a <EXTI2_IRQHandler+0x3a>
 8001a40:	e7ff      	b.n	8001a42 <EXTI2_IRQHandler+0x12>
 8001a42:	2124      	movs	r1, #36	; 0x24
 8001a44:	f2c4 0100 	movt	r1, #16384	; 0x4000
 8001a48:	2000      	movs	r0, #0
D:\#Documents\UVISION\SMART_WAKE_UP/buttons.c:113
 8001a4a:	6008      	str	r0, [r1, #0]
 8001a4c:	f643 4114 	movw	r1, #15380	; 0x3c14
 8001a50:	f2c4 0101 	movt	r1, #16385	; 0x4001
D:\#Documents\UVISION\SMART_WAKE_UP/buttons.c:114
 8001a54:	6808      	ldr	r0, [r1, #0]
 8001a56:	f040 0004 	orr.w	r0, r0, #4
 8001a5a:	6008      	str	r0, [r1, #0]
D:\#Documents\UVISION\SMART_WAKE_UP/buttons.c:115
 8001a5c:	f243 4180 	movw	r1, #13440	; 0x3480
 8001a60:	f2c2 0102 	movt	r1, #8194	; 0x2002
 8001a64:	2001      	movs	r0, #1
 8001a66:	7008      	strb	r0, [r1, #0]
D:\#Documents\UVISION\SMART_WAKE_UP/buttons.c:116
 8001a68:	e7ff      	b.n	8001a6a <EXTI2_IRQHandler+0x3a>
D:\#Documents\UVISION\SMART_WAKE_UP/buttons.c:117
 8001a6a:	4770      	bx	lr
 8001a6c:	0000      	movs	r0, r0
	...

08001a70 <EXTI3_IRQHandler>:
EXTI3_IRQHandler():
D:\#Documents\UVISION\SMART_WAKE_UP/buttons.c:131
 8001a70:	f643 4014 	movw	r0, #15380	; 0x3c14
 8001a74:	f2c4 0001 	movt	r0, #16385	; 0x4001
D:\#Documents\UVISION\SMART_WAKE_UP/buttons.c:132
 8001a78:	6800      	ldr	r0, [r0, #0]
 8001a7a:	0700      	lsls	r0, r0, #28
 8001a7c:	2800      	cmp	r0, #0
 8001a7e:	d50f      	bpl.n	8001aa0 <EXTI3_IRQHandler+0x30>
 8001a80:	e7ff      	b.n	8001a82 <EXTI3_IRQHandler+0x12>
 8001a82:	f643 4114 	movw	r1, #15380	; 0x3c14
 8001a86:	f2c4 0101 	movt	r1, #16385	; 0x4001
D:\#Documents\UVISION\SMART_WAKE_UP/buttons.c:134
 8001a8a:	6808      	ldr	r0, [r1, #0]
 8001a8c:	f040 0008 	orr.w	r0, r0, #8
 8001a90:	6008      	str	r0, [r1, #0]
D:\#Documents\UVISION\SMART_WAKE_UP/buttons.c:135
 8001a92:	f243 4181 	movw	r1, #13441	; 0x3481
 8001a96:	f2c2 0102 	movt	r1, #8194	; 0x2002
 8001a9a:	2001      	movs	r0, #1
 8001a9c:	7008      	strb	r0, [r1, #0]
D:\#Documents\UVISION\SMART_WAKE_UP/buttons.c:136
 8001a9e:	e7ff      	b.n	8001aa0 <EXTI3_IRQHandler+0x30>
D:\#Documents\UVISION\SMART_WAKE_UP/buttons.c:137
 8001aa0:	4770      	bx	lr
 8001aa2:	0000      	movs	r0, r0
 8001aa4:	0000      	movs	r0, r0
	...

08001aa8 <EXTI4_IRQHandler>:
EXTI4_IRQHandler():
D:\#Documents\UVISION\SMART_WAKE_UP/buttons.c:121
 8001aa8:	f643 4014 	movw	r0, #15380	; 0x3c14
 8001aac:	f2c4 0001 	movt	r0, #16385	; 0x4001
D:\#Documents\UVISION\SMART_WAKE_UP/buttons.c:122
 8001ab0:	6800      	ldr	r0, [r0, #0]
 8001ab2:	06c0      	lsls	r0, r0, #27
 8001ab4:	2800      	cmp	r0, #0
 8001ab6:	d50f      	bpl.n	8001ad8 <EXTI4_IRQHandler+0x30>
 8001ab8:	e7ff      	b.n	8001aba <EXTI4_IRQHandler+0x12>
 8001aba:	f643 4114 	movw	r1, #15380	; 0x3c14
 8001abe:	f2c4 0101 	movt	r1, #16385	; 0x4001
D:\#Documents\UVISION\SMART_WAKE_UP/buttons.c:124
 8001ac2:	6808      	ldr	r0, [r1, #0]
 8001ac4:	f040 0010 	orr.w	r0, r0, #16
 8001ac8:	6008      	str	r0, [r1, #0]
D:\#Documents\UVISION\SMART_WAKE_UP/buttons.c:125
 8001aca:	f243 4182 	movw	r1, #13442	; 0x3482
 8001ace:	f2c2 0102 	movt	r1, #8194	; 0x2002
 8001ad2:	2001      	movs	r0, #1
 8001ad4:	7008      	strb	r0, [r1, #0]
D:\#Documents\UVISION\SMART_WAKE_UP/buttons.c:126
 8001ad6:	e7ff      	b.n	8001ad8 <EXTI4_IRQHandler+0x30>
D:\#Documents\UVISION\SMART_WAKE_UP/buttons.c:127
 8001ad8:	4770      	bx	lr
 8001ada:	0000      	movs	r0, r0
 8001adc:	0000      	movs	r0, r0
	...

08001ae0 <GPIO_DigitalWrite>:
GPIO_DigitalWrite():
D:\#Documents\UVISION\SMART_WAKE_UP/gpio.c:34
 8001ae0:	b082      	sub	sp, #8
 8001ae2:	9001      	str	r0, [sp, #4]
 8001ae4:	f8ad 1002 	strh.w	r1, [sp, #2]
 8001ae8:	f88d 2001 	strb.w	r2, [sp, #1]
D:\#Documents\UVISION\SMART_WAKE_UP/gpio.c:35
 8001aec:	f89d 0001 	ldrb.w	r0, [sp, #1]
 8001af0:	2801      	cmp	r0, #1
 8001af2:	d107      	bne.n	8001b04 <GPIO_DigitalWrite+0x24>
 8001af4:	e7ff      	b.n	8001af6 <GPIO_DigitalWrite+0x16>
 8001af6:	f8bd 1002 	ldrh.w	r1, [sp, #2]
 8001afa:	2001      	movs	r0, #1
 8001afc:	4088      	lsls	r0, r1
 8001afe:	9901      	ldr	r1, [sp, #4]
 8001b00:	6188      	str	r0, [r1, #24]
 8001b02:	e00d      	b.n	8001b20 <GPIO_DigitalWrite+0x40>
D:\#Documents\UVISION\SMART_WAKE_UP/gpio.c:36
 8001b04:	f89d 0001 	ldrb.w	r0, [sp, #1]
 8001b08:	b948      	cbnz	r0, 8001b1e <GPIO_DigitalWrite+0x3e>
 8001b0a:	e7ff      	b.n	8001b0c <GPIO_DigitalWrite+0x2c>
 8001b0c:	f8bd 0002 	ldrh.w	r0, [sp, #2]
 8001b10:	f100 0110 	add.w	r1, r0, #16
 8001b14:	2001      	movs	r0, #1
 8001b16:	4088      	lsls	r0, r1
 8001b18:	9901      	ldr	r1, [sp, #4]
 8001b1a:	6188      	str	r0, [r1, #24]
 8001b1c:	e7ff      	b.n	8001b1e <GPIO_DigitalWrite+0x3e>
 8001b1e:	e7ff      	b.n	8001b20 <GPIO_DigitalWrite+0x40>
D:\#Documents\UVISION\SMART_WAKE_UP/gpio.c:37
 8001b20:	b002      	add	sp, #8
 8001b22:	4770      	bx	lr
 8001b24:	0000      	movs	r0, r0
	...

08001b28 <GPIO_PinMode>:
GPIO_PinMode():
D:\#Documents\UVISION\SMART_WAKE_UP/gpio.c:4
 8001b28:	b082      	sub	sp, #8
 8001b2a:	9001      	str	r0, [sp, #4]
 8001b2c:	f8ad 1002 	strh.w	r1, [sp, #2]
 8001b30:	f88d 2001 	strb.w	r2, [sp, #1]
D:\#Documents\UVISION\SMART_WAKE_UP/gpio.c:6
 8001b34:	9801      	ldr	r0, [sp, #4]
 8001b36:	2100      	movs	r1, #0
 8001b38:	f2c4 0102 	movt	r1, #16386	; 0x4002
 8001b3c:	4288      	cmp	r0, r1
 8001b3e:	d109      	bne.n	8001b54 <GPIO_PinMode+0x2c>
 8001b40:	e7ff      	b.n	8001b42 <GPIO_PinMode+0x1a>
 8001b42:	f643 0130 	movw	r1, #14384	; 0x3830
 8001b46:	f2c4 0102 	movt	r1, #16386	; 0x4002
 8001b4a:	6808      	ldr	r0, [r1, #0]
 8001b4c:	f040 0001 	orr.w	r0, r0, #1
 8001b50:	6008      	str	r0, [r1, #0]
 8001b52:	e0a2      	b.n	8001c9a <GPIO_PinMode+0x172>
D:\#Documents\UVISION\SMART_WAKE_UP/gpio.c:7
 8001b54:	9801      	ldr	r0, [sp, #4]
 8001b56:	f240 4100 	movw	r1, #1024	; 0x400
 8001b5a:	f2c4 0102 	movt	r1, #16386	; 0x4002
 8001b5e:	4288      	cmp	r0, r1
 8001b60:	d109      	bne.n	8001b76 <GPIO_PinMode+0x4e>
 8001b62:	e7ff      	b.n	8001b64 <GPIO_PinMode+0x3c>
 8001b64:	f643 0130 	movw	r1, #14384	; 0x3830
 8001b68:	f2c4 0102 	movt	r1, #16386	; 0x4002
 8001b6c:	6808      	ldr	r0, [r1, #0]
 8001b6e:	f040 0002 	orr.w	r0, r0, #2
 8001b72:	6008      	str	r0, [r1, #0]
 8001b74:	e090      	b.n	8001c98 <GPIO_PinMode+0x170>
D:\#Documents\UVISION\SMART_WAKE_UP/gpio.c:8
 8001b76:	9801      	ldr	r0, [sp, #4]
 8001b78:	f640 0100 	movw	r1, #2048	; 0x800
 8001b7c:	f2c4 0102 	movt	r1, #16386	; 0x4002
 8001b80:	4288      	cmp	r0, r1
 8001b82:	d109      	bne.n	8001b98 <GPIO_PinMode+0x70>
 8001b84:	e7ff      	b.n	8001b86 <GPIO_PinMode+0x5e>
 8001b86:	f643 0130 	movw	r1, #14384	; 0x3830
 8001b8a:	f2c4 0102 	movt	r1, #16386	; 0x4002
 8001b8e:	6808      	ldr	r0, [r1, #0]
 8001b90:	f040 0004 	orr.w	r0, r0, #4
 8001b94:	6008      	str	r0, [r1, #0]
 8001b96:	e07e      	b.n	8001c96 <GPIO_PinMode+0x16e>
D:\#Documents\UVISION\SMART_WAKE_UP/gpio.c:9
 8001b98:	9801      	ldr	r0, [sp, #4]
 8001b9a:	f640 4100 	movw	r1, #3072	; 0xc00
 8001b9e:	f2c4 0102 	movt	r1, #16386	; 0x4002
 8001ba2:	4288      	cmp	r0, r1
 8001ba4:	d109      	bne.n	8001bba <GPIO_PinMode+0x92>
 8001ba6:	e7ff      	b.n	8001ba8 <GPIO_PinMode+0x80>
 8001ba8:	f643 0130 	movw	r1, #14384	; 0x3830
 8001bac:	f2c4 0102 	movt	r1, #16386	; 0x4002
 8001bb0:	6808      	ldr	r0, [r1, #0]
 8001bb2:	f040 0008 	orr.w	r0, r0, #8
 8001bb6:	6008      	str	r0, [r1, #0]
 8001bb8:	e06c      	b.n	8001c94 <GPIO_PinMode+0x16c>
D:\#Documents\UVISION\SMART_WAKE_UP/gpio.c:10
 8001bba:	9801      	ldr	r0, [sp, #4]
 8001bbc:	f241 0100 	movw	r1, #4096	; 0x1000
 8001bc0:	f2c4 0102 	movt	r1, #16386	; 0x4002
 8001bc4:	4288      	cmp	r0, r1
 8001bc6:	d109      	bne.n	8001bdc <GPIO_PinMode+0xb4>
 8001bc8:	e7ff      	b.n	8001bca <GPIO_PinMode+0xa2>
 8001bca:	f643 0130 	movw	r1, #14384	; 0x3830
 8001bce:	f2c4 0102 	movt	r1, #16386	; 0x4002
 8001bd2:	6808      	ldr	r0, [r1, #0]
 8001bd4:	f040 0010 	orr.w	r0, r0, #16
 8001bd8:	6008      	str	r0, [r1, #0]
 8001bda:	e05a      	b.n	8001c92 <GPIO_PinMode+0x16a>
D:\#Documents\UVISION\SMART_WAKE_UP/gpio.c:11
 8001bdc:	9801      	ldr	r0, [sp, #4]
 8001bde:	f241 4100 	movw	r1, #5120	; 0x1400
 8001be2:	f2c4 0102 	movt	r1, #16386	; 0x4002
 8001be6:	4288      	cmp	r0, r1
 8001be8:	d109      	bne.n	8001bfe <GPIO_PinMode+0xd6>
 8001bea:	e7ff      	b.n	8001bec <GPIO_PinMode+0xc4>
 8001bec:	f643 0130 	movw	r1, #14384	; 0x3830
 8001bf0:	f2c4 0102 	movt	r1, #16386	; 0x4002
 8001bf4:	6808      	ldr	r0, [r1, #0]
 8001bf6:	f040 0020 	orr.w	r0, r0, #32
 8001bfa:	6008      	str	r0, [r1, #0]
 8001bfc:	e048      	b.n	8001c90 <GPIO_PinMode+0x168>
D:\#Documents\UVISION\SMART_WAKE_UP/gpio.c:12
 8001bfe:	9801      	ldr	r0, [sp, #4]
 8001c00:	f641 0100 	movw	r1, #6144	; 0x1800
 8001c04:	f2c4 0102 	movt	r1, #16386	; 0x4002
 8001c08:	4288      	cmp	r0, r1
 8001c0a:	d109      	bne.n	8001c20 <GPIO_PinMode+0xf8>
 8001c0c:	e7ff      	b.n	8001c0e <GPIO_PinMode+0xe6>
 8001c0e:	f643 0130 	movw	r1, #14384	; 0x3830
 8001c12:	f2c4 0102 	movt	r1, #16386	; 0x4002
 8001c16:	6808      	ldr	r0, [r1, #0]
 8001c18:	f040 0040 	orr.w	r0, r0, #64	; 0x40
 8001c1c:	6008      	str	r0, [r1, #0]
 8001c1e:	e036      	b.n	8001c8e <GPIO_PinMode+0x166>
D:\#Documents\UVISION\SMART_WAKE_UP/gpio.c:13
 8001c20:	9801      	ldr	r0, [sp, #4]
 8001c22:	f641 4100 	movw	r1, #7168	; 0x1c00
 8001c26:	f2c4 0102 	movt	r1, #16386	; 0x4002
 8001c2a:	4288      	cmp	r0, r1
 8001c2c:	d109      	bne.n	8001c42 <GPIO_PinMode+0x11a>
 8001c2e:	e7ff      	b.n	8001c30 <GPIO_PinMode+0x108>
 8001c30:	f643 0130 	movw	r1, #14384	; 0x3830
 8001c34:	f2c4 0102 	movt	r1, #16386	; 0x4002
 8001c38:	6808      	ldr	r0, [r1, #0]
 8001c3a:	f040 0080 	orr.w	r0, r0, #128	; 0x80
 8001c3e:	6008      	str	r0, [r1, #0]
 8001c40:	e024      	b.n	8001c8c <GPIO_PinMode+0x164>
D:\#Documents\UVISION\SMART_WAKE_UP/gpio.c:14
 8001c42:	9801      	ldr	r0, [sp, #4]
 8001c44:	f242 0100 	movw	r1, #8192	; 0x2000
 8001c48:	f2c4 0102 	movt	r1, #16386	; 0x4002
 8001c4c:	4288      	cmp	r0, r1
 8001c4e:	d109      	bne.n	8001c64 <GPIO_PinMode+0x13c>
 8001c50:	e7ff      	b.n	8001c52 <GPIO_PinMode+0x12a>
 8001c52:	f643 0130 	movw	r1, #14384	; 0x3830
 8001c56:	f2c4 0102 	movt	r1, #16386	; 0x4002
 8001c5a:	6808      	ldr	r0, [r1, #0]
 8001c5c:	f440 7080 	orr.w	r0, r0, #256	; 0x100
 8001c60:	6008      	str	r0, [r1, #0]
 8001c62:	e012      	b.n	8001c8a <GPIO_PinMode+0x162>
D:\#Documents\UVISION\SMART_WAKE_UP/gpio.c:15
 8001c64:	9801      	ldr	r0, [sp, #4]
 8001c66:	f642 0100 	movw	r1, #10240	; 0x2800
 8001c6a:	f2c4 0102 	movt	r1, #16386	; 0x4002
 8001c6e:	4288      	cmp	r0, r1
 8001c70:	d109      	bne.n	8001c86 <GPIO_PinMode+0x15e>
 8001c72:	e7ff      	b.n	8001c74 <GPIO_PinMode+0x14c>
 8001c74:	f643 0130 	movw	r1, #14384	; 0x3830
 8001c78:	f2c4 0102 	movt	r1, #16386	; 0x4002
 8001c7c:	6808      	ldr	r0, [r1, #0]
 8001c7e:	f440 6080 	orr.w	r0, r0, #1024	; 0x400
 8001c82:	6008      	str	r0, [r1, #0]
 8001c84:	e000      	b.n	8001c88 <GPIO_PinMode+0x160>
D:\#Documents\UVISION\SMART_WAKE_UP/gpio.c:16
 8001c86:	e039      	b.n	8001cfc <GPIO_PinMode+0x1d4>
 8001c88:	e7ff      	b.n	8001c8a <GPIO_PinMode+0x162>
 8001c8a:	e7ff      	b.n	8001c8c <GPIO_PinMode+0x164>
 8001c8c:	e7ff      	b.n	8001c8e <GPIO_PinMode+0x166>
 8001c8e:	e7ff      	b.n	8001c90 <GPIO_PinMode+0x168>
 8001c90:	e7ff      	b.n	8001c92 <GPIO_PinMode+0x16a>
 8001c92:	e7ff      	b.n	8001c94 <GPIO_PinMode+0x16c>
 8001c94:	e7ff      	b.n	8001c96 <GPIO_PinMode+0x16e>
 8001c96:	e7ff      	b.n	8001c98 <GPIO_PinMode+0x170>
 8001c98:	e7ff      	b.n	8001c9a <GPIO_PinMode+0x172>
D:\#Documents\UVISION\SMART_WAKE_UP/gpio.c:18
 8001c9a:	f8bd 0002 	ldrh.w	r0, [sp, #2]
 8001c9e:	2810      	cmp	r0, #16
 8001ca0:	db01      	blt.n	8001ca6 <GPIO_PinMode+0x17e>
 8001ca2:	e7ff      	b.n	8001ca4 <GPIO_PinMode+0x17c>
 8001ca4:	e02a      	b.n	8001cfc <GPIO_PinMode+0x1d4>
D:\#Documents\UVISION\SMART_WAKE_UP/gpio.c:21
 8001ca6:	f89d 0001 	ldrb.w	r0, [sp, #1]
 8001caa:	b958      	cbnz	r0, 8001cc4 <GPIO_PinMode+0x19c>
 8001cac:	e7ff      	b.n	8001cae <GPIO_PinMode+0x186>
D:\#Documents\UVISION\SMART_WAKE_UP/gpio.c:23
 8001cae:	f8bd 0002 	ldrh.w	r0, [sp, #2]
 8001cb2:	0041      	lsls	r1, r0, #1
 8001cb4:	2003      	movs	r0, #3
 8001cb6:	fa00 f201 	lsl.w	r2, r0, r1
 8001cba:	9901      	ldr	r1, [sp, #4]
 8001cbc:	6808      	ldr	r0, [r1, #0]
 8001cbe:	4390      	bics	r0, r2
 8001cc0:	6008      	str	r0, [r1, #0]
D:\#Documents\UVISION\SMART_WAKE_UP/gpio.c:24
 8001cc2:	e01b      	b.n	8001cfc <GPIO_PinMode+0x1d4>
D:\#Documents\UVISION\SMART_WAKE_UP/gpio.c:25
 8001cc4:	f89d 0001 	ldrb.w	r0, [sp, #1]
 8001cc8:	2801      	cmp	r0, #1
 8001cca:	d115      	bne.n	8001cf8 <GPIO_PinMode+0x1d0>
 8001ccc:	e7ff      	b.n	8001cce <GPIO_PinMode+0x1a6>
D:\#Documents\UVISION\SMART_WAKE_UP/gpio.c:27
 8001cce:	f8bd 0002 	ldrh.w	r0, [sp, #2]
 8001cd2:	0041      	lsls	r1, r0, #1
 8001cd4:	2003      	movs	r0, #3
 8001cd6:	fa00 f201 	lsl.w	r2, r0, r1
 8001cda:	9901      	ldr	r1, [sp, #4]
 8001cdc:	6808      	ldr	r0, [r1, #0]
 8001cde:	4390      	bics	r0, r2
 8001ce0:	6008      	str	r0, [r1, #0]
D:\#Documents\UVISION\SMART_WAKE_UP/gpio.c:28
 8001ce2:	f8bd 0002 	ldrh.w	r0, [sp, #2]
 8001ce6:	0041      	lsls	r1, r0, #1
 8001ce8:	2001      	movs	r0, #1
 8001cea:	fa00 f201 	lsl.w	r2, r0, r1
 8001cee:	9901      	ldr	r1, [sp, #4]
 8001cf0:	6808      	ldr	r0, [r1, #0]
 8001cf2:	4310      	orrs	r0, r2
 8001cf4:	6008      	str	r0, [r1, #0]
D:\#Documents\UVISION\SMART_WAKE_UP/gpio.c:29
 8001cf6:	e000      	b.n	8001cfa <GPIO_PinMode+0x1d2>
D:\#Documents\UVISION\SMART_WAKE_UP/gpio.c:30
 8001cf8:	e000      	b.n	8001cfc <GPIO_PinMode+0x1d4>
 8001cfa:	e7ff      	b.n	8001cfc <GPIO_PinMode+0x1d4>
D:\#Documents\UVISION\SMART_WAKE_UP/gpio.c:31
 8001cfc:	b002      	add	sp, #8
 8001cfe:	4770      	bx	lr

08001d00 <MAIN_DisplayDate>:
MAIN_DisplayDate():
D:\#Documents\UVISION\SMART_WAKE_UP/main.c:64
 8001d00:	b5b0      	push	{r4, r5, r7, lr}
 8001d02:	b094      	sub	sp, #80	; 0x50
 8001d04:	2100      	movs	r1, #0
D:\#Documents\UVISION\SMART_WAKE_UP/main.c:65
 8001d06:	9110      	str	r1, [sp, #64]	; 0x40
 8001d08:	f8cd 104b 	str.w	r1, [sp, #75]	; 0x4b
 8001d0c:	9112      	str	r1, [sp, #72]	; 0x48
 8001d0e:	2068      	movs	r0, #104	; 0x68
 8001d10:	aa12      	add	r2, sp, #72	; 0x48
 8001d12:	2307      	movs	r3, #7
D:\#Documents\UVISION\SMART_WAKE_UP/main.c:66
 8001d14:	9309      	str	r3, [sp, #36]	; 0x24
 8001d16:	f7ff fd3f 	bl	8001798 <DS3231_Read>
D:\#Documents\UVISION\SMART_WAKE_UP/main.c:67
 8001d1a:	f89d 0048 	ldrb.w	r0, [sp, #72]	; 0x48
 8001d1e:	f000 007f 	and.w	r0, r0, #127	; 0x7f
 8001d22:	f7ff fcd1 	bl	80016c8 <DS3231_BCD_DEC>
 8001d26:	f243 4189 	movw	r1, #13449	; 0x3489
 8001d2a:	f2c2 0102 	movt	r1, #8194	; 0x2002
 8001d2e:	9108      	str	r1, [sp, #32]
 8001d30:	7008      	strb	r0, [r1, #0]
D:\#Documents\UVISION\SMART_WAKE_UP/main.c:68
 8001d32:	f89d 0049 	ldrb.w	r0, [sp, #73]	; 0x49
 8001d36:	f7ff fcc7 	bl	80016c8 <DS3231_BCD_DEC>
 8001d3a:	f243 4188 	movw	r1, #13448	; 0x3488
 8001d3e:	f2c2 0102 	movt	r1, #8194	; 0x2002
 8001d42:	9107      	str	r1, [sp, #28]
 8001d44:	7008      	strb	r0, [r1, #0]
D:\#Documents\UVISION\SMART_WAKE_UP/main.c:69
 8001d46:	f89d 004a 	ldrb.w	r0, [sp, #74]	; 0x4a
 8001d4a:	f000 003f 	and.w	r0, r0, #63	; 0x3f
 8001d4e:	f7ff fcbb 	bl	80016c8 <DS3231_BCD_DEC>
 8001d52:	f243 4187 	movw	r1, #13447	; 0x3487
 8001d56:	f2c2 0102 	movt	r1, #8194	; 0x2002
 8001d5a:	9106      	str	r1, [sp, #24]
 8001d5c:	7008      	strb	r0, [r1, #0]
D:\#Documents\UVISION\SMART_WAKE_UP/main.c:70
 8001d5e:	f89d 004b 	ldrb.w	r0, [sp, #75]	; 0x4b
 8001d62:	f7ff fcb1 	bl	80016c8 <DS3231_BCD_DEC>
 8001d66:	f243 31c9 	movw	r1, #13257	; 0x33c9
 8001d6a:	f2c2 0102 	movt	r1, #8194	; 0x2002
 8001d6e:	910a      	str	r1, [sp, #40]	; 0x28
 8001d70:	7008      	strb	r0, [r1, #0]
D:\#Documents\UVISION\SMART_WAKE_UP/main.c:71
 8001d72:	f89d 004c 	ldrb.w	r0, [sp, #76]	; 0x4c
 8001d76:	f7ff fca7 	bl	80016c8 <DS3231_BCD_DEC>
 8001d7a:	f243 31c8 	movw	r1, #13256	; 0x33c8
 8001d7e:	f2c2 0102 	movt	r1, #8194	; 0x2002
 8001d82:	910e      	str	r1, [sp, #56]	; 0x38
 8001d84:	7008      	strb	r0, [r1, #0]
D:\#Documents\UVISION\SMART_WAKE_UP/main.c:72
 8001d86:	f89d 004d 	ldrb.w	r0, [sp, #77]	; 0x4d
 8001d8a:	f7ff fc9d 	bl	80016c8 <DS3231_BCD_DEC>
 8001d8e:	f243 31ca 	movw	r1, #13258	; 0x33ca
 8001d92:	f2c2 0102 	movt	r1, #8194	; 0x2002
 8001d96:	910b      	str	r1, [sp, #44]	; 0x2c
 8001d98:	7008      	strb	r0, [r1, #0]
D:\#Documents\UVISION\SMART_WAKE_UP/main.c:73
 8001d9a:	f89d 004e 	ldrb.w	r0, [sp, #78]	; 0x4e
 8001d9e:	f7ff fc93 	bl	80016c8 <DS3231_BCD_DEC>
 8001da2:	f243 418a 	movw	r1, #13450	; 0x348a
 8001da6:	f2c2 0102 	movt	r1, #8194	; 0x2002
 8001daa:	910c      	str	r1, [sp, #48]	; 0x30
 8001dac:	7008      	strb	r0, [r1, #0]
D:\#Documents\UVISION\SMART_WAKE_UP/main.c:74
 8001dae:	f89d 004d 	ldrb.w	r0, [sp, #77]	; 0x4d
 8001db2:	f000 0080 	and.w	r0, r0, #128	; 0x80
 8001db6:	f7ff fc87 	bl	80016c8 <DS3231_BCD_DEC>
 8001dba:	9a10      	ldr	r2, [sp, #64]	; 0x40
 8001dbc:	f243 4485 	movw	r4, #13445	; 0x3485
 8001dc0:	f2c2 0402 	movt	r4, #8194	; 0x2002
 8001dc4:	7020      	strb	r0, [r4, #0]
D:\#Documents\UVISION\SMART_WAKE_UP/main.c:76
 8001dc6:	f643 50df 	movw	r0, #15839	; 0x3ddf
 8001dca:	f6c0 0000 	movt	r0, #2048	; 0x800
 8001dce:	4669      	mov	r1, sp
 8001dd0:	6008      	str	r0, [r1, #0]
 8001dd2:	f240 0300 	movw	r3, #0
 8001dd6:	f2c2 0302 	movt	r3, #8194	; 0x2002
 8001dda:	930d      	str	r3, [sp, #52]	; 0x34
 8001ddc:	2001      	movs	r0, #1
 8001dde:	900f      	str	r0, [sp, #60]	; 0x3c
 8001de0:	4611      	mov	r1, r2
 8001de2:	f000 faad 	bl	8002340 <SH1106_FontPrint>
 8001de6:	9a06      	ldr	r2, [sp, #24]
 8001de8:	f8dd c01c 	ldr.w	ip, [sp, #28]
 8001dec:	9b08      	ldr	r3, [sp, #32]
 8001dee:	9909      	ldr	r1, [sp, #36]	; 0x24
 8001df0:	980f      	ldr	r0, [sp, #60]	; 0x3c
D:\#Documents\UVISION\SMART_WAKE_UP/main.c:77
 8001df2:	f992 2000 	ldrsb.w	r2, [r2]
 8001df6:	f99c c000 	ldrsb.w	ip, [ip]
 8001dfa:	f993 e000 	ldrsb.w	lr, [r3]
 8001dfe:	466b      	mov	r3, sp
 8001e00:	f8c3 e00c 	str.w	lr, [r3, #12]
 8001e04:	f8c3 c008 	str.w	ip, [r3, #8]
 8001e08:	605a      	str	r2, [r3, #4]
 8001e0a:	f643 623e 	movw	r2, #15934	; 0x3e3e
 8001e0e:	f6c0 0200 	movt	r2, #2048	; 0x800
 8001e12:	601a      	str	r2, [r3, #0]
 8001e14:	f640 1364 	movw	r3, #2404	; 0x964
 8001e18:	f2c2 0302 	movt	r3, #8194	; 0x2002
 8001e1c:	220d      	movs	r2, #13
 8001e1e:	f000 fa8f 	bl	8002340 <SH1106_FontPrint>
 8001e22:	9a0a      	ldr	r2, [sp, #40]	; 0x28
 8001e24:	9b0d      	ldr	r3, [sp, #52]	; 0x34
 8001e26:	980f      	ldr	r0, [sp, #60]	; 0x3c
 8001e28:	9910      	ldr	r1, [sp, #64]	; 0x40
D:\#Documents\UVISION\SMART_WAKE_UP/main.c:78
 8001e2a:	f992 c000 	ldrsb.w	ip, [r2]
 8001e2e:	f243 32cc 	movw	r2, #13260	; 0x33cc
 8001e32:	f2c2 0202 	movt	r2, #8194	; 0x2002
 8001e36:	f852 202c 	ldr.w	r2, [r2, ip, lsl #2]
 8001e3a:	46ec      	mov	ip, sp
 8001e3c:	f8cc 2004 	str.w	r2, [ip, #4]
 8001e40:	f643 52d8 	movw	r2, #15832	; 0x3dd8
 8001e44:	f6c0 0200 	movt	r2, #2048	; 0x800
 8001e48:	f8cc 2000 	str.w	r2, [ip]
 8001e4c:	2227      	movs	r2, #39	; 0x27
 8001e4e:	f000 fa77 	bl	8002340 <SH1106_FontPrint>
 8001e52:	9a0b      	ldr	r2, [sp, #44]	; 0x2c
 8001e54:	f8dd c030 	ldr.w	ip, [sp, #48]	; 0x30
 8001e58:	9b0d      	ldr	r3, [sp, #52]	; 0x34
 8001e5a:	980f      	ldr	r0, [sp, #60]	; 0x3c
 8001e5c:	9910      	ldr	r1, [sp, #64]	; 0x40
 8001e5e:	f8dd e038 	ldr.w	lr, [sp, #56]	; 0x38
D:\#Documents\UVISION\SMART_WAKE_UP/main.c:79
 8001e62:	f992 5000 	ldrsb.w	r5, [r2]
 8001e66:	f243 32ec 	movw	r2, #13292	; 0x33ec
 8001e6a:	f2c2 0202 	movt	r2, #8194	; 0x2002
 8001e6e:	f852 2025 	ldr.w	r2, [r2, r5, lsl #2]
 8001e72:	f99e e000 	ldrsb.w	lr, [lr]
 8001e76:	f994 4000 	ldrsb.w	r4, [r4]
 8001e7a:	f99c 5000 	ldrsb.w	r5, [ip]
 8001e7e:	46ec      	mov	ip, sp
 8001e80:	f8cc 5010 	str.w	r5, [ip, #16]
 8001e84:	f8cc 400c 	str.w	r4, [ip, #12]
 8001e88:	f8cc e008 	str.w	lr, [ip, #8]
 8001e8c:	f8cc 2004 	str.w	r2, [ip, #4]
 8001e90:	f643 624d 	movw	r2, #15949	; 0x3e4d
 8001e94:	f6c0 0200 	movt	r2, #2048	; 0x800
 8001e98:	f8cc 2000 	str.w	r2, [ip]
 8001e9c:	2234      	movs	r2, #52	; 0x34
 8001e9e:	f000 fa4f 	bl	8002340 <SH1106_FontPrint>
 8001ea2:	980f      	ldr	r0, [sp, #60]	; 0x3c
 8001ea4:	9910      	ldr	r1, [sp, #64]	; 0x40
D:\#Documents\UVISION\SMART_WAKE_UP/main.c:80
 8001ea6:	466b      	mov	r3, sp
 8001ea8:	2225      	movs	r2, #37	; 0x25
 8001eaa:	601a      	str	r2, [r3, #0]
 8001eac:	2380      	movs	r3, #128	; 0x80
 8001eae:	9311      	str	r3, [sp, #68]	; 0x44
 8001eb0:	f000 f9ae 	bl	8002210 <SH1106_DrawLine>
 8001eb4:	980f      	ldr	r0, [sp, #60]	; 0x3c
 8001eb6:	9910      	ldr	r1, [sp, #64]	; 0x40
 8001eb8:	9b11      	ldr	r3, [sp, #68]	; 0x44
D:\#Documents\UVISION\SMART_WAKE_UP/main.c:81
 8001eba:	46ec      	mov	ip, sp
 8001ebc:	220c      	movs	r2, #12
 8001ebe:	f8cc 2000 	str.w	r2, [ip]
 8001ec2:	f000 f9a5 	bl	8002210 <SH1106_DrawLine>
D:\#Documents\UVISION\SMART_WAKE_UP/main.c:82
 8001ec6:	b014      	add	sp, #80	; 0x50
 8001ec8:	bdb0      	pop	{r4, r5, r7, pc}
 8001eca:	0000      	movs	r0, r0
 8001ecc:	0000      	movs	r0, r0
	...

08001ed0 <MAIN_Initialization>:
MAIN_Initialization():
D:\#Documents\UVISION\SMART_WAKE_UP/main.c:227
 8001ed0:	b580      	push	{r7, lr}
 8001ed2:	b084      	sub	sp, #16
D:\#Documents\UVISION\SMART_WAKE_UP/main.c:228
 8001ed4:	f643 019c 	movw	r1, #14492	; 0x389c
 8001ed8:	f2c2 0102 	movt	r1, #8194	; 0x2002
 8001edc:	2000      	movs	r0, #0
 8001ede:	6008      	str	r0, [r1, #0]
D:\#Documents\UVISION\SMART_WAKE_UP/main.c:230
 8001ee0:	f643 00a1 	movw	r0, #14497	; 0x38a1
 8001ee4:	f2c2 0002 	movt	r0, #8194	; 0x2002
 8001ee8:	7800      	ldrb	r0, [r0, #0]
 8001eea:	2800      	cmp	r0, #0
 8001eec:	d04e      	beq.n	8001f8c <MAIN_Initialization+0xbc>
 8001eee:	e7ff      	b.n	8001ef0 <MAIN_Initialization+0x20>
D:\#Documents\UVISION\SMART_WAKE_UP/main.c:232
 8001ef0:	f243 4089 	movw	r0, #13449	; 0x3489
 8001ef4:	f2c2 0002 	movt	r0, #8194	; 0x2002
 8001ef8:	7800      	ldrb	r0, [r0, #0]
 8001efa:	f7ff fbf1 	bl	80016e0 <DS3231_DEC_BCD>
 8001efe:	f88d 0009 	strb.w	r0, [sp, #9]
 8001f02:	f243 4088 	movw	r0, #13448	; 0x3488
 8001f06:	f2c2 0002 	movt	r0, #8194	; 0x2002
 8001f0a:	7800      	ldrb	r0, [r0, #0]
 8001f0c:	f7ff fbe8 	bl	80016e0 <DS3231_DEC_BCD>
 8001f10:	f88d 000a 	strb.w	r0, [sp, #10]
 8001f14:	f243 4087 	movw	r0, #13447	; 0x3487
 8001f18:	f2c2 0002 	movt	r0, #8194	; 0x2002
 8001f1c:	7800      	ldrb	r0, [r0, #0]
 8001f1e:	f7ff fbdf 	bl	80016e0 <DS3231_DEC_BCD>
 8001f22:	f88d 000b 	strb.w	r0, [sp, #11]
 8001f26:	f243 30c9 	movw	r0, #13257	; 0x33c9
 8001f2a:	f2c2 0002 	movt	r0, #8194	; 0x2002
 8001f2e:	7800      	ldrb	r0, [r0, #0]
 8001f30:	f7ff fbd6 	bl	80016e0 <DS3231_DEC_BCD>
 8001f34:	f88d 000c 	strb.w	r0, [sp, #12]
 8001f38:	f243 30c8 	movw	r0, #13256	; 0x33c8
 8001f3c:	f2c2 0002 	movt	r0, #8194	; 0x2002
 8001f40:	7800      	ldrb	r0, [r0, #0]
 8001f42:	f7ff fbcd 	bl	80016e0 <DS3231_DEC_BCD>
 8001f46:	f88d 000d 	strb.w	r0, [sp, #13]
 8001f4a:	f243 30ca 	movw	r0, #13258	; 0x33ca
 8001f4e:	f2c2 0002 	movt	r0, #8194	; 0x2002
 8001f52:	7800      	ldrb	r0, [r0, #0]
 8001f54:	f7ff fbc4 	bl	80016e0 <DS3231_DEC_BCD>
 8001f58:	f88d 000e 	strb.w	r0, [sp, #14]
 8001f5c:	f243 408a 	movw	r0, #13450	; 0x348a
 8001f60:	f2c2 0002 	movt	r0, #8194	; 0x2002
 8001f64:	7800      	ldrb	r0, [r0, #0]
 8001f66:	f7ff fbbb 	bl	80016e0 <DS3231_DEC_BCD>
 8001f6a:	f88d 000f 	strb.w	r0, [sp, #15]
 8001f6e:	2068      	movs	r0, #104	; 0x68
 8001f70:	2100      	movs	r1, #0
 8001f72:	9101      	str	r1, [sp, #4]
 8001f74:	f10d 0209 	add.w	r2, sp, #9
 8001f78:	2307      	movs	r3, #7
D:\#Documents\UVISION\SMART_WAKE_UP/main.c:233
 8001f7a:	f7ff fcd1 	bl	8001920 <DS3231_WriteMemory>
 8001f7e:	9801      	ldr	r0, [sp, #4]
D:\#Documents\UVISION\SMART_WAKE_UP/main.c:234
 8001f80:	f643 01a1 	movw	r1, #14497	; 0x38a1
 8001f84:	f2c2 0102 	movt	r1, #8194	; 0x2002
 8001f88:	7008      	strb	r0, [r1, #0]
D:\#Documents\UVISION\SMART_WAKE_UP/main.c:235
 8001f8a:	e7ff      	b.n	8001f8c <MAIN_Initialization+0xbc>
D:\#Documents\UVISION\SMART_WAKE_UP/main.c:236
 8001f8c:	b004      	add	sp, #16
 8001f8e:	bd80      	pop	{r7, pc}

08001f90 <MAIN_Settings>:
MAIN_Settings():
D:\#Documents\UVISION\SMART_WAKE_UP/main.c:183
 8001f90:	b580      	push	{r7, lr}
 8001f92:	b082      	sub	sp, #8
D:\#Documents\UVISION\SMART_WAKE_UP/main.c:184
 8001f94:	f643 01a1 	movw	r1, #14497	; 0x38a1
 8001f98:	f2c2 0102 	movt	r1, #8194	; 0x2002
 8001f9c:	2001      	movs	r0, #1
 8001f9e:	7008      	strb	r0, [r1, #0]
D:\#Documents\UVISION\SMART_WAKE_UP/main.c:186
 8001fa0:	f243 4082 	movw	r0, #13442	; 0x3482
 8001fa4:	f2c2 0002 	movt	r0, #8194	; 0x2002
 8001fa8:	7800      	ldrb	r0, [r0, #0]
 8001faa:	b170      	cbz	r0, 8001fca <MAIN_Settings+0x3a>
 8001fac:	e7ff      	b.n	8001fae <MAIN_Settings+0x1e>
D:\#Documents\UVISION\SMART_WAKE_UP/main.c:188
 8001fae:	f643 019c 	movw	r1, #14492	; 0x389c
 8001fb2:	f2c2 0102 	movt	r1, #8194	; 0x2002
 8001fb6:	6808      	ldr	r0, [r1, #0]
 8001fb8:	3001      	adds	r0, #1
 8001fba:	6008      	str	r0, [r1, #0]
D:\#Documents\UVISION\SMART_WAKE_UP/main.c:189
 8001fbc:	f243 4182 	movw	r1, #13442	; 0x3482
 8001fc0:	f2c2 0102 	movt	r1, #8194	; 0x2002
 8001fc4:	2000      	movs	r0, #0
 8001fc6:	7008      	strb	r0, [r1, #0]
D:\#Documents\UVISION\SMART_WAKE_UP/main.c:190
 8001fc8:	e7ff      	b.n	8001fca <MAIN_Settings+0x3a>
D:\#Documents\UVISION\SMART_WAKE_UP/main.c:191
 8001fca:	f243 4081 	movw	r0, #13441	; 0x3481
 8001fce:	f2c2 0002 	movt	r0, #8194	; 0x2002
 8001fd2:	7800      	ldrb	r0, [r0, #0]
 8001fd4:	b170      	cbz	r0, 8001ff4 <MAIN_Settings+0x64>
 8001fd6:	e7ff      	b.n	8001fd8 <MAIN_Settings+0x48>
D:\#Documents\UVISION\SMART_WAKE_UP/main.c:193
 8001fd8:	f643 019c 	movw	r1, #14492	; 0x389c
 8001fdc:	f2c2 0102 	movt	r1, #8194	; 0x2002
 8001fe0:	6808      	ldr	r0, [r1, #0]
 8001fe2:	3801      	subs	r0, #1
 8001fe4:	6008      	str	r0, [r1, #0]
D:\#Documents\UVISION\SMART_WAKE_UP/main.c:194
 8001fe6:	f243 4181 	movw	r1, #13441	; 0x3481
 8001fea:	f2c2 0102 	movt	r1, #8194	; 0x2002
 8001fee:	2000      	movs	r0, #0
 8001ff0:	7008      	strb	r0, [r1, #0]
D:\#Documents\UVISION\SMART_WAKE_UP/main.c:195
 8001ff2:	e7ff      	b.n	8001ff4 <MAIN_Settings+0x64>
D:\#Documents\UVISION\SMART_WAKE_UP/main.c:197
 8001ff4:	f643 009c 	movw	r0, #14492	; 0x389c
 8001ff8:	f2c2 0002 	movt	r0, #8194	; 0x2002
 8001ffc:	6800      	ldr	r0, [r0, #0]
 8001ffe:	2807      	cmp	r0, #7
 8002000:	db07      	blt.n	8002012 <MAIN_Settings+0x82>
 8002002:	e7ff      	b.n	8002004 <MAIN_Settings+0x74>
 8002004:	f643 019c 	movw	r1, #14492	; 0x389c
 8002008:	f2c2 0102 	movt	r1, #8194	; 0x2002
 800200c:	2000      	movs	r0, #0
 800200e:	6008      	str	r0, [r1, #0]
 8002010:	e7ff      	b.n	8002012 <MAIN_Settings+0x82>
D:\#Documents\UVISION\SMART_WAKE_UP/main.c:198
 8002012:	f643 009c 	movw	r0, #14492	; 0x389c
 8002016:	f2c2 0002 	movt	r0, #8194	; 0x2002
 800201a:	6800      	ldr	r0, [r0, #0]
 800201c:	f1b0 3fff 	cmp.w	r0, #4294967295	; 0xffffffff
 8002020:	dc07      	bgt.n	8002032 <MAIN_Settings+0xa2>
 8002022:	e7ff      	b.n	8002024 <MAIN_Settings+0x94>
 8002024:	f643 019c 	movw	r1, #14492	; 0x389c
 8002028:	f2c2 0102 	movt	r1, #8194	; 0x2002
 800202c:	2006      	movs	r0, #6
 800202e:	6008      	str	r0, [r1, #0]
 8002030:	e7ff      	b.n	8002032 <MAIN_Settings+0xa2>
D:\#Documents\UVISION\SMART_WAKE_UP/main.c:200
 8002032:	f643 009c 	movw	r0, #14492	; 0x389c
 8002036:	f2c2 0002 	movt	r0, #8194	; 0x2002
 800203a:	6800      	ldr	r0, [r0, #0]
 800203c:	9001      	str	r0, [sp, #4]
 800203e:	2806      	cmp	r0, #6
 8002040:	d843      	bhi.n	80020ca <MAIN_Settings+0x13a>
 8002042:	9901      	ldr	r1, [sp, #4]
 8002044:	e8df f001 	tbb	[pc, r1]
 8002048:	2b1e1104 	blcs	8786460 <__lcctype_c_end+0x782420>
 800204c:	003e3b38 	eorseq	r3, lr, r8, lsr fp
D:\#Documents\UVISION\SMART_WAKE_UP/main.c:203
 8002050:	f243 4089 	movw	r0, #13449	; 0x3489
 8002054:	f2c2 0002 	movt	r0, #8194	; 0x2002
 8002058:	f643 51f4 	movw	r1, #15860	; 0x3df4
 800205c:	f6c0 0100 	movt	r1, #2048	; 0x800
 8002060:	223b      	movs	r2, #59	; 0x3b
 8002062:	2300      	movs	r3, #0
 8002064:	f000 fd44 	bl	8002af0 <handling>
D:\#Documents\UVISION\SMART_WAKE_UP/main.c:204
 8002068:	e02f      	b.n	80020ca <MAIN_Settings+0x13a>
D:\#Documents\UVISION\SMART_WAKE_UP/main.c:206
 800206a:	f243 4088 	movw	r0, #13448	; 0x3488
 800206e:	f2c2 0002 	movt	r0, #8194	; 0x2002
 8002072:	f643 616d 	movw	r1, #15981	; 0x3e6d
 8002076:	f6c0 0100 	movt	r1, #2048	; 0x800
 800207a:	223b      	movs	r2, #59	; 0x3b
 800207c:	2300      	movs	r3, #0
 800207e:	f000 fd37 	bl	8002af0 <handling>
D:\#Documents\UVISION\SMART_WAKE_UP/main.c:207
 8002082:	e022      	b.n	80020ca <MAIN_Settings+0x13a>
D:\#Documents\UVISION\SMART_WAKE_UP/main.c:209
 8002084:	f243 4087 	movw	r0, #13447	; 0x3487
 8002088:	f2c2 0002 	movt	r0, #8194	; 0x2002
 800208c:	f643 6195 	movw	r1, #16021	; 0x3e95
 8002090:	f6c0 0100 	movt	r1, #2048	; 0x800
 8002094:	2217      	movs	r2, #23
 8002096:	2300      	movs	r3, #0
 8002098:	f000 fd2a 	bl	8002af0 <handling>
D:\#Documents\UVISION\SMART_WAKE_UP/main.c:210
 800209c:	e015      	b.n	80020ca <MAIN_Settings+0x13a>
D:\#Documents\UVISION\SMART_WAKE_UP/main.c:212
 800209e:	f243 30c9 	movw	r0, #13257	; 0x33c9
 80020a2:	f2c2 0002 	movt	r0, #8194	; 0x2002
 80020a6:	f643 51ef 	movw	r1, #15855	; 0x3def
 80020aa:	f6c0 0100 	movt	r1, #2048	; 0x800
 80020ae:	2207      	movs	r2, #7
 80020b0:	2301      	movs	r3, #1
 80020b2:	f000 fd1d 	bl	8002af0 <handling>
D:\#Documents\UVISION\SMART_WAKE_UP/main.c:213
 80020b6:	e008      	b.n	80020ca <MAIN_Settings+0x13a>
D:\#Documents\UVISION\SMART_WAKE_UP/main.c:215
 80020b8:	f000 fd72 	bl	8002ba0 <handlingDay>
D:\#Documents\UVISION\SMART_WAKE_UP/main.c:216
 80020bc:	e005      	b.n	80020ca <MAIN_Settings+0x13a>
D:\#Documents\UVISION\SMART_WAKE_UP/main.c:218
 80020be:	f000 ff9b 	bl	8002ff8 <handlingMonth>
D:\#Documents\UVISION\SMART_WAKE_UP/main.c:219
 80020c2:	e002      	b.n	80020ca <MAIN_Settings+0x13a>
D:\#Documents\UVISION\SMART_WAKE_UP/main.c:221
 80020c4:	f001 f8b4 	bl	8003230 <handlingYear>
D:\#Documents\UVISION\SMART_WAKE_UP/main.c:222
 80020c8:	e7ff      	b.n	80020ca <MAIN_Settings+0x13a>
D:\#Documents\UVISION\SMART_WAKE_UP/main.c:224
 80020ca:	b002      	add	sp, #8
 80020cc:	bd80      	pop	{r7, pc}
	...

080020d0 <SH1106_ClearBuffer>:
SH1106_ClearBuffer():
 80020d0:	b081      	sub	sp, #4
 80020d2:	2000      	movs	r0, #0
 80020d4:	9000      	str	r0, [sp, #0]
 80020d6:	e7ff      	b.n	80020d8 <SH1106_ClearBuffer+0x8>
 80020d8:	9800      	ldr	r0, [sp, #0]
 80020da:	f5b0 6f80 	cmp.w	r0, #1024	; 0x400
 80020de:	da0c      	bge.n	80020fa <SH1106_ClearBuffer+0x2a>
 80020e0:	e7ff      	b.n	80020e2 <SH1106_ClearBuffer+0x12>
 80020e2:	9a00      	ldr	r2, [sp, #0]
 80020e4:	f243 418b 	movw	r1, #13451	; 0x348b
 80020e8:	f2c2 0102 	movt	r1, #8194	; 0x2002
 80020ec:	2000      	movs	r0, #0
 80020ee:	5488      	strb	r0, [r1, r2]
 80020f0:	e7ff      	b.n	80020f2 <SH1106_ClearBuffer+0x22>
 80020f2:	9800      	ldr	r0, [sp, #0]
 80020f4:	3001      	adds	r0, #1
 80020f6:	9000      	str	r0, [sp, #0]
 80020f8:	e7ee      	b.n	80020d8 <SH1106_ClearBuffer+0x8>
 80020fa:	b001      	add	sp, #4
 80020fc:	4770      	bx	lr
	...

08002100 <SH1106_DrawCharacter>:
SH1106_DrawCharacter():
D:\#Documents\UVISION\SMART_WAKE_UP/sh1106.c:243
 8002100:	b5b0      	push	{r4, r5, r7, lr}
 8002102:	b08c      	sub	sp, #48	; 0x30
 8002104:	4694      	mov	ip, r2
 8002106:	468e      	mov	lr, r1
 8002108:	4604      	mov	r4, r0
 800210a:	9812      	ldr	r0, [sp, #72]	; 0x48
 800210c:	9911      	ldr	r1, [sp, #68]	; 0x44
 800210e:	9a10      	ldr	r2, [sp, #64]	; 0x40
 8002110:	f88d 402f 	strb.w	r4, [sp, #47]	; 0x2f
 8002114:	f8ad e02c 	strh.w	lr, [sp, #44]	; 0x2c
 8002118:	f8ad c02a 	strh.w	ip, [sp, #42]	; 0x2a
 800211c:	9309      	str	r3, [sp, #36]	; 0x24
 800211e:	f88d 2023 	strb.w	r2, [sp, #35]	; 0x23
 8002122:	f88d 1022 	strb.w	r1, [sp, #34]	; 0x22
 8002126:	f88d 0021 	strb.w	r0, [sp, #33]	; 0x21
D:\#Documents\UVISION\SMART_WAKE_UP/sh1106.c:244
 800212a:	f89d 0022 	ldrb.w	r0, [sp, #34]	; 0x22
 800212e:	f89d 1023 	ldrb.w	r1, [sp, #35]	; 0x23
 8002132:	2204      	movs	r2, #4
 8002134:	fb10 2001 	smlabb	r0, r0, r1, r2
 8002138:	f8ad 001e 	strh.w	r0, [sp, #30]
D:\#Documents\UVISION\SMART_WAKE_UP/sh1106.c:245
 800213c:	9809      	ldr	r0, [sp, #36]	; 0x24
 800213e:	f8bd 101e 	ldrh.w	r1, [sp, #30]
 8002142:	5c40      	ldrb	r0, [r0, r1]
 8002144:	f88d 001d 	strb.w	r0, [sp, #29]
 8002148:	2000      	movs	r0, #0
D:\#Documents\UVISION\SMART_WAKE_UP/sh1106.c:247
 800214a:	9006      	str	r0, [sp, #24]
 800214c:	e7ff      	b.n	800214e <SH1106_DrawCharacter+0x4e>
 800214e:	9806      	ldr	r0, [sp, #24]
 8002150:	f89d 101d 	ldrb.w	r1, [sp, #29]
 8002154:	4288      	cmp	r0, r1
 8002156:	da58      	bge.n	800220a <SH1106_DrawCharacter+0x10a>
 8002158:	e7ff      	b.n	800215a <SH1106_DrawCharacter+0x5a>
 800215a:	2000      	movs	r0, #0
D:\#Documents\UVISION\SMART_WAKE_UP/sh1106.c:249
 800215c:	9005      	str	r0, [sp, #20]
 800215e:	e7ff      	b.n	8002160 <SH1106_DrawCharacter+0x60>
 8002160:	9805      	ldr	r0, [sp, #20]
 8002162:	f89d 1021 	ldrb.w	r1, [sp, #33]	; 0x21
 8002166:	4288      	cmp	r0, r1
 8002168:	da4a      	bge.n	8002200 <SH1106_DrawCharacter+0x100>
 800216a:	e7ff      	b.n	800216c <SH1106_DrawCharacter+0x6c>
D:\#Documents\UVISION\SMART_WAKE_UP/sh1106.c:251
 800216c:	f89d 0022 	ldrb.w	r0, [sp, #34]	; 0x22
 8002170:	f89d 1023 	ldrb.w	r1, [sp, #35]	; 0x23
 8002174:	9a05      	ldr	r2, [sp, #20]
 8002176:	fb10 2201 	smlabb	r2, r0, r1, r2
 800217a:	f89d 0021 	ldrb.w	r0, [sp, #33]	; 0x21
 800217e:	9906      	ldr	r1, [sp, #24]
 8002180:	fb00 2001 	mla	r0, r0, r1, r2
 8002184:	3005      	adds	r0, #5
 8002186:	f8ad 0012 	strh.w	r0, [sp, #18]
D:\#Documents\UVISION\SMART_WAKE_UP/sh1106.c:252
 800218a:	9809      	ldr	r0, [sp, #36]	; 0x24
 800218c:	f8bd 1012 	ldrh.w	r1, [sp, #18]
 8002190:	5c40      	ldrb	r0, [r0, r1]
 8002192:	f88d 0011 	strb.w	r0, [sp, #17]
 8002196:	2000      	movs	r0, #0
D:\#Documents\UVISION\SMART_WAKE_UP/sh1106.c:253
 8002198:	9003      	str	r0, [sp, #12]
 800219a:	e7ff      	b.n	800219c <SH1106_DrawCharacter+0x9c>
 800219c:	9803      	ldr	r0, [sp, #12]
 800219e:	2807      	cmp	r0, #7
 80021a0:	dc29      	bgt.n	80021f6 <SH1106_DrawCharacter+0xf6>
 80021a2:	e7ff      	b.n	80021a4 <SH1106_DrawCharacter+0xa4>
D:\#Documents\UVISION\SMART_WAKE_UP/sh1106.c:255
 80021a4:	f89d 0011 	ldrb.w	r0, [sp, #17]
 80021a8:	9903      	ldr	r1, [sp, #12]
 80021aa:	40c8      	lsrs	r0, r1
 80021ac:	f000 0001 	and.w	r0, r0, #1
 80021b0:	f88d 000b 	strb.w	r0, [sp, #11]
D:\#Documents\UVISION\SMART_WAKE_UP/sh1106.c:256
 80021b4:	f8bd 002c 	ldrh.w	r0, [sp, #44]	; 0x2c
 80021b8:	9906      	ldr	r1, [sp, #24]
 80021ba:	4408      	add	r0, r1
 80021bc:	f8ad 0008 	strh.w	r0, [sp, #8]
D:\#Documents\UVISION\SMART_WAKE_UP/sh1106.c:257
 80021c0:	f8bd 002a 	ldrh.w	r0, [sp, #42]	; 0x2a
 80021c4:	9903      	ldr	r1, [sp, #12]
 80021c6:	9a05      	ldr	r2, [sp, #20]
 80021c8:	eb01 01c2 	add.w	r1, r1, r2, lsl #3
 80021cc:	4408      	add	r0, r1
 80021ce:	f8ad 0006 	strh.w	r0, [sp, #6]
D:\#Documents\UVISION\SMART_WAKE_UP/sh1106.c:258
 80021d2:	f89d 000b 	ldrb.w	r0, [sp, #11]
 80021d6:	b148      	cbz	r0, 80021ec <SH1106_DrawCharacter+0xec>
 80021d8:	e7ff      	b.n	80021da <SH1106_DrawCharacter+0xda>
 80021da:	f89d 002f 	ldrb.w	r0, [sp, #47]	; 0x2f
 80021de:	f9bd 1008 	ldrsh.w	r1, [sp, #8]
 80021e2:	f9bd 2006 	ldrsh.w	r2, [sp, #6]
 80021e6:	f000 fa1f 	bl	8002628 <SH1106_SetPixel>
 80021ea:	e7ff      	b.n	80021ec <SH1106_DrawCharacter+0xec>
D:\#Documents\UVISION\SMART_WAKE_UP/sh1106.c:259
 80021ec:	e7ff      	b.n	80021ee <SH1106_DrawCharacter+0xee>
D:\#Documents\UVISION\SMART_WAKE_UP/sh1106.c:253
 80021ee:	9803      	ldr	r0, [sp, #12]
 80021f0:	3001      	adds	r0, #1
 80021f2:	9003      	str	r0, [sp, #12]
 80021f4:	e7d2      	b.n	800219c <SH1106_DrawCharacter+0x9c>
D:\#Documents\UVISION\SMART_WAKE_UP/sh1106.c:260
 80021f6:	e7ff      	b.n	80021f8 <SH1106_DrawCharacter+0xf8>
D:\#Documents\UVISION\SMART_WAKE_UP/sh1106.c:249
 80021f8:	9805      	ldr	r0, [sp, #20]
 80021fa:	3001      	adds	r0, #1
 80021fc:	9005      	str	r0, [sp, #20]
 80021fe:	e7af      	b.n	8002160 <SH1106_DrawCharacter+0x60>
D:\#Documents\UVISION\SMART_WAKE_UP/sh1106.c:261
 8002200:	e7ff      	b.n	8002202 <SH1106_DrawCharacter+0x102>
D:\#Documents\UVISION\SMART_WAKE_UP/sh1106.c:247
 8002202:	9806      	ldr	r0, [sp, #24]
 8002204:	3001      	adds	r0, #1
 8002206:	9006      	str	r0, [sp, #24]
 8002208:	e7a1      	b.n	800214e <SH1106_DrawCharacter+0x4e>
D:\#Documents\UVISION\SMART_WAKE_UP/sh1106.c:262
 800220a:	b00c      	add	sp, #48	; 0x30
 800220c:	bdb0      	pop	{r4, r5, r7, pc}
	...

08002210 <SH1106_DrawLine>:
SH1106_DrawLine():
D:\#Documents\UVISION\SMART_WAKE_UP/sh1106.c:315
 8002210:	b580      	push	{r7, lr}
 8002212:	b08c      	sub	sp, #48	; 0x30
 8002214:	4684      	mov	ip, r0
 8002216:	980e      	ldr	r0, [sp, #56]	; 0x38
 8002218:	f88d c02f 	strb.w	ip, [sp, #47]	; 0x2f
 800221c:	f88d 102e 	strb.w	r1, [sp, #46]	; 0x2e
 8002220:	f88d 202d 	strb.w	r2, [sp, #45]	; 0x2d
 8002224:	f88d 302c 	strb.w	r3, [sp, #44]	; 0x2c
 8002228:	f88d 002b 	strb.w	r0, [sp, #43]	; 0x2b
D:\#Documents\UVISION\SMART_WAKE_UP/sh1106.c:316
 800222c:	f89d 002c 	ldrb.w	r0, [sp, #44]	; 0x2c
 8002230:	f89d 102e 	ldrb.w	r1, [sp, #46]	; 0x2e
 8002234:	4288      	cmp	r0, r1
 8002236:	db07      	blt.n	8002248 <SH1106_DrawLine+0x38>
 8002238:	e7ff      	b.n	800223a <SH1106_DrawLine+0x2a>
 800223a:	f89d 002c 	ldrb.w	r0, [sp, #44]	; 0x2c
 800223e:	f89d 102e 	ldrb.w	r1, [sp, #46]	; 0x2e
 8002242:	1a40      	subs	r0, r0, r1
 8002244:	9003      	str	r0, [sp, #12]
 8002246:	e006      	b.n	8002256 <SH1106_DrawLine+0x46>
 8002248:	f89d 002e 	ldrb.w	r0, [sp, #46]	; 0x2e
 800224c:	f89d 102c 	ldrb.w	r1, [sp, #44]	; 0x2c
 8002250:	1a40      	subs	r0, r0, r1
 8002252:	9003      	str	r0, [sp, #12]
 8002254:	e7ff      	b.n	8002256 <SH1106_DrawLine+0x46>
 8002256:	9803      	ldr	r0, [sp, #12]
 8002258:	9009      	str	r0, [sp, #36]	; 0x24
D:\#Documents\UVISION\SMART_WAKE_UP/sh1106.c:317
 800225a:	f89d 002b 	ldrb.w	r0, [sp, #43]	; 0x2b
 800225e:	f89d 102d 	ldrb.w	r1, [sp, #45]	; 0x2d
 8002262:	4288      	cmp	r0, r1
 8002264:	db07      	blt.n	8002276 <SH1106_DrawLine+0x66>
 8002266:	e7ff      	b.n	8002268 <SH1106_DrawLine+0x58>
 8002268:	f89d 002b 	ldrb.w	r0, [sp, #43]	; 0x2b
 800226c:	f89d 102d 	ldrb.w	r1, [sp, #45]	; 0x2d
 8002270:	1a40      	subs	r0, r0, r1
 8002272:	9002      	str	r0, [sp, #8]
 8002274:	e006      	b.n	8002284 <SH1106_DrawLine+0x74>
 8002276:	f89d 002d 	ldrb.w	r0, [sp, #45]	; 0x2d
 800227a:	f89d 102b 	ldrb.w	r1, [sp, #43]	; 0x2b
 800227e:	1a40      	subs	r0, r0, r1
 8002280:	9002      	str	r0, [sp, #8]
 8002282:	e7ff      	b.n	8002284 <SH1106_DrawLine+0x74>
 8002284:	9802      	ldr	r0, [sp, #8]
 8002286:	9008      	str	r0, [sp, #32]
D:\#Documents\UVISION\SMART_WAKE_UP/sh1106.c:318
 8002288:	f89d 102e 	ldrb.w	r1, [sp, #46]	; 0x2e
 800228c:	f89d 202c 	ldrb.w	r2, [sp, #44]	; 0x2c
 8002290:	f04f 30ff 	mov.w	r0, #4294967295	; 0xffffffff
 8002294:	4291      	cmp	r1, r2
 8002296:	4601      	mov	r1, r0
 8002298:	bfb8      	it	lt
 800229a:	2101      	movlt	r1, #1
 800229c:	9107      	str	r1, [sp, #28]
D:\#Documents\UVISION\SMART_WAKE_UP/sh1106.c:319
 800229e:	f89d 102d 	ldrb.w	r1, [sp, #45]	; 0x2d
 80022a2:	f89d 202b 	ldrb.w	r2, [sp, #43]	; 0x2b
 80022a6:	4291      	cmp	r1, r2
 80022a8:	bfb8      	it	lt
 80022aa:	2001      	movlt	r0, #1
 80022ac:	9006      	str	r0, [sp, #24]
D:\#Documents\UVISION\SMART_WAKE_UP/sh1106.c:320
 80022ae:	9809      	ldr	r0, [sp, #36]	; 0x24
 80022b0:	9908      	ldr	r1, [sp, #32]
 80022b2:	1a40      	subs	r0, r0, r1
 80022b4:	9005      	str	r0, [sp, #20]
D:\#Documents\UVISION\SMART_WAKE_UP/sh1106.c:322
 80022b6:	e7ff      	b.n	80022b8 <SH1106_DrawLine+0xa8>
 80022b8:	f89d 102e 	ldrb.w	r1, [sp, #46]	; 0x2e
 80022bc:	f89d 202c 	ldrb.w	r2, [sp, #44]	; 0x2c
 80022c0:	2001      	movs	r0, #1
 80022c2:	4291      	cmp	r1, r2
 80022c4:	9001      	str	r0, [sp, #4]
 80022c6:	d109      	bne.n	80022dc <SH1106_DrawLine+0xcc>
 80022c8:	e7ff      	b.n	80022ca <SH1106_DrawLine+0xba>
 80022ca:	f89d 002d 	ldrb.w	r0, [sp, #45]	; 0x2d
 80022ce:	f89d 102b 	ldrb.w	r1, [sp, #43]	; 0x2b
 80022d2:	1a40      	subs	r0, r0, r1
 80022d4:	bf18      	it	ne
 80022d6:	2001      	movne	r0, #1
 80022d8:	9001      	str	r0, [sp, #4]
 80022da:	e7ff      	b.n	80022dc <SH1106_DrawLine+0xcc>
 80022dc:	9801      	ldr	r0, [sp, #4]
 80022de:	07c0      	lsls	r0, r0, #31
 80022e0:	b360      	cbz	r0, 800233c <SH1106_DrawLine+0x12c>
 80022e2:	e7ff      	b.n	80022e4 <SH1106_DrawLine+0xd4>
D:\#Documents\UVISION\SMART_WAKE_UP/sh1106.c:324
 80022e4:	f89d 002f 	ldrb.w	r0, [sp, #47]	; 0x2f
 80022e8:	f89d 102e 	ldrb.w	r1, [sp, #46]	; 0x2e
 80022ec:	f89d 202d 	ldrb.w	r2, [sp, #45]	; 0x2d
 80022f0:	f000 f99a 	bl	8002628 <SH1106_SetPixel>
D:\#Documents\UVISION\SMART_WAKE_UP/sh1106.c:326
 80022f4:	9805      	ldr	r0, [sp, #20]
 80022f6:	0040      	lsls	r0, r0, #1
 80022f8:	9004      	str	r0, [sp, #16]
D:\#Documents\UVISION\SMART_WAKE_UP/sh1106.c:328
 80022fa:	9804      	ldr	r0, [sp, #16]
 80022fc:	9908      	ldr	r1, [sp, #32]
 80022fe:	4288      	cmp	r0, r1
 8002300:	db0b      	blt.n	800231a <SH1106_DrawLine+0x10a>
 8002302:	e7ff      	b.n	8002304 <SH1106_DrawLine+0xf4>
D:\#Documents\UVISION\SMART_WAKE_UP/sh1106.c:330
 8002304:	9908      	ldr	r1, [sp, #32]
 8002306:	9805      	ldr	r0, [sp, #20]
 8002308:	4408      	add	r0, r1
 800230a:	9005      	str	r0, [sp, #20]
D:\#Documents\UVISION\SMART_WAKE_UP/sh1106.c:331
 800230c:	9907      	ldr	r1, [sp, #28]
 800230e:	f89d 002e 	ldrb.w	r0, [sp, #46]	; 0x2e
 8002312:	4408      	add	r0, r1
 8002314:	f88d 002e 	strb.w	r0, [sp, #46]	; 0x2e
D:\#Documents\UVISION\SMART_WAKE_UP/sh1106.c:332
 8002318:	e7ff      	b.n	800231a <SH1106_DrawLine+0x10a>
D:\#Documents\UVISION\SMART_WAKE_UP/sh1106.c:334
 800231a:	9804      	ldr	r0, [sp, #16]
 800231c:	9909      	ldr	r1, [sp, #36]	; 0x24
 800231e:	4288      	cmp	r0, r1
 8002320:	dc0b      	bgt.n	800233a <SH1106_DrawLine+0x12a>
 8002322:	e7ff      	b.n	8002324 <SH1106_DrawLine+0x114>
D:\#Documents\UVISION\SMART_WAKE_UP/sh1106.c:336
 8002324:	9909      	ldr	r1, [sp, #36]	; 0x24
 8002326:	9805      	ldr	r0, [sp, #20]
 8002328:	4408      	add	r0, r1
 800232a:	9005      	str	r0, [sp, #20]
D:\#Documents\UVISION\SMART_WAKE_UP/sh1106.c:337
 800232c:	9906      	ldr	r1, [sp, #24]
 800232e:	f89d 002d 	ldrb.w	r0, [sp, #45]	; 0x2d
 8002332:	4408      	add	r0, r1
 8002334:	f88d 002d 	strb.w	r0, [sp, #45]	; 0x2d
D:\#Documents\UVISION\SMART_WAKE_UP/sh1106.c:338
 8002338:	e7ff      	b.n	800233a <SH1106_DrawLine+0x12a>
D:\#Documents\UVISION\SMART_WAKE_UP/sh1106.c:322
 800233a:	e7bd      	b.n	80022b8 <SH1106_DrawLine+0xa8>
D:\#Documents\UVISION\SMART_WAKE_UP/sh1106.c:340
 800233c:	b00c      	add	sp, #48	; 0x30
 800233e:	bd80      	pop	{r7, pc}

08002340 <SH1106_FontPrint>:
SH1106_FontPrint():
D:\#Documents\UVISION\SMART_WAKE_UP/sh1106.c:276
 8002340:	b5b0      	push	{r4, r5, r7, lr}
 8002342:	b09a      	sub	sp, #104	; 0x68
 8002344:	f8dd c078 	ldr.w	ip, [sp, #120]	; 0x78
 8002348:	f88d 0067 	strb.w	r0, [sp, #103]	; 0x67
 800234c:	f8ad 1064 	strh.w	r1, [sp, #100]	; 0x64
 8002350:	f8ad 2062 	strh.w	r2, [sp, #98]	; 0x62
 8002354:	9317      	str	r3, [sp, #92]	; 0x5c
D:\#Documents\UVISION\SMART_WAKE_UP/sh1106.c:277
 8002356:	9817      	ldr	r0, [sp, #92]	; 0x5c
 8002358:	7800      	ldrb	r0, [r0, #0]
 800235a:	f88d 005b 	strb.w	r0, [sp, #91]	; 0x5b
D:\#Documents\UVISION\SMART_WAKE_UP/sh1106.c:278
 800235e:	9817      	ldr	r0, [sp, #92]	; 0x5c
 8002360:	7840      	ldrb	r0, [r0, #1]
 8002362:	f88d 005a 	strb.w	r0, [sp, #90]	; 0x5a
D:\#Documents\UVISION\SMART_WAKE_UP/sh1106.c:279
 8002366:	9817      	ldr	r0, [sp, #92]	; 0x5c
 8002368:	7880      	ldrb	r0, [r0, #2]
 800236a:	f88d 0059 	strb.w	r0, [sp, #89]	; 0x59
D:\#Documents\UVISION\SMART_WAKE_UP/sh1106.c:280
 800236e:	9817      	ldr	r0, [sp, #92]	; 0x5c
 8002370:	78c0      	ldrb	r0, [r0, #3]
 8002372:	f88d 0058 	strb.w	r0, [sp, #88]	; 0x58
 8002376:	a81f      	add	r0, sp, #124	; 0x7c
D:\#Documents\UVISION\SMART_WAKE_UP/sh1106.c:283
 8002378:	9015      	str	r0, [sp, #84]	; 0x54
D:\#Documents\UVISION\SMART_WAKE_UP/sh1106.c:285
 800237a:	991e      	ldr	r1, [sp, #120]	; 0x78
 800237c:	9a15      	ldr	r2, [sp, #84]	; 0x54
 800237e:	f10d 0022 	add.w	r0, sp, #34	; 0x22
 8002382:	9004      	str	r0, [sp, #16]
 8002384:	f7fe f822 	bl	80003cc <vsprintf>
D:\#Documents\UVISION\SMART_WAKE_UP/sh1106.c:288
 8002388:	9804      	ldr	r0, [sp, #16]
 800238a:	9007      	str	r0, [sp, #28]
D:\#Documents\UVISION\SMART_WAKE_UP/sh1106.c:290
 800238c:	e7ff      	b.n	800238e <SH1106_FontPrint+0x4e>
 800238e:	9807      	ldr	r0, [sp, #28]
 8002390:	7801      	ldrb	r1, [r0, #0]
 8002392:	2000      	movs	r0, #0
 8002394:	9003      	str	r0, [sp, #12]
 8002396:	b179      	cbz	r1, 80023b8 <SH1106_FontPrint+0x78>
 8002398:	e7ff      	b.n	800239a <SH1106_FontPrint+0x5a>
 800239a:	f9bd 1064 	ldrsh.w	r1, [sp, #100]	; 0x64
 800239e:	2000      	movs	r0, #0
 80023a0:	297f      	cmp	r1, #127	; 0x7f
 80023a2:	9003      	str	r0, [sp, #12]
 80023a4:	dc08      	bgt.n	80023b8 <SH1106_FontPrint+0x78>
 80023a6:	e7ff      	b.n	80023a8 <SH1106_FontPrint+0x68>
 80023a8:	f9bd 1062 	ldrsh.w	r1, [sp, #98]	; 0x62
 80023ac:	2000      	movs	r0, #0
 80023ae:	2940      	cmp	r1, #64	; 0x40
 80023b0:	bfb8      	it	lt
 80023b2:	2001      	movlt	r0, #1
 80023b4:	9003      	str	r0, [sp, #12]
 80023b6:	e7ff      	b.n	80023b8 <SH1106_FontPrint+0x78>
 80023b8:	9803      	ldr	r0, [sp, #12]
 80023ba:	07c0      	lsls	r0, r0, #31
 80023bc:	2800      	cmp	r0, #0
 80023be:	d04e      	beq.n	800245e <SH1106_FontPrint+0x11e>
 80023c0:	e7ff      	b.n	80023c2 <SH1106_FontPrint+0x82>
D:\#Documents\UVISION\SMART_WAKE_UP/sh1106.c:292
 80023c2:	9807      	ldr	r0, [sp, #28]
 80023c4:	7800      	ldrb	r0, [r0, #0]
 80023c6:	f88d 001b 	strb.w	r0, [sp, #27]
D:\#Documents\UVISION\SMART_WAKE_UP/sh1106.c:293
 80023ca:	f89d 001b 	ldrb.w	r0, [sp, #27]
 80023ce:	281f      	cmp	r0, #31
 80023d0:	db05      	blt.n	80023de <SH1106_FontPrint+0x9e>
 80023d2:	e7ff      	b.n	80023d4 <SH1106_FontPrint+0x94>
 80023d4:	f89d 001b 	ldrb.w	r0, [sp, #27]
 80023d8:	2880      	cmp	r0, #128	; 0x80
 80023da:	db01      	blt.n	80023e0 <SH1106_FontPrint+0xa0>
 80023dc:	e7ff      	b.n	80023de <SH1106_FontPrint+0x9e>
 80023de:	e03e      	b.n	800245e <SH1106_FontPrint+0x11e>
D:\#Documents\UVISION\SMART_WAKE_UP/sh1106.c:295
 80023e0:	f89d 001b 	ldrb.w	r0, [sp, #27]
 80023e4:	3820      	subs	r0, #32
 80023e6:	f88d 001a 	strb.w	r0, [sp, #26]
D:\#Documents\UVISION\SMART_WAKE_UP/sh1106.c:297
 80023ea:	f89d 001a 	ldrb.w	r0, [sp, #26]
 80023ee:	f89d 105b 	ldrb.w	r1, [sp, #91]	; 0x5b
 80023f2:	2204      	movs	r2, #4
 80023f4:	fb10 2001 	smlabb	r0, r0, r1, r2
 80023f8:	f8ad 0018 	strh.w	r0, [sp, #24]
D:\#Documents\UVISION\SMART_WAKE_UP/sh1106.c:298
 80023fc:	9817      	ldr	r0, [sp, #92]	; 0x5c
 80023fe:	f8bd 1018 	ldrh.w	r1, [sp, #24]
 8002402:	5c40      	ldrb	r0, [r0, r1]
 8002404:	f88d 0017 	strb.w	r0, [sp, #23]
D:\#Documents\UVISION\SMART_WAKE_UP/sh1106.c:300
 8002408:	f89d 0067 	ldrb.w	r0, [sp, #103]	; 0x67
 800240c:	f9bd 1064 	ldrsh.w	r1, [sp, #100]	; 0x64
 8002410:	f9bd 2062 	ldrsh.w	r2, [sp, #98]	; 0x62
 8002414:	9b17      	ldr	r3, [sp, #92]	; 0x5c
 8002416:	f89d c05b 	ldrb.w	ip, [sp, #91]	; 0x5b
 800241a:	f89d 401a 	ldrb.w	r4, [sp, #26]
 800241e:	f89d 5058 	ldrb.w	r5, [sp, #88]	; 0x58
 8002422:	46ee      	mov	lr, sp
 8002424:	f8ce 5008 	str.w	r5, [lr, #8]
 8002428:	f8ce 4004 	str.w	r4, [lr, #4]
 800242c:	f8ce c000 	str.w	ip, [lr]
 8002430:	f7ff fe66 	bl	8002100 <SH1106_DrawCharacter>
D:\#Documents\UVISION\SMART_WAKE_UP/sh1106.c:302
 8002434:	f89d 0017 	ldrb.w	r0, [sp, #23]
 8002438:	f89d 105a 	ldrb.w	r1, [sp, #90]	; 0x5a
 800243c:	f64c 42cd 	movw	r2, #52429	; 0xcccd
 8002440:	f6cc 42cc 	movt	r2, #52428	; 0xcccc
 8002444:	fba1 2102 	umull	r2, r1, r1, r2
 8002448:	eb00 01d1 	add.w	r1, r0, r1, lsr #3
 800244c:	f8bd 0064 	ldrh.w	r0, [sp, #100]	; 0x64
 8002450:	4408      	add	r0, r1
 8002452:	f8ad 0064 	strh.w	r0, [sp, #100]	; 0x64
D:\#Documents\UVISION\SMART_WAKE_UP/sh1106.c:303
 8002456:	9807      	ldr	r0, [sp, #28]
 8002458:	3001      	adds	r0, #1
 800245a:	9007      	str	r0, [sp, #28]
D:\#Documents\UVISION\SMART_WAKE_UP/sh1106.c:290
 800245c:	e797      	b.n	800238e <SH1106_FontPrint+0x4e>
D:\#Documents\UVISION\SMART_WAKE_UP/sh1106.c:305
 800245e:	b01a      	add	sp, #104	; 0x68
 8002460:	bdb0      	pop	{r4, r5, r7, pc}
 8002462:	0000      	movs	r0, r0
 8002464:	0000      	movs	r0, r0
	...

08002468 <SH1106_Init>:
SH1106_Init():
D:\#Documents\UVISION\SMART_WAKE_UP/sh1106.c:490
 8002468:	b580      	push	{r7, lr}
 800246a:	b082      	sub	sp, #8
D:\#Documents\UVISION\SMART_WAKE_UP/sh1106.c:491
 800246c:	f000 f934 	bl	80026d8 <SH1106_SpiInit>
 8002470:	20c8      	movs	r0, #200	; 0xc8
D:\#Documents\UVISION\SMART_WAKE_UP/sh1106.c:492
 8002472:	9000      	str	r0, [sp, #0]
 8002474:	f000 fa50 	bl	8002918 <TIM_Wait>
D:\#Documents\UVISION\SMART_WAKE_UP/sh1106.c:493
 8002478:	f000 f83e 	bl	80024f8 <SH1106_Reset>
 800247c:	20ae      	movs	r0, #174	; 0xae
D:\#Documents\UVISION\SMART_WAKE_UP/sh1106.c:494
 800247e:	f000 f88b 	bl	8002598 <SH1106_SendCmd>
 8002482:	20d5      	movs	r0, #213	; 0xd5
 8002484:	2180      	movs	r1, #128	; 0x80
D:\#Documents\UVISION\SMART_WAKE_UP/sh1106.c:495
 8002486:	f000 f8bf 	bl	8002608 <SH1106_SendDoubleCmd>
 800248a:	20a8      	movs	r0, #168	; 0xa8
 800248c:	213f      	movs	r1, #63	; 0x3f
D:\#Documents\UVISION\SMART_WAKE_UP/sh1106.c:496
 800248e:	f000 f8bb 	bl	8002608 <SH1106_SendDoubleCmd>
 8002492:	20d3      	movs	r0, #211	; 0xd3
 8002494:	2100      	movs	r1, #0
D:\#Documents\UVISION\SMART_WAKE_UP/sh1106.c:497
 8002496:	f000 f8b7 	bl	8002608 <SH1106_SendDoubleCmd>
 800249a:	2040      	movs	r0, #64	; 0x40
D:\#Documents\UVISION\SMART_WAKE_UP/sh1106.c:498
 800249c:	9001      	str	r0, [sp, #4]
 800249e:	f000 f87b 	bl	8002598 <SH1106_SendCmd>
 80024a2:	20ad      	movs	r0, #173	; 0xad
 80024a4:	218b      	movs	r1, #139	; 0x8b
D:\#Documents\UVISION\SMART_WAKE_UP/sh1106.c:499
 80024a6:	f000 f8af 	bl	8002608 <SH1106_SendDoubleCmd>
 80024aa:	20a1      	movs	r0, #161	; 0xa1
D:\#Documents\UVISION\SMART_WAKE_UP/sh1106.c:500
 80024ac:	f000 f874 	bl	8002598 <SH1106_SendCmd>
 80024b0:	9800      	ldr	r0, [sp, #0]
D:\#Documents\UVISION\SMART_WAKE_UP/sh1106.c:501
 80024b2:	f000 f871 	bl	8002598 <SH1106_SendCmd>
 80024b6:	20da      	movs	r0, #218	; 0xda
 80024b8:	2112      	movs	r1, #18
D:\#Documents\UVISION\SMART_WAKE_UP/sh1106.c:502
 80024ba:	f000 f8a5 	bl	8002608 <SH1106_SendDoubleCmd>
 80024be:	2081      	movs	r0, #129	; 0x81
 80024c0:	21ff      	movs	r1, #255	; 0xff
D:\#Documents\UVISION\SMART_WAKE_UP/sh1106.c:503
 80024c2:	f000 f8a1 	bl	8002608 <SH1106_SendDoubleCmd>
 80024c6:	20d9      	movs	r0, #217	; 0xd9
 80024c8:	211f      	movs	r1, #31
D:\#Documents\UVISION\SMART_WAKE_UP/sh1106.c:504
 80024ca:	f000 f89d 	bl	8002608 <SH1106_SendDoubleCmd>
 80024ce:	9801      	ldr	r0, [sp, #4]
 80024d0:	2133      	movs	r1, #51	; 0x33
D:\#Documents\UVISION\SMART_WAKE_UP/sh1106.c:505
 80024d2:	f000 f899 	bl	8002608 <SH1106_SendDoubleCmd>
 80024d6:	20a6      	movs	r0, #166	; 0xa6
D:\#Documents\UVISION\SMART_WAKE_UP/sh1106.c:506
 80024d8:	f000 f85e 	bl	8002598 <SH1106_SendCmd>
 80024dc:	20a4      	movs	r0, #164	; 0xa4
D:\#Documents\UVISION\SMART_WAKE_UP/sh1106.c:507
 80024de:	f000 f85b 	bl	8002598 <SH1106_SendCmd>
 80024e2:	200a      	movs	r0, #10
D:\#Documents\UVISION\SMART_WAKE_UP/sh1106.c:508
 80024e4:	f000 fa18 	bl	8002918 <TIM_Wait>
 80024e8:	20af      	movs	r0, #175	; 0xaf
D:\#Documents\UVISION\SMART_WAKE_UP/sh1106.c:509
 80024ea:	f000 f855 	bl	8002598 <SH1106_SendCmd>
D:\#Documents\UVISION\SMART_WAKE_UP/sh1106.c:510
 80024ee:	b002      	add	sp, #8
 80024f0:	bd80      	pop	{r7, pc}
 80024f2:	0000      	movs	r0, r0
 80024f4:	0000      	movs	r0, r0
	...

080024f8 <SH1106_Reset>:
SH1106_Reset():
D:\#Documents\UVISION\SMART_WAKE_UP/sh1106.c:209
 80024f8:	b580      	push	{r7, lr}
 80024fa:	b084      	sub	sp, #16
 80024fc:	f640 0118 	movw	r1, #2072	; 0x818
 8002500:	f2c4 0102 	movt	r1, #16386	; 0x4002
 8002504:	9102      	str	r1, [sp, #8]
 8002506:	2002      	movs	r0, #2
D:\#Documents\UVISION\SMART_WAKE_UP/sh1106.c:210
 8002508:	9003      	str	r0, [sp, #12]
 800250a:	6008      	str	r0, [r1, #0]
 800250c:	2064      	movs	r0, #100	; 0x64
D:\#Documents\UVISION\SMART_WAKE_UP/sh1106.c:211
 800250e:	9001      	str	r0, [sp, #4]
 8002510:	f000 fa02 	bl	8002918 <TIM_Wait>
 8002514:	9801      	ldr	r0, [sp, #4]
 8002516:	9a02      	ldr	r2, [sp, #8]
 8002518:	f44f 3100 	mov.w	r1, #131072	; 0x20000
D:\#Documents\UVISION\SMART_WAKE_UP/sh1106.c:212
 800251c:	6011      	str	r1, [r2, #0]
D:\#Documents\UVISION\SMART_WAKE_UP/sh1106.c:213
 800251e:	f000 f9fb 	bl	8002918 <TIM_Wait>
 8002522:	9902      	ldr	r1, [sp, #8]
 8002524:	9803      	ldr	r0, [sp, #12]
D:\#Documents\UVISION\SMART_WAKE_UP/sh1106.c:214
 8002526:	6008      	str	r0, [r1, #0]
D:\#Documents\UVISION\SMART_WAKE_UP/sh1106.c:215
 8002528:	b004      	add	sp, #16
 800252a:	bd80      	pop	{r7, pc}
 800252c:	0000      	movs	r0, r0
	...

08002530 <SH1106_SendBuffer>:
SH1106_SendBuffer():
D:\#Documents\UVISION\SMART_WAKE_UP/sh1106.c:188
 8002530:	b580      	push	{r7, lr}
 8002532:	b082      	sub	sp, #8
 8002534:	2000      	movs	r0, #0
D:\#Documents\UVISION\SMART_WAKE_UP/sh1106.c:189
 8002536:	9001      	str	r0, [sp, #4]
 8002538:	e7ff      	b.n	800253a <SH1106_SendBuffer+0xa>
 800253a:	9801      	ldr	r0, [sp, #4]
 800253c:	2807      	cmp	r0, #7
 800253e:	dc27      	bgt.n	8002590 <SH1106_SendBuffer+0x60>
 8002540:	e7ff      	b.n	8002542 <SH1106_SendBuffer+0x12>
D:\#Documents\UVISION\SMART_WAKE_UP/sh1106.c:191
 8002542:	9801      	ldr	r0, [sp, #4]
 8002544:	30b0      	adds	r0, #176	; 0xb0
 8002546:	b2c0      	uxtb	r0, r0
 8002548:	f000 f826 	bl	8002598 <SH1106_SendCmd>
 800254c:	2002      	movs	r0, #2
D:\#Documents\UVISION\SMART_WAKE_UP/sh1106.c:192
 800254e:	f000 f823 	bl	8002598 <SH1106_SendCmd>
 8002552:	2010      	movs	r0, #16
D:\#Documents\UVISION\SMART_WAKE_UP/sh1106.c:193
 8002554:	f000 f820 	bl	8002598 <SH1106_SendCmd>
 8002558:	2000      	movs	r0, #0
D:\#Documents\UVISION\SMART_WAKE_UP/sh1106.c:194
 800255a:	9000      	str	r0, [sp, #0]
 800255c:	e7ff      	b.n	800255e <SH1106_SendBuffer+0x2e>
 800255e:	9800      	ldr	r0, [sp, #0]
 8002560:	287f      	cmp	r0, #127	; 0x7f
 8002562:	dc10      	bgt.n	8002586 <SH1106_SendBuffer+0x56>
 8002564:	e7ff      	b.n	8002566 <SH1106_SendBuffer+0x36>
D:\#Documents\UVISION\SMART_WAKE_UP/sh1106.c:196
 8002566:	9901      	ldr	r1, [sp, #4]
 8002568:	9800      	ldr	r0, [sp, #0]
 800256a:	eb00 11c1 	add.w	r1, r0, r1, lsl #7
 800256e:	f243 408b 	movw	r0, #13451	; 0x348b
 8002572:	f2c2 0002 	movt	r0, #8194	; 0x2002
 8002576:	5c40      	ldrb	r0, [r0, r1]
 8002578:	f000 f82a 	bl	80025d0 <SH1106_SendData>
D:\#Documents\UVISION\SMART_WAKE_UP/sh1106.c:197
 800257c:	e7ff      	b.n	800257e <SH1106_SendBuffer+0x4e>
D:\#Documents\UVISION\SMART_WAKE_UP/sh1106.c:194
 800257e:	9800      	ldr	r0, [sp, #0]
 8002580:	3001      	adds	r0, #1
 8002582:	9000      	str	r0, [sp, #0]
 8002584:	e7eb      	b.n	800255e <SH1106_SendBuffer+0x2e>
D:\#Documents\UVISION\SMART_WAKE_UP/sh1106.c:198
 8002586:	e7ff      	b.n	8002588 <SH1106_SendBuffer+0x58>
D:\#Documents\UVISION\SMART_WAKE_UP/sh1106.c:189
 8002588:	9801      	ldr	r0, [sp, #4]
 800258a:	3001      	adds	r0, #1
 800258c:	9001      	str	r0, [sp, #4]
 800258e:	e7d4      	b.n	800253a <SH1106_SendBuffer+0xa>
D:\#Documents\UVISION\SMART_WAKE_UP/sh1106.c:199
 8002590:	b002      	add	sp, #8
 8002592:	bd80      	pop	{r7, pc}
 8002594:	0000      	movs	r0, r0
	...

08002598 <SH1106_SendCmd>:
SH1106_SendCmd():
D:\#Documents\UVISION\SMART_WAKE_UP/sh1106.c:145
 8002598:	b580      	push	{r7, lr}
 800259a:	b082      	sub	sp, #8
 800259c:	f88d 0007 	strb.w	r0, [sp, #7]
 80025a0:	2118      	movs	r1, #24
 80025a2:	f2c4 0102 	movt	r1, #16386	; 0x4002
 80025a6:	f44f 3080 	mov.w	r0, #65536	; 0x10000
D:\#Documents\UVISION\SMART_WAKE_UP/sh1106.c:146
 80025aa:	6008      	str	r0, [r1, #0]
 80025ac:	f640 0118 	movw	r1, #2072	; 0x818
 80025b0:	f2c4 0102 	movt	r1, #16386	; 0x4002
D:\#Documents\UVISION\SMART_WAKE_UP/sh1106.c:147
 80025b4:	9100      	str	r1, [sp, #0]
 80025b6:	6008      	str	r0, [r1, #0]
D:\#Documents\UVISION\SMART_WAKE_UP/sh1106.c:148
 80025b8:	f89d 0007 	ldrb.w	r0, [sp, #7]
 80025bc:	f000 f900 	bl	80027c0 <SH1106_Spi_Transmit>
 80025c0:	9900      	ldr	r1, [sp, #0]
 80025c2:	2001      	movs	r0, #1
D:\#Documents\UVISION\SMART_WAKE_UP/sh1106.c:149
 80025c4:	6008      	str	r0, [r1, #0]
D:\#Documents\UVISION\SMART_WAKE_UP/sh1106.c:150
 80025c6:	b002      	add	sp, #8
 80025c8:	bd80      	pop	{r7, pc}
 80025ca:	0000      	movs	r0, r0
 80025cc:	0000      	movs	r0, r0
	...

080025d0 <SH1106_SendData>:
SH1106_SendData():
D:\#Documents\UVISION\SMART_WAKE_UP/sh1106.c:173
 80025d0:	b580      	push	{r7, lr}
 80025d2:	b084      	sub	sp, #16
 80025d4:	f88d 000f 	strb.w	r0, [sp, #15]
 80025d8:	2118      	movs	r1, #24
 80025da:	f2c4 0102 	movt	r1, #16386	; 0x4002
 80025de:	2001      	movs	r0, #1
D:\#Documents\UVISION\SMART_WAKE_UP/sh1106.c:174
 80025e0:	9002      	str	r0, [sp, #8]
 80025e2:	6008      	str	r0, [r1, #0]
 80025e4:	f640 0118 	movw	r1, #2072	; 0x818
 80025e8:	f2c4 0102 	movt	r1, #16386	; 0x4002
 80025ec:	9101      	str	r1, [sp, #4]
 80025ee:	f44f 3080 	mov.w	r0, #65536	; 0x10000
D:\#Documents\UVISION\SMART_WAKE_UP/sh1106.c:175
 80025f2:	6008      	str	r0, [r1, #0]
D:\#Documents\UVISION\SMART_WAKE_UP/sh1106.c:176
 80025f4:	f89d 000f 	ldrb.w	r0, [sp, #15]
 80025f8:	f000 f8e2 	bl	80027c0 <SH1106_Spi_Transmit>
 80025fc:	9901      	ldr	r1, [sp, #4]
 80025fe:	9802      	ldr	r0, [sp, #8]
D:\#Documents\UVISION\SMART_WAKE_UP/sh1106.c:177
 8002600:	6008      	str	r0, [r1, #0]
D:\#Documents\UVISION\SMART_WAKE_UP/sh1106.c:178
 8002602:	b004      	add	sp, #16
 8002604:	bd80      	pop	{r7, pc}
	...

08002608 <SH1106_SendDoubleCmd>:
SH1106_SendDoubleCmd():
D:\#Documents\UVISION\SMART_WAKE_UP/sh1106.c:160
 8002608:	b580      	push	{r7, lr}
 800260a:	b082      	sub	sp, #8
 800260c:	f88d 0007 	strb.w	r0, [sp, #7]
 8002610:	f88d 1006 	strb.w	r1, [sp, #6]
D:\#Documents\UVISION\SMART_WAKE_UP/sh1106.c:161
 8002614:	f89d 0007 	ldrb.w	r0, [sp, #7]
 8002618:	f7ff ffbe 	bl	8002598 <SH1106_SendCmd>
D:\#Documents\UVISION\SMART_WAKE_UP/sh1106.c:162
 800261c:	f89d 0006 	ldrb.w	r0, [sp, #6]
 8002620:	f7ff ffba 	bl	8002598 <SH1106_SendCmd>
D:\#Documents\UVISION\SMART_WAKE_UP/sh1106.c:163
 8002624:	b002      	add	sp, #8
 8002626:	bd80      	pop	{r7, pc}

08002628 <SH1106_SetPixel>:
SH1106_SetPixel():
D:\#Documents\UVISION\SMART_WAKE_UP/sh1106.c:225
 8002628:	b083      	sub	sp, #12
 800262a:	f88d 000b 	strb.w	r0, [sp, #11]
 800262e:	f8ad 1008 	strh.w	r1, [sp, #8]
 8002632:	f8ad 2006 	strh.w	r2, [sp, #6]
D:\#Documents\UVISION\SMART_WAKE_UP/sh1106.c:226
 8002636:	f9bd 0008 	ldrsh.w	r0, [sp, #8]
 800263a:	287f      	cmp	r0, #127	; 0x7f
 800263c:	dc10      	bgt.n	8002660 <SH1106_SetPixel+0x38>
 800263e:	e7ff      	b.n	8002640 <SH1106_SetPixel+0x18>
 8002640:	f9bd 0006 	ldrsh.w	r0, [sp, #6]
 8002644:	283f      	cmp	r0, #63	; 0x3f
 8002646:	dc0b      	bgt.n	8002660 <SH1106_SetPixel+0x38>
 8002648:	e7ff      	b.n	800264a <SH1106_SetPixel+0x22>
 800264a:	f9bd 0008 	ldrsh.w	r0, [sp, #8]
 800264e:	2800      	cmp	r0, #0
 8002650:	d406      	bmi.n	8002660 <SH1106_SetPixel+0x38>
 8002652:	e7ff      	b.n	8002654 <SH1106_SetPixel+0x2c>
 8002654:	f9bd 0006 	ldrsh.w	r0, [sp, #6]
 8002658:	f1b0 3fff 	cmp.w	r0, #4294967295	; 0xffffffff
 800265c:	dc01      	bgt.n	8002662 <SH1106_SetPixel+0x3a>
 800265e:	e7ff      	b.n	8002660 <SH1106_SetPixel+0x38>
 8002660:	e037      	b.n	80026d2 <SH1106_SetPixel+0xaa>
D:\#Documents\UVISION\SMART_WAKE_UP/sh1106.c:228
 8002662:	f9bd 0006 	ldrsh.w	r0, [sp, #6]
 8002666:	eb00 7150 	add.w	r1, r0, r0, lsr #29
 800266a:	f06f 0070 	mvn.w	r0, #112	; 0x70
 800266e:	ea00 1001 	and.w	r0, r0, r1, lsl #4
 8002672:	f8bd 1008 	ldrh.w	r1, [sp, #8]
 8002676:	4408      	add	r0, r1
 8002678:	f8ad 0004 	strh.w	r0, [sp, #4]
D:\#Documents\UVISION\SMART_WAKE_UP/sh1106.c:229
 800267c:	f9bd 0006 	ldrsh.w	r0, [sp, #6]
 8002680:	eb00 7150 	add.w	r1, r0, r0, lsr #29
 8002684:	f001 01f8 	and.w	r1, r1, #248	; 0xf8
 8002688:	1a40      	subs	r0, r0, r1
 800268a:	f88d 0003 	strb.w	r0, [sp, #3]
D:\#Documents\UVISION\SMART_WAKE_UP/sh1106.c:231
 800268e:	f89d 000b 	ldrb.w	r0, [sp, #11]
 8002692:	b178      	cbz	r0, 80026b4 <SH1106_SetPixel+0x8c>
 8002694:	e7ff      	b.n	8002696 <SH1106_SetPixel+0x6e>
 8002696:	f89d 1003 	ldrb.w	r1, [sp, #3]
 800269a:	2001      	movs	r0, #1
 800269c:	fa00 f301 	lsl.w	r3, r0, r1
 80026a0:	f8bd 2004 	ldrh.w	r2, [sp, #4]
 80026a4:	f243 418b 	movw	r1, #13451	; 0x348b
 80026a8:	f2c2 0102 	movt	r1, #8194	; 0x2002
 80026ac:	5c88      	ldrb	r0, [r1, r2]
 80026ae:	4318      	orrs	r0, r3
 80026b0:	5488      	strb	r0, [r1, r2]
 80026b2:	e00e      	b.n	80026d2 <SH1106_SetPixel+0xaa>
D:\#Documents\UVISION\SMART_WAKE_UP/sh1106.c:232
 80026b4:	f89d 1003 	ldrb.w	r1, [sp, #3]
 80026b8:	2001      	movs	r0, #1
 80026ba:	fa00 f301 	lsl.w	r3, r0, r1
 80026be:	f8bd 2004 	ldrh.w	r2, [sp, #4]
 80026c2:	f243 418b 	movw	r1, #13451	; 0x348b
 80026c6:	f2c2 0102 	movt	r1, #8194	; 0x2002
 80026ca:	5c88      	ldrb	r0, [r1, r2]
 80026cc:	4398      	bics	r0, r3
 80026ce:	5488      	strb	r0, [r1, r2]
 80026d0:	e7ff      	b.n	80026d2 <SH1106_SetPixel+0xaa>
D:\#Documents\UVISION\SMART_WAKE_UP/sh1106.c:233
 80026d2:	b003      	add	sp, #12
 80026d4:	4770      	bx	lr
	...

080026d8 <SH1106_SpiInit>:
SH1106_SpiInit():
D:\#Documents\UVISION\SMART_WAKE_UP/sh1106.c:58
 80026d8:	f643 0130 	movw	r1, #14384	; 0x3830
 80026dc:	f2c4 0102 	movt	r1, #16386	; 0x4002
D:\#Documents\UVISION\SMART_WAKE_UP/sh1106.c:59
 80026e0:	6808      	ldr	r0, [r1, #0]
 80026e2:	f040 0001 	orr.w	r0, r0, #1
 80026e6:	6008      	str	r0, [r1, #0]
D:\#Documents\UVISION\SMART_WAKE_UP/sh1106.c:60
 80026e8:	6808      	ldr	r0, [r1, #0]
 80026ea:	f040 0004 	orr.w	r0, r0, #4
 80026ee:	6008      	str	r0, [r1, #0]
 80026f0:	2100      	movs	r1, #0
 80026f2:	f2c4 0102 	movt	r1, #16386	; 0x4002
D:\#Documents\UVISION\SMART_WAKE_UP/sh1106.c:63
 80026f6:	6808      	ldr	r0, [r1, #0]
 80026f8:	f040 0001 	orr.w	r0, r0, #1
 80026fc:	6008      	str	r0, [r1, #0]
D:\#Documents\UVISION\SMART_WAKE_UP/sh1106.c:64
 80026fe:	6808      	ldr	r0, [r1, #0]
 8002700:	f020 0002 	bic.w	r0, r0, #2
 8002704:	6008      	str	r0, [r1, #0]
 8002706:	f640 0200 	movw	r2, #2048	; 0x800
 800270a:	f2c4 0202 	movt	r2, #16386	; 0x4002
D:\#Documents\UVISION\SMART_WAKE_UP/sh1106.c:67
 800270e:	6810      	ldr	r0, [r2, #0]
 8002710:	f040 0001 	orr.w	r0, r0, #1
 8002714:	6010      	str	r0, [r2, #0]
D:\#Documents\UVISION\SMART_WAKE_UP/sh1106.c:68
 8002716:	6810      	ldr	r0, [r2, #0]
 8002718:	f020 0002 	bic.w	r0, r0, #2
 800271c:	6010      	str	r0, [r2, #0]
D:\#Documents\UVISION\SMART_WAKE_UP/sh1106.c:71
 800271e:	6810      	ldr	r0, [r2, #0]
 8002720:	f040 0004 	orr.w	r0, r0, #4
 8002724:	6010      	str	r0, [r2, #0]
D:\#Documents\UVISION\SMART_WAKE_UP/sh1106.c:72
 8002726:	6810      	ldr	r0, [r2, #0]
 8002728:	f020 0008 	bic.w	r0, r0, #8
 800272c:	6010      	str	r0, [r2, #0]
D:\#Documents\UVISION\SMART_WAKE_UP/sh1106.c:75
 800272e:	6808      	ldr	r0, [r1, #0]
 8002730:	f440 6000 	orr.w	r0, r0, #2048	; 0x800
 8002734:	6008      	str	r0, [r1, #0]
D:\#Documents\UVISION\SMART_WAKE_UP/sh1106.c:76
 8002736:	6808      	ldr	r0, [r1, #0]
 8002738:	f420 6080 	bic.w	r0, r0, #1024	; 0x400
 800273c:	6008      	str	r0, [r1, #0]
D:\#Documents\UVISION\SMART_WAKE_UP/sh1106.c:79
 800273e:	6808      	ldr	r0, [r1, #0]
 8002740:	f440 4000 	orr.w	r0, r0, #32768	; 0x8000
 8002744:	6008      	str	r0, [r1, #0]
D:\#Documents\UVISION\SMART_WAKE_UP/sh1106.c:80
 8002746:	6808      	ldr	r0, [r1, #0]
 8002748:	f420 4080 	bic.w	r0, r0, #16384	; 0x4000
 800274c:	6008      	str	r0, [r1, #0]
 800274e:	2120      	movs	r1, #32
 8002750:	f2c4 0102 	movt	r1, #16386	; 0x4002
D:\#Documents\UVISION\SMART_WAKE_UP/sh1106.c:82
 8002754:	6808      	ldr	r0, [r1, #0]
 8002756:	f440 00a0 	orr.w	r0, r0, #5242880	; 0x500000
 800275a:	6008      	str	r0, [r1, #0]
D:\#Documents\UVISION\SMART_WAKE_UP/sh1106.c:83
 800275c:	6808      	ldr	r0, [r1, #0]
 800275e:	f040 40a0 	orr.w	r0, r0, #1342177280	; 0x50000000
 8002762:	6008      	str	r0, [r1, #0]
 8002764:	f643 0144 	movw	r1, #14404	; 0x3844
 8002768:	f2c4 0102 	movt	r1, #16386	; 0x4002
D:\#Documents\UVISION\SMART_WAKE_UP/sh1106.c:86
 800276c:	6808      	ldr	r0, [r1, #0]
 800276e:	f440 5080 	orr.w	r0, r0, #4096	; 0x1000
 8002772:	6008      	str	r0, [r1, #0]
 8002774:	f243 0100 	movw	r1, #12288	; 0x3000
 8002778:	f2c4 0101 	movt	r1, #16385	; 0x4001
D:\#Documents\UVISION\SMART_WAKE_UP/sh1106.c:89
 800277c:	6808      	ldr	r0, [r1, #0]
 800277e:	f020 0080 	bic.w	r0, r0, #128	; 0x80
 8002782:	6008      	str	r0, [r1, #0]
D:\#Documents\UVISION\SMART_WAKE_UP/sh1106.c:92
 8002784:	6808      	ldr	r0, [r1, #0]
 8002786:	f040 0004 	orr.w	r0, r0, #4
 800278a:	6008      	str	r0, [r1, #0]
D:\#Documents\UVISION\SMART_WAKE_UP/sh1106.c:96
 800278c:	6808      	ldr	r0, [r1, #0]
 800278e:	f440 7000 	orr.w	r0, r0, #512	; 0x200
 8002792:	6008      	str	r0, [r1, #0]
D:\#Documents\UVISION\SMART_WAKE_UP/sh1106.c:97
 8002794:	6808      	ldr	r0, [r1, #0]
 8002796:	f440 7080 	orr.w	r0, r0, #256	; 0x100
 800279a:	6008      	str	r0, [r1, #0]
D:\#Documents\UVISION\SMART_WAKE_UP/sh1106.c:100
 800279c:	6808      	ldr	r0, [r1, #0]
 800279e:	f020 0001 	bic.w	r0, r0, #1
 80027a2:	6008      	str	r0, [r1, #0]
D:\#Documents\UVISION\SMART_WAKE_UP/sh1106.c:101
 80027a4:	6808      	ldr	r0, [r1, #0]
 80027a6:	f020 0002 	bic.w	r0, r0, #2
 80027aa:	6008      	str	r0, [r1, #0]
D:\#Documents\UVISION\SMART_WAKE_UP/sh1106.c:104
 80027ac:	6808      	ldr	r0, [r1, #0]
 80027ae:	f040 0010 	orr.w	r0, r0, #16
 80027b2:	6008      	str	r0, [r1, #0]
D:\#Documents\UVISION\SMART_WAKE_UP/sh1106.c:107
 80027b4:	6808      	ldr	r0, [r1, #0]
 80027b6:	f040 0040 	orr.w	r0, r0, #64	; 0x40
 80027ba:	6008      	str	r0, [r1, #0]
D:\#Documents\UVISION\SMART_WAKE_UP/sh1106.c:108
 80027bc:	4770      	bx	lr
	...

080027c0 <SH1106_Spi_Transmit>:
SH1106_Spi_Transmit():
D:\#Documents\UVISION\SMART_WAKE_UP/sh1106.c:118
 80027c0:	b081      	sub	sp, #4
 80027c2:	f88d 0003 	strb.w	r0, [sp, #3]
D:\#Documents\UVISION\SMART_WAKE_UP/sh1106.c:120
 80027c6:	e7ff      	b.n	80027c8 <SH1106_Spi_Transmit+0x8>
 80027c8:	f243 0008 	movw	r0, #12296	; 0x3008
 80027cc:	f2c4 0001 	movt	r0, #16385	; 0x4001
 80027d0:	6800      	ldr	r0, [r0, #0]
 80027d2:	0780      	lsls	r0, r0, #30
 80027d4:	2800      	cmp	r0, #0
 80027d6:	d401      	bmi.n	80027dc <SH1106_Spi_Transmit+0x1c>
 80027d8:	e7ff      	b.n	80027da <SH1106_Spi_Transmit+0x1a>
 80027da:	e7f5      	b.n	80027c8 <SH1106_Spi_Transmit+0x8>
D:\#Documents\UVISION\SMART_WAKE_UP/sh1106.c:123
 80027dc:	f89d 0003 	ldrb.w	r0, [sp, #3]
 80027e0:	f243 010c 	movw	r1, #12300	; 0x300c
 80027e4:	f2c4 0101 	movt	r1, #16385	; 0x4001
 80027e8:	7008      	strb	r0, [r1, #0]
D:\#Documents\UVISION\SMART_WAKE_UP/sh1106.c:126
 80027ea:	e7ff      	b.n	80027ec <SH1106_Spi_Transmit+0x2c>
 80027ec:	f243 0008 	movw	r0, #12296	; 0x3008
 80027f0:	f2c4 0001 	movt	r0, #16385	; 0x4001
 80027f4:	6800      	ldr	r0, [r0, #0]
 80027f6:	0780      	lsls	r0, r0, #30
 80027f8:	2800      	cmp	r0, #0
 80027fa:	d401      	bmi.n	8002800 <SH1106_Spi_Transmit+0x40>
 80027fc:	e7ff      	b.n	80027fe <SH1106_Spi_Transmit+0x3e>
 80027fe:	e7f5      	b.n	80027ec <SH1106_Spi_Transmit+0x2c>
D:\#Documents\UVISION\SMART_WAKE_UP/sh1106.c:130
 8002800:	e7ff      	b.n	8002802 <SH1106_Spi_Transmit+0x42>
 8002802:	f243 0008 	movw	r0, #12296	; 0x3008
 8002806:	f2c4 0001 	movt	r0, #16385	; 0x4001
 800280a:	6800      	ldr	r0, [r0, #0]
 800280c:	0600      	lsls	r0, r0, #24
 800280e:	2800      	cmp	r0, #0
 8002810:	d501      	bpl.n	8002816 <SH1106_Spi_Transmit+0x56>
 8002812:	e7ff      	b.n	8002814 <SH1106_Spi_Transmit+0x54>
 8002814:	e7f5      	b.n	8002802 <SH1106_Spi_Transmit+0x42>
 8002816:	f243 000c 	movw	r0, #12300	; 0x300c
 800281a:	f2c4 0001 	movt	r0, #16385	; 0x4001
D:\#Documents\UVISION\SMART_WAKE_UP/sh1106.c:133
 800281e:	6800      	ldr	r0, [r0, #0]
 8002820:	f243 0008 	movw	r0, #12296	; 0x3008
 8002824:	f2c4 0001 	movt	r0, #16385	; 0x4001
D:\#Documents\UVISION\SMART_WAKE_UP/sh1106.c:134
 8002828:	6800      	ldr	r0, [r0, #0]
D:\#Documents\UVISION\SMART_WAKE_UP/sh1106.c:135
 800282a:	b001      	add	sp, #4
 800282c:	4770      	bx	lr
	...

08002830 <SystemInit>:
SystemInit():
D:\#Documents\UVISION\SMART_WAKE_UP/RTE/Device/STM32F767ZITx/system_stm32f7xx.c:152
 8002830:	f64e 5188 	movw	r1, #60808	; 0xed88
 8002834:	f2ce 0100 	movt	r1, #57344	; 0xe000
D:\#Documents\UVISION\SMART_WAKE_UP/RTE/Device/STM32F767ZITx/system_stm32f7xx.c:155
 8002838:	6808      	ldr	r0, [r1, #0]
 800283a:	f440 0070 	orr.w	r0, r0, #15728640	; 0xf00000
 800283e:	6008      	str	r0, [r1, #0]
D:\#Documents\UVISION\SMART_WAKE_UP/RTE/Device/STM32F767ZITx/system_stm32f7xx.c:162
 8002840:	4770      	bx	lr
 8002842:	0000      	movs	r0, r0
 8002844:	0000      	movs	r0, r0
	...

08002848 <TIM2_IRQHandler>:
TIM2_IRQHandler():
D:\#Documents\UVISION\SMART_WAKE_UP/buttons.c:147
 8002848:	2010      	movs	r0, #16
 800284a:	f2c4 0000 	movt	r0, #16384	; 0x4000
D:\#Documents\UVISION\SMART_WAKE_UP/buttons.c:148
 800284e:	6800      	ldr	r0, [r0, #0]
 8002850:	07c0      	lsls	r0, r0, #31
 8002852:	2800      	cmp	r0, #0
 8002854:	d05c      	beq.n	8002910 <TIM2_IRQHandler+0xc8>
 8002856:	e7ff      	b.n	8002858 <TIM2_IRQHandler+0x10>
 8002858:	2110      	movs	r1, #16
 800285a:	f2c4 0100 	movt	r1, #16384	; 0x4000
D:\#Documents\UVISION\SMART_WAKE_UP/buttons.c:150
 800285e:	6808      	ldr	r0, [r1, #0]
 8002860:	f020 0001 	bic.w	r0, r0, #1
 8002864:	6008      	str	r0, [r1, #0]
 8002866:	f640 4010 	movw	r0, #3088	; 0xc10
 800286a:	f2c4 0002 	movt	r0, #16386	; 0x4002
D:\#Documents\UVISION\SMART_WAKE_UP/buttons.c:152
 800286e:	6800      	ldr	r0, [r0, #0]
 8002870:	0500      	lsls	r0, r0, #20
 8002872:	2800      	cmp	r0, #0
 8002874:	d515      	bpl.n	80028a2 <TIM2_IRQHandler+0x5a>
 8002876:	e7ff      	b.n	8002878 <TIM2_IRQHandler+0x30>
 8002878:	f241 0010 	movw	r0, #4112	; 0x1010
 800287c:	f2c4 0002 	movt	r0, #16386	; 0x4002
 8002880:	6800      	ldr	r0, [r0, #0]
 8002882:	0740      	lsls	r0, r0, #29
 8002884:	2800      	cmp	r0, #0
 8002886:	d40c      	bmi.n	80028a2 <TIM2_IRQHandler+0x5a>
 8002888:	e7ff      	b.n	800288a <TIM2_IRQHandler+0x42>
D:\#Documents\UVISION\SMART_WAKE_UP/buttons.c:155
 800288a:	f243 4184 	movw	r1, #13444	; 0x3484
 800288e:	f2c2 0102 	movt	r1, #8194	; 0x2002
 8002892:	2001      	movs	r0, #1
 8002894:	7008      	strb	r0, [r1, #0]
 8002896:	212c      	movs	r1, #44	; 0x2c
 8002898:	f2c4 0100 	movt	r1, #16384	; 0x4000
 800289c:	2063      	movs	r0, #99	; 0x63
D:\#Documents\UVISION\SMART_WAKE_UP/buttons.c:156
 800289e:	6008      	str	r0, [r1, #0]
D:\#Documents\UVISION\SMART_WAKE_UP/buttons.c:157
 80028a0:	e030      	b.n	8002904 <TIM2_IRQHandler+0xbc>
 80028a2:	f241 0010 	movw	r0, #4112	; 0x1010
 80028a6:	f2c4 0002 	movt	r0, #16386	; 0x4002
D:\#Documents\UVISION\SMART_WAKE_UP/buttons.c:158
 80028aa:	6800      	ldr	r0, [r0, #0]
 80028ac:	0740      	lsls	r0, r0, #29
 80028ae:	2800      	cmp	r0, #0
 80028b0:	d515      	bpl.n	80028de <TIM2_IRQHandler+0x96>
 80028b2:	e7ff      	b.n	80028b4 <TIM2_IRQHandler+0x6c>
 80028b4:	f640 4010 	movw	r0, #3088	; 0xc10
 80028b8:	f2c4 0002 	movt	r0, #16386	; 0x4002
 80028bc:	6800      	ldr	r0, [r0, #0]
 80028be:	0500      	lsls	r0, r0, #20
 80028c0:	2800      	cmp	r0, #0
 80028c2:	d40c      	bmi.n	80028de <TIM2_IRQHandler+0x96>
 80028c4:	e7ff      	b.n	80028c6 <TIM2_IRQHandler+0x7e>
D:\#Documents\UVISION\SMART_WAKE_UP/buttons.c:161
 80028c6:	f243 4180 	movw	r1, #13440	; 0x3480
 80028ca:	f2c2 0102 	movt	r1, #8194	; 0x2002
 80028ce:	2001      	movs	r0, #1
 80028d0:	7008      	strb	r0, [r1, #0]
 80028d2:	212c      	movs	r1, #44	; 0x2c
 80028d4:	f2c4 0100 	movt	r1, #16384	; 0x4000
 80028d8:	2063      	movs	r0, #99	; 0x63
D:\#Documents\UVISION\SMART_WAKE_UP/buttons.c:162
 80028da:	6008      	str	r0, [r1, #0]
D:\#Documents\UVISION\SMART_WAKE_UP/buttons.c:163
 80028dc:	e011      	b.n	8002902 <TIM2_IRQHandler+0xba>
 80028de:	212c      	movs	r1, #44	; 0x2c
 80028e0:	f2c4 0100 	movt	r1, #16384	; 0x4000
 80028e4:	f240 30e7 	movw	r0, #999	; 0x3e7
D:\#Documents\UVISION\SMART_WAKE_UP/buttons.c:167
 80028e8:	6008      	str	r0, [r1, #0]
D:\#Documents\UVISION\SMART_WAKE_UP/buttons.c:168
 80028ea:	f243 4184 	movw	r1, #13444	; 0x3484
 80028ee:	f2c2 0102 	movt	r1, #8194	; 0x2002
 80028f2:	2000      	movs	r0, #0
 80028f4:	7008      	strb	r0, [r1, #0]
D:\#Documents\UVISION\SMART_WAKE_UP/buttons.c:169
 80028f6:	f243 4180 	movw	r1, #13440	; 0x3480
 80028fa:	f2c2 0102 	movt	r1, #8194	; 0x2002
 80028fe:	7008      	strb	r0, [r1, #0]
 8002900:	e7ff      	b.n	8002902 <TIM2_IRQHandler+0xba>
 8002902:	e7ff      	b.n	8002904 <TIM2_IRQHandler+0xbc>
 8002904:	2124      	movs	r1, #36	; 0x24
 8002906:	f2c4 0100 	movt	r1, #16384	; 0x4000
 800290a:	2000      	movs	r0, #0
D:\#Documents\UVISION\SMART_WAKE_UP/buttons.c:171
 800290c:	6008      	str	r0, [r1, #0]
D:\#Documents\UVISION\SMART_WAKE_UP/buttons.c:172
 800290e:	e7ff      	b.n	8002910 <TIM2_IRQHandler+0xc8>
D:\#Documents\UVISION\SMART_WAKE_UP/buttons.c:173
 8002910:	4770      	bx	lr
 8002912:	0000      	movs	r0, r0
 8002914:	0000      	movs	r0, r0
	...

08002918 <TIM_Wait>:
TIM_Wait():
D:\#Documents\UVISION\SMART_WAKE_UP/tim.c:13
 8002918:	b082      	sub	sp, #8
 800291a:	9001      	str	r0, [sp, #4]
 800291c:	f24e 0114 	movw	r1, #57364	; 0xe014
 8002920:	f2ce 0100 	movt	r1, #57344	; 0xe000
 8002924:	f643 607f 	movw	r0, #15999	; 0x3e7f
D:\#Documents\UVISION\SMART_WAKE_UP/tim.c:14
 8002928:	6008      	str	r0, [r1, #0]
 800292a:	f24e 0118 	movw	r1, #57368	; 0xe018
 800292e:	f2ce 0100 	movt	r1, #57344	; 0xe000
 8002932:	2000      	movs	r0, #0
D:\#Documents\UVISION\SMART_WAKE_UP/tim.c:15
 8002934:	6008      	str	r0, [r1, #0]
 8002936:	f24e 0210 	movw	r2, #57360	; 0xe010
 800293a:	f2ce 0200 	movt	r2, #57344	; 0xe000
 800293e:	2105      	movs	r1, #5
D:\#Documents\UVISION\SMART_WAKE_UP/tim.c:16
 8002940:	6011      	str	r1, [r2, #0]
D:\#Documents\UVISION\SMART_WAKE_UP/tim.c:17
 8002942:	9000      	str	r0, [sp, #0]
 8002944:	e7ff      	b.n	8002946 <TIM_Wait+0x2e>
 8002946:	9800      	ldr	r0, [sp, #0]
 8002948:	9901      	ldr	r1, [sp, #4]
 800294a:	4288      	cmp	r0, r1
 800294c:	d210      	bcs.n	8002970 <TIM_Wait+0x58>
 800294e:	e7ff      	b.n	8002950 <TIM_Wait+0x38>
 8002950:	e7ff      	b.n	8002952 <TIM_Wait+0x3a>
 8002952:	f24e 0010 	movw	r0, #57360	; 0xe010
 8002956:	f2ce 0000 	movt	r0, #57344	; 0xe000
 800295a:	6800      	ldr	r0, [r0, #0]
 800295c:	03c0      	lsls	r0, r0, #15
 800295e:	2800      	cmp	r0, #0
 8002960:	d401      	bmi.n	8002966 <TIM_Wait+0x4e>
 8002962:	e7ff      	b.n	8002964 <TIM_Wait+0x4c>
 8002964:	e7f5      	b.n	8002952 <TIM_Wait+0x3a>
 8002966:	e7ff      	b.n	8002968 <TIM_Wait+0x50>
 8002968:	9800      	ldr	r0, [sp, #0]
 800296a:	3001      	adds	r0, #1
 800296c:	9000      	str	r0, [sp, #0]
 800296e:	e7ea      	b.n	8002946 <TIM_Wait+0x2e>
 8002970:	f24e 0110 	movw	r1, #57360	; 0xe010
 8002974:	f2ce 0100 	movt	r1, #57344	; 0xe000
 8002978:	2000      	movs	r0, #0
D:\#Documents\UVISION\SMART_WAKE_UP/tim.c:18
 800297a:	6008      	str	r0, [r1, #0]
D:\#Documents\UVISION\SMART_WAKE_UP/tim.c:19
 800297c:	b002      	add	sp, #8
 800297e:	4770      	bx	lr

08002980 <USART2_IRQHandler>:
USART2_IRQHandler():
D:\#Documents\UVISION\SMART_WAKE_UP/urm37.c:89
 8002980:	b082      	sub	sp, #8
 8002982:	f244 401c 	movw	r0, #17436	; 0x441c
 8002986:	f2c4 0000 	movt	r0, #16384	; 0x4000
D:\#Documents\UVISION\SMART_WAKE_UP/urm37.c:90
 800298a:	6800      	ldr	r0, [r0, #0]
 800298c:	0680      	lsls	r0, r0, #26
 800298e:	2800      	cmp	r0, #0
 8002990:	d56d      	bpl.n	8002a6e <USART2_IRQHandler+0xee>
 8002992:	e7ff      	b.n	8002994 <USART2_IRQHandler+0x14>
 8002994:	f643 0098 	movw	r0, #14488	; 0x3898
 8002998:	f2c2 0002 	movt	r0, #8194	; 0x2002
 800299c:	6800      	ldr	r0, [r0, #0]
 800299e:	2803      	cmp	r0, #3
 80029a0:	dc65      	bgt.n	8002a6e <USART2_IRQHandler+0xee>
 80029a2:	e7ff      	b.n	80029a4 <USART2_IRQHandler+0x24>
 80029a4:	f244 4024 	movw	r0, #17444	; 0x4424
 80029a8:	f2c4 0000 	movt	r0, #16384	; 0x4000
D:\#Documents\UVISION\SMART_WAKE_UP/urm37.c:92
 80029ac:	6801      	ldr	r1, [r0, #0]
 80029ae:	f643 0098 	movw	r0, #14488	; 0x3898
 80029b2:	f2c2 0002 	movt	r0, #8194	; 0x2002
 80029b6:	6803      	ldr	r3, [r0, #0]
 80029b8:	f643 0293 	movw	r2, #14483	; 0x3893
 80029bc:	f2c2 0202 	movt	r2, #8194	; 0x2002
 80029c0:	54d1      	strb	r1, [r2, r3]
D:\#Documents\UVISION\SMART_WAKE_UP/urm37.c:93
 80029c2:	6801      	ldr	r1, [r0, #0]
 80029c4:	3101      	adds	r1, #1
 80029c6:	6001      	str	r1, [r0, #0]
D:\#Documents\UVISION\SMART_WAKE_UP/urm37.c:95
 80029c8:	6800      	ldr	r0, [r0, #0]
 80029ca:	2804      	cmp	r0, #4
 80029cc:	db4e      	blt.n	8002a6c <USART2_IRQHandler+0xec>
 80029ce:	e7ff      	b.n	80029d0 <USART2_IRQHandler+0x50>
D:\#Documents\UVISION\SMART_WAKE_UP/urm37.c:97
 80029d0:	f643 0093 	movw	r0, #14483	; 0x3893
 80029d4:	f2c2 0002 	movt	r0, #8194	; 0x2002
 80029d8:	7800      	ldrb	r0, [r0, #0]
 80029da:	2811      	cmp	r0, #17
 80029dc:	d118      	bne.n	8002a10 <USART2_IRQHandler+0x90>
 80029de:	e7ff      	b.n	80029e0 <USART2_IRQHandler+0x60>
 80029e0:	2000      	movs	r0, #0
 80029e2:	9001      	str	r0, [sp, #4]
 80029e4:	e7ff      	b.n	80029e6 <USART2_IRQHandler+0x66>
 80029e6:	9801      	ldr	r0, [sp, #4]
 80029e8:	2803      	cmp	r0, #3
 80029ea:	dc10      	bgt.n	8002a0e <USART2_IRQHandler+0x8e>
 80029ec:	e7ff      	b.n	80029ee <USART2_IRQHandler+0x6e>
 80029ee:	9a01      	ldr	r2, [sp, #4]
 80029f0:	f643 0093 	movw	r0, #14483	; 0x3893
 80029f4:	f2c2 0002 	movt	r0, #8194	; 0x2002
 80029f8:	5c80      	ldrb	r0, [r0, r2]
 80029fa:	f643 018f 	movw	r1, #14479	; 0x388f
 80029fe:	f2c2 0102 	movt	r1, #8194	; 0x2002
 8002a02:	5488      	strb	r0, [r1, r2]
 8002a04:	e7ff      	b.n	8002a06 <USART2_IRQHandler+0x86>
 8002a06:	9801      	ldr	r0, [sp, #4]
 8002a08:	3001      	adds	r0, #1
 8002a0a:	9001      	str	r0, [sp, #4]
 8002a0c:	e7eb      	b.n	80029e6 <USART2_IRQHandler+0x66>
 8002a0e:	e020      	b.n	8002a52 <USART2_IRQHandler+0xd2>
D:\#Documents\UVISION\SMART_WAKE_UP/urm37.c:98
 8002a10:	f643 0093 	movw	r0, #14483	; 0x3893
 8002a14:	f2c2 0002 	movt	r0, #8194	; 0x2002
 8002a18:	7800      	ldrb	r0, [r0, #0]
 8002a1a:	2822      	cmp	r0, #34	; 0x22
 8002a1c:	d118      	bne.n	8002a50 <USART2_IRQHandler+0xd0>
 8002a1e:	e7ff      	b.n	8002a20 <USART2_IRQHandler+0xa0>
 8002a20:	2000      	movs	r0, #0
 8002a22:	9000      	str	r0, [sp, #0]
 8002a24:	e7ff      	b.n	8002a26 <USART2_IRQHandler+0xa6>
 8002a26:	9800      	ldr	r0, [sp, #0]
 8002a28:	2803      	cmp	r0, #3
 8002a2a:	dc10      	bgt.n	8002a4e <USART2_IRQHandler+0xce>
 8002a2c:	e7ff      	b.n	8002a2e <USART2_IRQHandler+0xae>
 8002a2e:	9a00      	ldr	r2, [sp, #0]
 8002a30:	f643 0093 	movw	r0, #14483	; 0x3893
 8002a34:	f2c2 0002 	movt	r0, #8194	; 0x2002
 8002a38:	5c80      	ldrb	r0, [r0, r2]
 8002a3a:	f643 018b 	movw	r1, #14475	; 0x388b
 8002a3e:	f2c2 0102 	movt	r1, #8194	; 0x2002
 8002a42:	5488      	strb	r0, [r1, r2]
 8002a44:	e7ff      	b.n	8002a46 <USART2_IRQHandler+0xc6>
 8002a46:	9800      	ldr	r0, [sp, #0]
 8002a48:	3001      	adds	r0, #1
 8002a4a:	9000      	str	r0, [sp, #0]
 8002a4c:	e7eb      	b.n	8002a26 <USART2_IRQHandler+0xa6>
 8002a4e:	e7ff      	b.n	8002a50 <USART2_IRQHandler+0xd0>
 8002a50:	e7ff      	b.n	8002a52 <USART2_IRQHandler+0xd2>
D:\#Documents\UVISION\SMART_WAKE_UP/urm37.c:100
 8002a52:	f243 31cb 	movw	r1, #13259	; 0x33cb
 8002a56:	f2c2 0102 	movt	r1, #8194	; 0x2002
 8002a5a:	2001      	movs	r0, #1
 8002a5c:	7008      	strb	r0, [r1, #0]
D:\#Documents\UVISION\SMART_WAKE_UP/urm37.c:101
 8002a5e:	f643 0198 	movw	r1, #14488	; 0x3898
 8002a62:	f2c2 0102 	movt	r1, #8194	; 0x2002
 8002a66:	2000      	movs	r0, #0
 8002a68:	6008      	str	r0, [r1, #0]
D:\#Documents\UVISION\SMART_WAKE_UP/urm37.c:102
 8002a6a:	e7ff      	b.n	8002a6c <USART2_IRQHandler+0xec>
D:\#Documents\UVISION\SMART_WAKE_UP/urm37.c:103
 8002a6c:	e7ff      	b.n	8002a6e <USART2_IRQHandler+0xee>
D:\#Documents\UVISION\SMART_WAKE_UP/urm37.c:104
 8002a6e:	b002      	add	sp, #8
 8002a70:	4770      	bx	lr
 8002a72:	0000      	movs	r0, r0
 8002a74:	0000      	movs	r0, r0
	...

08002a78 <__NVIC_EnableIRQ>:
__NVIC_EnableIRQ():
D:\#Documents\UVISION\SMART_WAKE_UP/D:/SOFT/uVision/Packs/ARM/CMSIS/5.9.0/CMSIS/Core/Include/core_cm7.h:1912
 8002a78:	b081      	sub	sp, #4
 8002a7a:	f88d 0003 	strb.w	r0, [sp, #3]
D:\#Documents\UVISION\SMART_WAKE_UP/D:/SOFT/uVision/Packs/ARM/CMSIS/5.9.0/CMSIS/Core/Include/core_cm7.h:1913
 8002a7e:	f99d 0003 	ldrsb.w	r0, [sp, #3]
 8002a82:	2800      	cmp	r0, #0
 8002a84:	d40e      	bmi.n	8002aa4 <__NVIC_EnableIRQ+0x2c>
 8002a86:	e7ff      	b.n	8002a88 <__NVIC_EnableIRQ+0x10>
D:\#Documents\UVISION\SMART_WAKE_UP/D:/SOFT/uVision/Packs/ARM/CMSIS/5.9.0/CMSIS/Core/Include/core_cm7.h:1916
 8002a88:	f99d 1003 	ldrsb.w	r1, [sp, #3]
 8002a8c:	f001 021f 	and.w	r2, r1, #31
 8002a90:	2001      	movs	r0, #1
 8002a92:	4090      	lsls	r0, r2
 8002a94:	094a      	lsrs	r2, r1, #5
 8002a96:	f24e 1100 	movw	r1, #57600	; 0xe100
 8002a9a:	f2ce 0100 	movt	r1, #57344	; 0xe000
 8002a9e:	f841 0022 	str.w	r0, [r1, r2, lsl #2]
D:\#Documents\UVISION\SMART_WAKE_UP/D:/SOFT/uVision/Packs/ARM/CMSIS/5.9.0/CMSIS/Core/Include/core_cm7.h:1918
 8002aa2:	e7ff      	b.n	8002aa4 <__NVIC_EnableIRQ+0x2c>
D:\#Documents\UVISION\SMART_WAKE_UP/D:/SOFT/uVision/Packs/ARM/CMSIS/5.9.0/CMSIS/Core/Include/core_cm7.h:1919
 8002aa4:	b001      	add	sp, #4
 8002aa6:	4770      	bx	lr

08002aa8 <__NVIC_SetPriority>:
__NVIC_SetPriority():
D:\#Documents\UVISION\SMART_WAKE_UP/D:/SOFT/uVision/Packs/ARM/CMSIS/5.9.0/CMSIS/Core/Include/core_cm7.h:2042
 8002aa8:	b082      	sub	sp, #8
 8002aaa:	f88d 0007 	strb.w	r0, [sp, #7]
 8002aae:	9100      	str	r1, [sp, #0]
D:\#Documents\UVISION\SMART_WAKE_UP/D:/SOFT/uVision/Packs/ARM/CMSIS/5.9.0/CMSIS/Core/Include/core_cm7.h:2043
 8002ab0:	f99d 0007 	ldrsb.w	r0, [sp, #7]
 8002ab4:	2800      	cmp	r0, #0
 8002ab6:	d40a      	bmi.n	8002ace <__NVIC_SetPriority+0x26>
 8002ab8:	e7ff      	b.n	8002aba <__NVIC_SetPriority+0x12>
D:\#Documents\UVISION\SMART_WAKE_UP/D:/SOFT/uVision/Packs/ARM/CMSIS/5.9.0/CMSIS/Core/Include/core_cm7.h:2045
 8002aba:	9800      	ldr	r0, [sp, #0]
 8002abc:	0100      	lsls	r0, r0, #4
 8002abe:	f99d 1007 	ldrsb.w	r1, [sp, #7]
 8002ac2:	f24e 4200 	movw	r2, #58368	; 0xe400
 8002ac6:	f2ce 0200 	movt	r2, #57344	; 0xe000
 8002aca:	5488      	strb	r0, [r1, r2]
D:\#Documents\UVISION\SMART_WAKE_UP/D:/SOFT/uVision/Packs/ARM/CMSIS/5.9.0/CMSIS/Core/Include/core_cm7.h:2046
 8002acc:	e00b      	b.n	8002ae6 <__NVIC_SetPriority+0x3e>
D:\#Documents\UVISION\SMART_WAKE_UP/D:/SOFT/uVision/Packs/ARM/CMSIS/5.9.0/CMSIS/Core/Include/core_cm7.h:2049
 8002ace:	9800      	ldr	r0, [sp, #0]
 8002ad0:	0100      	lsls	r0, r0, #4
 8002ad2:	f89d 1007 	ldrb.w	r1, [sp, #7]
 8002ad6:	f001 010f 	and.w	r1, r1, #15
 8002ada:	f64e 5214 	movw	r2, #60692	; 0xed14
 8002ade:	f2ce 0200 	movt	r2, #57344	; 0xe000
 8002ae2:	5488      	strb	r0, [r1, r2]
 8002ae4:	e7ff      	b.n	8002ae6 <__NVIC_SetPriority+0x3e>
D:\#Documents\UVISION\SMART_WAKE_UP/D:/SOFT/uVision/Packs/ARM/CMSIS/5.9.0/CMSIS/Core/Include/core_cm7.h:2051
 8002ae6:	b002      	add	sp, #8
 8002ae8:	4770      	bx	lr
 8002aea:	0000      	movs	r0, r0
 8002aec:	0000      	movs	r0, r0
	...

08002af0 <handling>:
handling():
D:\#Documents\UVISION\SMART_WAKE_UP/main.c:85
 8002af0:	b580      	push	{r7, lr}
 8002af2:	b088      	sub	sp, #32
 8002af4:	9007      	str	r0, [sp, #28]
 8002af6:	9106      	str	r1, [sp, #24]
 8002af8:	9205      	str	r2, [sp, #20]
 8002afa:	9304      	str	r3, [sp, #16]
D:\#Documents\UVISION\SMART_WAKE_UP/main.c:86
 8002afc:	f243 4084 	movw	r0, #13444	; 0x3484
 8002b00:	f2c2 0002 	movt	r0, #8194	; 0x2002
 8002b04:	7800      	ldrb	r0, [r0, #0]
 8002b06:	b158      	cbz	r0, 8002b20 <handling+0x30>
 8002b08:	e7ff      	b.n	8002b0a <handling+0x1a>
D:\#Documents\UVISION\SMART_WAKE_UP/main.c:88
 8002b0a:	9907      	ldr	r1, [sp, #28]
 8002b0c:	7808      	ldrb	r0, [r1, #0]
 8002b0e:	3001      	adds	r0, #1
 8002b10:	7008      	strb	r0, [r1, #0]
D:\#Documents\UVISION\SMART_WAKE_UP/main.c:89
 8002b12:	f243 4184 	movw	r1, #13444	; 0x3484
 8002b16:	f2c2 0102 	movt	r1, #8194	; 0x2002
 8002b1a:	2000      	movs	r0, #0
 8002b1c:	7008      	strb	r0, [r1, #0]
D:\#Documents\UVISION\SMART_WAKE_UP/main.c:90
 8002b1e:	e7ff      	b.n	8002b20 <handling+0x30>
D:\#Documents\UVISION\SMART_WAKE_UP/main.c:91
 8002b20:	f243 4080 	movw	r0, #13440	; 0x3480
 8002b24:	f2c2 0002 	movt	r0, #8194	; 0x2002
 8002b28:	7800      	ldrb	r0, [r0, #0]
 8002b2a:	b158      	cbz	r0, 8002b44 <handling+0x54>
 8002b2c:	e7ff      	b.n	8002b2e <handling+0x3e>
D:\#Documents\UVISION\SMART_WAKE_UP/main.c:93
 8002b2e:	9907      	ldr	r1, [sp, #28]
 8002b30:	7808      	ldrb	r0, [r1, #0]
 8002b32:	3801      	subs	r0, #1
 8002b34:	7008      	strb	r0, [r1, #0]
D:\#Documents\UVISION\SMART_WAKE_UP/main.c:94
 8002b36:	f243 4180 	movw	r1, #13440	; 0x3480
 8002b3a:	f2c2 0102 	movt	r1, #8194	; 0x2002
 8002b3e:	2000      	movs	r0, #0
 8002b40:	7008      	strb	r0, [r1, #0]
D:\#Documents\UVISION\SMART_WAKE_UP/main.c:95
 8002b42:	e7ff      	b.n	8002b44 <handling+0x54>
D:\#Documents\UVISION\SMART_WAKE_UP/main.c:97
 8002b44:	9807      	ldr	r0, [sp, #28]
 8002b46:	f990 0000 	ldrsb.w	r0, [r0]
 8002b4a:	9905      	ldr	r1, [sp, #20]
 8002b4c:	4288      	cmp	r0, r1
 8002b4e:	dd04      	ble.n	8002b5a <handling+0x6a>
 8002b50:	e7ff      	b.n	8002b52 <handling+0x62>
 8002b52:	9804      	ldr	r0, [sp, #16]
 8002b54:	9907      	ldr	r1, [sp, #28]
 8002b56:	7008      	strb	r0, [r1, #0]
 8002b58:	e7ff      	b.n	8002b5a <handling+0x6a>
D:\#Documents\UVISION\SMART_WAKE_UP/main.c:98
 8002b5a:	9807      	ldr	r0, [sp, #28]
 8002b5c:	f990 0000 	ldrsb.w	r0, [r0]
 8002b60:	9904      	ldr	r1, [sp, #16]
 8002b62:	4288      	cmp	r0, r1
 8002b64:	da04      	bge.n	8002b70 <handling+0x80>
 8002b66:	e7ff      	b.n	8002b68 <handling+0x78>
 8002b68:	9805      	ldr	r0, [sp, #20]
 8002b6a:	9907      	ldr	r1, [sp, #28]
 8002b6c:	7008      	strb	r0, [r1, #0]
 8002b6e:	e7ff      	b.n	8002b70 <handling+0x80>
D:\#Documents\UVISION\SMART_WAKE_UP/main.c:100
 8002b70:	9806      	ldr	r0, [sp, #24]
 8002b72:	9907      	ldr	r1, [sp, #28]
 8002b74:	f991 2000 	ldrsb.w	r2, [r1]
 8002b78:	4669      	mov	r1, sp
 8002b7a:	608a      	str	r2, [r1, #8]
 8002b7c:	6048      	str	r0, [r1, #4]
 8002b7e:	f643 601d 	movw	r0, #15901	; 0x3e1d
 8002b82:	f6c0 0000 	movt	r0, #2048	; 0x800
 8002b86:	6008      	str	r0, [r1, #0]
 8002b88:	f240 0300 	movw	r3, #0
 8002b8c:	f2c2 0302 	movt	r3, #8194	; 0x2002
 8002b90:	2001      	movs	r0, #1
 8002b92:	2100      	movs	r1, #0
 8002b94:	220d      	movs	r2, #13
 8002b96:	f7ff fbd3 	bl	8002340 <SH1106_FontPrint>
D:\#Documents\UVISION\SMART_WAKE_UP/main.c:101
 8002b9a:	b008      	add	sp, #32
 8002b9c:	bd80      	pop	{r7, pc}
	...

08002ba0 <handlingDay>:
handlingDay():
D:\#Documents\UVISION\SMART_WAKE_UP/main.c:104
 8002ba0:	b580      	push	{r7, lr}
 8002ba2:	b084      	sub	sp, #16
D:\#Documents\UVISION\SMART_WAKE_UP/main.c:105
 8002ba4:	f243 408a 	movw	r0, #13450	; 0x348a
 8002ba8:	f2c2 0002 	movt	r0, #8194	; 0x2002
 8002bac:	f990 0000 	ldrsb.w	r0, [r0]
 8002bb0:	eb00 7190 	add.w	r1, r0, r0, lsr #30
 8002bb4:	f021 0103 	bic.w	r1, r1, #3
 8002bb8:	1a40      	subs	r0, r0, r1
 8002bba:	b9d8      	cbnz	r0, 8002bf4 <handlingDay+0x54>
 8002bbc:	e7ff      	b.n	8002bbe <handlingDay+0x1e>
 8002bbe:	f243 408a 	movw	r0, #13450	; 0x348a
 8002bc2:	f2c2 0002 	movt	r0, #8194	; 0x2002
 8002bc6:	f990 1000 	ldrsb.w	r1, [r0]
 8002bca:	2001      	movs	r0, #1
 8002bcc:	f64b 0350 	movw	r3, #47184	; 0xb850
 8002bd0:	f2c0 531e 	movt	r3, #1310	; 0x51e
 8002bd4:	f645 4229 	movw	r2, #23593	; 0x5c29
 8002bd8:	f2cc 228f 	movt	r2, #49807	; 0xc28f
 8002bdc:	fb01 3102 	mla	r1, r1, r2, r3
 8002be0:	ea4f 01b1 	mov.w	r1, r1, ror #2
 8002be4:	f645 4228 	movw	r2, #23592	; 0x5c28
 8002be8:	f2c0 228f 	movt	r2, #655	; 0x28f
 8002bec:	4291      	cmp	r1, r2
 8002bee:	9002      	str	r0, [sp, #8]
 8002bf0:	d81c      	bhi.n	8002c2c <handlingDay+0x8c>
 8002bf2:	e7ff      	b.n	8002bf4 <handlingDay+0x54>
 8002bf4:	f243 408a 	movw	r0, #13450	; 0x348a
 8002bf8:	f2c2 0002 	movt	r0, #8194	; 0x2002
 8002bfc:	f990 0000 	ldrsb.w	r0, [r0]
 8002c00:	f64b 0250 	movw	r2, #47184	; 0xb850
 8002c04:	f2c0 521e 	movt	r2, #1310	; 0x51e
 8002c08:	f645 4129 	movw	r1, #23593	; 0x5c29
 8002c0c:	f2cc 218f 	movt	r1, #49807	; 0xc28f
 8002c10:	fb00 2001 	mla	r0, r0, r1, r2
 8002c14:	ea4f 1130 	mov.w	r1, r0, ror #4
 8002c18:	f24d 720b 	movw	r2, #55051	; 0xd70b
 8002c1c:	f2c0 02a3 	movt	r2, #163	; 0xa3
 8002c20:	2000      	movs	r0, #0
 8002c22:	4291      	cmp	r1, r2
 8002c24:	bf38      	it	cc
 8002c26:	2001      	movcc	r0, #1
 8002c28:	9002      	str	r0, [sp, #8]
 8002c2a:	e7ff      	b.n	8002c2c <handlingDay+0x8c>
 8002c2c:	9802      	ldr	r0, [sp, #8]
 8002c2e:	f000 0001 	and.w	r0, r0, #1
 8002c32:	f88d 000f 	strb.w	r0, [sp, #15]
D:\#Documents\UVISION\SMART_WAKE_UP/main.c:107
 8002c36:	f243 4084 	movw	r0, #13444	; 0x3484
 8002c3a:	f2c2 0002 	movt	r0, #8194	; 0x2002
 8002c3e:	7800      	ldrb	r0, [r0, #0]
 8002c40:	b170      	cbz	r0, 8002c60 <handlingDay+0xc0>
 8002c42:	e7ff      	b.n	8002c44 <handlingDay+0xa4>
D:\#Documents\UVISION\SMART_WAKE_UP/main.c:109
 8002c44:	f243 31c8 	movw	r1, #13256	; 0x33c8
 8002c48:	f2c2 0102 	movt	r1, #8194	; 0x2002
 8002c4c:	7808      	ldrb	r0, [r1, #0]
 8002c4e:	3001      	adds	r0, #1
 8002c50:	7008      	strb	r0, [r1, #0]
D:\#Documents\UVISION\SMART_WAKE_UP/main.c:110
 8002c52:	f243 4184 	movw	r1, #13444	; 0x3484
 8002c56:	f2c2 0102 	movt	r1, #8194	; 0x2002
 8002c5a:	2000      	movs	r0, #0
 8002c5c:	7008      	strb	r0, [r1, #0]
D:\#Documents\UVISION\SMART_WAKE_UP/main.c:111
 8002c5e:	e7ff      	b.n	8002c60 <handlingDay+0xc0>
D:\#Documents\UVISION\SMART_WAKE_UP/main.c:112
 8002c60:	f243 4080 	movw	r0, #13440	; 0x3480
 8002c64:	f2c2 0002 	movt	r0, #8194	; 0x2002
 8002c68:	7800      	ldrb	r0, [r0, #0]
 8002c6a:	b170      	cbz	r0, 8002c8a <handlingDay+0xea>
 8002c6c:	e7ff      	b.n	8002c6e <handlingDay+0xce>
D:\#Documents\UVISION\SMART_WAKE_UP/main.c:114
 8002c6e:	f243 31c8 	movw	r1, #13256	; 0x33c8
 8002c72:	f2c2 0102 	movt	r1, #8194	; 0x2002
 8002c76:	7808      	ldrb	r0, [r1, #0]
 8002c78:	3801      	subs	r0, #1
 8002c7a:	7008      	strb	r0, [r1, #0]
D:\#Documents\UVISION\SMART_WAKE_UP/main.c:115
 8002c7c:	f243 4180 	movw	r1, #13440	; 0x3480
 8002c80:	f2c2 0102 	movt	r1, #8194	; 0x2002
 8002c84:	2000      	movs	r0, #0
 8002c86:	7008      	strb	r0, [r1, #0]
D:\#Documents\UVISION\SMART_WAKE_UP/main.c:116
 8002c88:	e7ff      	b.n	8002c8a <handlingDay+0xea>
D:\#Documents\UVISION\SMART_WAKE_UP/main.c:118
 8002c8a:	f243 30ca 	movw	r0, #13258	; 0x33ca
 8002c8e:	f2c2 0002 	movt	r0, #8194	; 0x2002
 8002c92:	f990 0000 	ldrsb.w	r0, [r0]
 8002c96:	2804      	cmp	r0, #4
 8002c98:	d01b      	beq.n	8002cd2 <handlingDay+0x132>
 8002c9a:	e7ff      	b.n	8002c9c <handlingDay+0xfc>
 8002c9c:	f243 30ca 	movw	r0, #13258	; 0x33ca
 8002ca0:	f2c2 0002 	movt	r0, #8194	; 0x2002
 8002ca4:	f990 0000 	ldrsb.w	r0, [r0]
 8002ca8:	2806      	cmp	r0, #6
 8002caa:	d012      	beq.n	8002cd2 <handlingDay+0x132>
 8002cac:	e7ff      	b.n	8002cae <handlingDay+0x10e>
 8002cae:	f243 30ca 	movw	r0, #13258	; 0x33ca
 8002cb2:	f2c2 0002 	movt	r0, #8194	; 0x2002
 8002cb6:	f990 0000 	ldrsb.w	r0, [r0]
 8002cba:	2809      	cmp	r0, #9
 8002cbc:	d009      	beq.n	8002cd2 <handlingDay+0x132>
 8002cbe:	e7ff      	b.n	8002cc0 <handlingDay+0x120>
 8002cc0:	f243 30ca 	movw	r0, #13258	; 0x33ca
 8002cc4:	f2c2 0002 	movt	r0, #8194	; 0x2002
 8002cc8:	f990 0000 	ldrsb.w	r0, [r0]
 8002ccc:	280b      	cmp	r0, #11
 8002cce:	d110      	bne.n	8002cf2 <handlingDay+0x152>
 8002cd0:	e7ff      	b.n	8002cd2 <handlingDay+0x132>
 8002cd2:	f243 30c8 	movw	r0, #13256	; 0x33c8
 8002cd6:	f2c2 0002 	movt	r0, #8194	; 0x2002
 8002cda:	f990 0000 	ldrsb.w	r0, [r0]
 8002cde:	281f      	cmp	r0, #31
 8002ce0:	db07      	blt.n	8002cf2 <handlingDay+0x152>
 8002ce2:	e7ff      	b.n	8002ce4 <handlingDay+0x144>
 8002ce4:	f243 31c8 	movw	r1, #13256	; 0x33c8
 8002ce8:	f2c2 0102 	movt	r1, #8194	; 0x2002
 8002cec:	2000      	movs	r0, #0
 8002cee:	7008      	strb	r0, [r1, #0]
 8002cf0:	e7ff      	b.n	8002cf2 <handlingDay+0x152>
D:\#Documents\UVISION\SMART_WAKE_UP/main.c:119
 8002cf2:	f243 30ca 	movw	r0, #13258	; 0x33ca
 8002cf6:	f2c2 0002 	movt	r0, #8194	; 0x2002
 8002cfa:	f990 0000 	ldrsb.w	r0, [r0]
 8002cfe:	2804      	cmp	r0, #4
 8002d00:	d01b      	beq.n	8002d3a <handlingDay+0x19a>
 8002d02:	e7ff      	b.n	8002d04 <handlingDay+0x164>
 8002d04:	f243 30ca 	movw	r0, #13258	; 0x33ca
 8002d08:	f2c2 0002 	movt	r0, #8194	; 0x2002
 8002d0c:	f990 0000 	ldrsb.w	r0, [r0]
 8002d10:	2806      	cmp	r0, #6
 8002d12:	d012      	beq.n	8002d3a <handlingDay+0x19a>
 8002d14:	e7ff      	b.n	8002d16 <handlingDay+0x176>
 8002d16:	f243 30ca 	movw	r0, #13258	; 0x33ca
 8002d1a:	f2c2 0002 	movt	r0, #8194	; 0x2002
 8002d1e:	f990 0000 	ldrsb.w	r0, [r0]
 8002d22:	2809      	cmp	r0, #9
 8002d24:	d009      	beq.n	8002d3a <handlingDay+0x19a>
 8002d26:	e7ff      	b.n	8002d28 <handlingDay+0x188>
 8002d28:	f243 30ca 	movw	r0, #13258	; 0x33ca
 8002d2c:	f2c2 0002 	movt	r0, #8194	; 0x2002
 8002d30:	f990 0000 	ldrsb.w	r0, [r0]
 8002d34:	280b      	cmp	r0, #11
 8002d36:	d111      	bne.n	8002d5c <handlingDay+0x1bc>
 8002d38:	e7ff      	b.n	8002d3a <handlingDay+0x19a>
 8002d3a:	f243 30c8 	movw	r0, #13256	; 0x33c8
 8002d3e:	f2c2 0002 	movt	r0, #8194	; 0x2002
 8002d42:	f990 0000 	ldrsb.w	r0, [r0]
 8002d46:	f1b0 3fff 	cmp.w	r0, #4294967295	; 0xffffffff
 8002d4a:	dc07      	bgt.n	8002d5c <handlingDay+0x1bc>
 8002d4c:	e7ff      	b.n	8002d4e <handlingDay+0x1ae>
 8002d4e:	f243 31c8 	movw	r1, #13256	; 0x33c8
 8002d52:	f2c2 0102 	movt	r1, #8194	; 0x2002
 8002d56:	201e      	movs	r0, #30
 8002d58:	7008      	strb	r0, [r1, #0]
 8002d5a:	e7ff      	b.n	8002d5c <handlingDay+0x1bc>
D:\#Documents\UVISION\SMART_WAKE_UP/main.c:120
 8002d5c:	f243 30ca 	movw	r0, #13258	; 0x33ca
 8002d60:	f2c2 0002 	movt	r0, #8194	; 0x2002
 8002d64:	f990 0000 	ldrsb.w	r0, [r0]
 8002d68:	2801      	cmp	r0, #1
 8002d6a:	d02d      	beq.n	8002dc8 <handlingDay+0x228>
 8002d6c:	e7ff      	b.n	8002d6e <handlingDay+0x1ce>
 8002d6e:	f243 30ca 	movw	r0, #13258	; 0x33ca
 8002d72:	f2c2 0002 	movt	r0, #8194	; 0x2002
 8002d76:	f990 0000 	ldrsb.w	r0, [r0]
 8002d7a:	2803      	cmp	r0, #3
 8002d7c:	d024      	beq.n	8002dc8 <handlingDay+0x228>
 8002d7e:	e7ff      	b.n	8002d80 <handlingDay+0x1e0>
 8002d80:	f243 30ca 	movw	r0, #13258	; 0x33ca
 8002d84:	f2c2 0002 	movt	r0, #8194	; 0x2002
 8002d88:	f990 0000 	ldrsb.w	r0, [r0]
 8002d8c:	2805      	cmp	r0, #5
 8002d8e:	d01b      	beq.n	8002dc8 <handlingDay+0x228>
 8002d90:	e7ff      	b.n	8002d92 <handlingDay+0x1f2>
 8002d92:	f243 30ca 	movw	r0, #13258	; 0x33ca
 8002d96:	f2c2 0002 	movt	r0, #8194	; 0x2002
 8002d9a:	f990 0000 	ldrsb.w	r0, [r0]
 8002d9e:	2807      	cmp	r0, #7
 8002da0:	d012      	beq.n	8002dc8 <handlingDay+0x228>
 8002da2:	e7ff      	b.n	8002da4 <handlingDay+0x204>
 8002da4:	f243 30ca 	movw	r0, #13258	; 0x33ca
 8002da8:	f2c2 0002 	movt	r0, #8194	; 0x2002
 8002dac:	f990 0000 	ldrsb.w	r0, [r0]
 8002db0:	2809      	cmp	r0, #9
 8002db2:	d009      	beq.n	8002dc8 <handlingDay+0x228>
 8002db4:	e7ff      	b.n	8002db6 <handlingDay+0x216>
 8002db6:	f243 30ca 	movw	r0, #13258	; 0x33ca
 8002dba:	f2c2 0002 	movt	r0, #8194	; 0x2002
 8002dbe:	f990 0000 	ldrsb.w	r0, [r0]
 8002dc2:	280b      	cmp	r0, #11
 8002dc4:	d110      	bne.n	8002de8 <handlingDay+0x248>
 8002dc6:	e7ff      	b.n	8002dc8 <handlingDay+0x228>
 8002dc8:	f243 30c8 	movw	r0, #13256	; 0x33c8
 8002dcc:	f2c2 0002 	movt	r0, #8194	; 0x2002
 8002dd0:	f990 0000 	ldrsb.w	r0, [r0]
 8002dd4:	2820      	cmp	r0, #32
 8002dd6:	db07      	blt.n	8002de8 <handlingDay+0x248>
 8002dd8:	e7ff      	b.n	8002dda <handlingDay+0x23a>
 8002dda:	f243 31c8 	movw	r1, #13256	; 0x33c8
 8002dde:	f2c2 0102 	movt	r1, #8194	; 0x2002
 8002de2:	2000      	movs	r0, #0
 8002de4:	7008      	strb	r0, [r1, #0]
 8002de6:	e7ff      	b.n	8002de8 <handlingDay+0x248>
D:\#Documents\UVISION\SMART_WAKE_UP/main.c:121
 8002de8:	f243 30ca 	movw	r0, #13258	; 0x33ca
 8002dec:	f2c2 0002 	movt	r0, #8194	; 0x2002
 8002df0:	f990 0000 	ldrsb.w	r0, [r0]
 8002df4:	2801      	cmp	r0, #1
 8002df6:	d02d      	beq.n	8002e54 <handlingDay+0x2b4>
 8002df8:	e7ff      	b.n	8002dfa <handlingDay+0x25a>
 8002dfa:	f243 30ca 	movw	r0, #13258	; 0x33ca
 8002dfe:	f2c2 0002 	movt	r0, #8194	; 0x2002
 8002e02:	f990 0000 	ldrsb.w	r0, [r0]
 8002e06:	2803      	cmp	r0, #3
 8002e08:	d024      	beq.n	8002e54 <handlingDay+0x2b4>
 8002e0a:	e7ff      	b.n	8002e0c <handlingDay+0x26c>
 8002e0c:	f243 30ca 	movw	r0, #13258	; 0x33ca
 8002e10:	f2c2 0002 	movt	r0, #8194	; 0x2002
 8002e14:	f990 0000 	ldrsb.w	r0, [r0]
 8002e18:	2805      	cmp	r0, #5
 8002e1a:	d01b      	beq.n	8002e54 <handlingDay+0x2b4>
 8002e1c:	e7ff      	b.n	8002e1e <handlingDay+0x27e>
 8002e1e:	f243 30ca 	movw	r0, #13258	; 0x33ca
 8002e22:	f2c2 0002 	movt	r0, #8194	; 0x2002
 8002e26:	f990 0000 	ldrsb.w	r0, [r0]
 8002e2a:	2807      	cmp	r0, #7
 8002e2c:	d012      	beq.n	8002e54 <handlingDay+0x2b4>
 8002e2e:	e7ff      	b.n	8002e30 <handlingDay+0x290>
 8002e30:	f243 30ca 	movw	r0, #13258	; 0x33ca
 8002e34:	f2c2 0002 	movt	r0, #8194	; 0x2002
 8002e38:	f990 0000 	ldrsb.w	r0, [r0]
 8002e3c:	2809      	cmp	r0, #9
 8002e3e:	d009      	beq.n	8002e54 <handlingDay+0x2b4>
 8002e40:	e7ff      	b.n	8002e42 <handlingDay+0x2a2>
 8002e42:	f243 30ca 	movw	r0, #13258	; 0x33ca
 8002e46:	f2c2 0002 	movt	r0, #8194	; 0x2002
 8002e4a:	f990 0000 	ldrsb.w	r0, [r0]
 8002e4e:	280b      	cmp	r0, #11
 8002e50:	d111      	bne.n	8002e76 <handlingDay+0x2d6>
 8002e52:	e7ff      	b.n	8002e54 <handlingDay+0x2b4>
 8002e54:	f243 30c8 	movw	r0, #13256	; 0x33c8
 8002e58:	f2c2 0002 	movt	r0, #8194	; 0x2002
 8002e5c:	f990 0000 	ldrsb.w	r0, [r0]
 8002e60:	f1b0 3fff 	cmp.w	r0, #4294967295	; 0xffffffff
 8002e64:	dc07      	bgt.n	8002e76 <handlingDay+0x2d6>
 8002e66:	e7ff      	b.n	8002e68 <handlingDay+0x2c8>
 8002e68:	f243 31c8 	movw	r1, #13256	; 0x33c8
 8002e6c:	f2c2 0102 	movt	r1, #8194	; 0x2002
 8002e70:	201f      	movs	r0, #31
 8002e72:	7008      	strb	r0, [r1, #0]
 8002e74:	e7ff      	b.n	8002e76 <handlingDay+0x2d6>
D:\#Documents\UVISION\SMART_WAKE_UP/main.c:122
 8002e76:	f243 30ca 	movw	r0, #13258	; 0x33ca
 8002e7a:	f2c2 0002 	movt	r0, #8194	; 0x2002
 8002e7e:	f990 0000 	ldrsb.w	r0, [r0]
 8002e82:	2802      	cmp	r0, #2
 8002e84:	d110      	bne.n	8002ea8 <handlingDay+0x308>
 8002e86:	e7ff      	b.n	8002e88 <handlingDay+0x2e8>
 8002e88:	f243 30c8 	movw	r0, #13256	; 0x33c8
 8002e8c:	f2c2 0002 	movt	r0, #8194	; 0x2002
 8002e90:	f990 0000 	ldrsb.w	r0, [r0]
 8002e94:	281d      	cmp	r0, #29
 8002e96:	db07      	blt.n	8002ea8 <handlingDay+0x308>
 8002e98:	e7ff      	b.n	8002e9a <handlingDay+0x2fa>
 8002e9a:	f243 31c8 	movw	r1, #13256	; 0x33c8
 8002e9e:	f2c2 0102 	movt	r1, #8194	; 0x2002
 8002ea2:	2000      	movs	r0, #0
 8002ea4:	7008      	strb	r0, [r1, #0]
 8002ea6:	e7ff      	b.n	8002ea8 <handlingDay+0x308>
D:\#Documents\UVISION\SMART_WAKE_UP/main.c:123
 8002ea8:	f243 30ca 	movw	r0, #13258	; 0x33ca
 8002eac:	f2c2 0002 	movt	r0, #8194	; 0x2002
 8002eb0:	f990 0000 	ldrsb.w	r0, [r0]
 8002eb4:	2802      	cmp	r0, #2
 8002eb6:	d111      	bne.n	8002edc <handlingDay+0x33c>
 8002eb8:	e7ff      	b.n	8002eba <handlingDay+0x31a>
 8002eba:	f243 30c8 	movw	r0, #13256	; 0x33c8
 8002ebe:	f2c2 0002 	movt	r0, #8194	; 0x2002
 8002ec2:	f990 0000 	ldrsb.w	r0, [r0]
 8002ec6:	f1b0 3fff 	cmp.w	r0, #4294967295	; 0xffffffff
 8002eca:	dc07      	bgt.n	8002edc <handlingDay+0x33c>
 8002ecc:	e7ff      	b.n	8002ece <handlingDay+0x32e>
 8002ece:	f243 31c8 	movw	r1, #13256	; 0x33c8
 8002ed2:	f2c2 0102 	movt	r1, #8194	; 0x2002
 8002ed6:	201c      	movs	r0, #28
 8002ed8:	7008      	strb	r0, [r1, #0]
 8002eda:	e7ff      	b.n	8002edc <handlingDay+0x33c>
D:\#Documents\UVISION\SMART_WAKE_UP/main.c:124
 8002edc:	f243 30ca 	movw	r0, #13258	; 0x33ca
 8002ee0:	f2c2 0002 	movt	r0, #8194	; 0x2002
 8002ee4:	f990 0000 	ldrsb.w	r0, [r0]
 8002ee8:	2802      	cmp	r0, #2
 8002eea:	d114      	bne.n	8002f16 <handlingDay+0x376>
 8002eec:	e7ff      	b.n	8002eee <handlingDay+0x34e>
 8002eee:	f89d 000f 	ldrb.w	r0, [sp, #15]
 8002ef2:	b180      	cbz	r0, 8002f16 <handlingDay+0x376>
 8002ef4:	e7ff      	b.n	8002ef6 <handlingDay+0x356>
 8002ef6:	f243 30c8 	movw	r0, #13256	; 0x33c8
 8002efa:	f2c2 0002 	movt	r0, #8194	; 0x2002
 8002efe:	f990 0000 	ldrsb.w	r0, [r0]
 8002f02:	281e      	cmp	r0, #30
 8002f04:	db07      	blt.n	8002f16 <handlingDay+0x376>
 8002f06:	e7ff      	b.n	8002f08 <handlingDay+0x368>
 8002f08:	f243 31c8 	movw	r1, #13256	; 0x33c8
 8002f0c:	f2c2 0102 	movt	r1, #8194	; 0x2002
 8002f10:	2000      	movs	r0, #0
 8002f12:	7008      	strb	r0, [r1, #0]
 8002f14:	e7ff      	b.n	8002f16 <handlingDay+0x376>
D:\#Documents\UVISION\SMART_WAKE_UP/main.c:125
 8002f16:	f243 30ca 	movw	r0, #13258	; 0x33ca
 8002f1a:	f2c2 0002 	movt	r0, #8194	; 0x2002
 8002f1e:	f990 0000 	ldrsb.w	r0, [r0]
 8002f22:	2802      	cmp	r0, #2
 8002f24:	d114      	bne.n	8002f50 <handlingDay+0x3b0>
 8002f26:	e7ff      	b.n	8002f28 <handlingDay+0x388>
 8002f28:	f89d 000f 	ldrb.w	r0, [sp, #15]
 8002f2c:	b980      	cbnz	r0, 8002f50 <handlingDay+0x3b0>
 8002f2e:	e7ff      	b.n	8002f30 <handlingDay+0x390>
 8002f30:	f243 30c8 	movw	r0, #13256	; 0x33c8
 8002f34:	f2c2 0002 	movt	r0, #8194	; 0x2002
 8002f38:	f990 0000 	ldrsb.w	r0, [r0]
 8002f3c:	281d      	cmp	r0, #29
 8002f3e:	db07      	blt.n	8002f50 <handlingDay+0x3b0>
 8002f40:	e7ff      	b.n	8002f42 <handlingDay+0x3a2>
 8002f42:	f243 31c8 	movw	r1, #13256	; 0x33c8
 8002f46:	f2c2 0102 	movt	r1, #8194	; 0x2002
 8002f4a:	2000      	movs	r0, #0
 8002f4c:	7008      	strb	r0, [r1, #0]
 8002f4e:	e7ff      	b.n	8002f50 <handlingDay+0x3b0>
D:\#Documents\UVISION\SMART_WAKE_UP/main.c:126
 8002f50:	f243 30ca 	movw	r0, #13258	; 0x33ca
 8002f54:	f2c2 0002 	movt	r0, #8194	; 0x2002
 8002f58:	f990 0000 	ldrsb.w	r0, [r0]
 8002f5c:	2802      	cmp	r0, #2
 8002f5e:	d115      	bne.n	8002f8c <handlingDay+0x3ec>
 8002f60:	e7ff      	b.n	8002f62 <handlingDay+0x3c2>
 8002f62:	f89d 000f 	ldrb.w	r0, [sp, #15]
 8002f66:	b188      	cbz	r0, 8002f8c <handlingDay+0x3ec>
 8002f68:	e7ff      	b.n	8002f6a <handlingDay+0x3ca>
 8002f6a:	f243 30c8 	movw	r0, #13256	; 0x33c8
 8002f6e:	f2c2 0002 	movt	r0, #8194	; 0x2002
 8002f72:	f990 0000 	ldrsb.w	r0, [r0]
 8002f76:	f1b0 3fff 	cmp.w	r0, #4294967295	; 0xffffffff
 8002f7a:	dc07      	bgt.n	8002f8c <handlingDay+0x3ec>
 8002f7c:	e7ff      	b.n	8002f7e <handlingDay+0x3de>
 8002f7e:	f243 31c8 	movw	r1, #13256	; 0x33c8
 8002f82:	f2c2 0102 	movt	r1, #8194	; 0x2002
 8002f86:	201d      	movs	r0, #29
 8002f88:	7008      	strb	r0, [r1, #0]
 8002f8a:	e7ff      	b.n	8002f8c <handlingDay+0x3ec>
D:\#Documents\UVISION\SMART_WAKE_UP/main.c:127
 8002f8c:	f243 30ca 	movw	r0, #13258	; 0x33ca
 8002f90:	f2c2 0002 	movt	r0, #8194	; 0x2002
 8002f94:	f990 0000 	ldrsb.w	r0, [r0]
 8002f98:	2802      	cmp	r0, #2
 8002f9a:	d115      	bne.n	8002fc8 <handlingDay+0x428>
 8002f9c:	e7ff      	b.n	8002f9e <handlingDay+0x3fe>
 8002f9e:	f89d 000f 	ldrb.w	r0, [sp, #15]
 8002fa2:	b988      	cbnz	r0, 8002fc8 <handlingDay+0x428>
 8002fa4:	e7ff      	b.n	8002fa6 <handlingDay+0x406>
 8002fa6:	f243 30c8 	movw	r0, #13256	; 0x33c8
 8002faa:	f2c2 0002 	movt	r0, #8194	; 0x2002
 8002fae:	f990 0000 	ldrsb.w	r0, [r0]
 8002fb2:	f1b0 3fff 	cmp.w	r0, #4294967295	; 0xffffffff
 8002fb6:	dc07      	bgt.n	8002fc8 <handlingDay+0x428>
 8002fb8:	e7ff      	b.n	8002fba <handlingDay+0x41a>
 8002fba:	f243 31c8 	movw	r1, #13256	; 0x33c8
 8002fbe:	f2c2 0102 	movt	r1, #8194	; 0x2002
 8002fc2:	201c      	movs	r0, #28
 8002fc4:	7008      	strb	r0, [r1, #0]
 8002fc6:	e7ff      	b.n	8002fc8 <handlingDay+0x428>
D:\#Documents\UVISION\SMART_WAKE_UP/main.c:129
 8002fc8:	f243 30c8 	movw	r0, #13256	; 0x33c8
 8002fcc:	f2c2 0002 	movt	r0, #8194	; 0x2002
 8002fd0:	f990 0000 	ldrsb.w	r0, [r0]
 8002fd4:	4669      	mov	r1, sp
 8002fd6:	6048      	str	r0, [r1, #4]
 8002fd8:	f643 602d 	movw	r0, #15917	; 0x3e2d
 8002fdc:	f6c0 0000 	movt	r0, #2048	; 0x800
 8002fe0:	6008      	str	r0, [r1, #0]
 8002fe2:	f240 0300 	movw	r3, #0
 8002fe6:	f2c2 0302 	movt	r3, #8194	; 0x2002
 8002fea:	2001      	movs	r0, #1
 8002fec:	2100      	movs	r1, #0
 8002fee:	220d      	movs	r2, #13
 8002ff0:	f7ff f9a6 	bl	8002340 <SH1106_FontPrint>
D:\#Documents\UVISION\SMART_WAKE_UP/main.c:130
 8002ff4:	b004      	add	sp, #16
 8002ff6:	bd80      	pop	{r7, pc}

08002ff8 <handlingMonth>:
handlingMonth():
D:\#Documents\UVISION\SMART_WAKE_UP/main.c:133
 8002ff8:	b580      	push	{r7, lr}
 8002ffa:	b084      	sub	sp, #16
D:\#Documents\UVISION\SMART_WAKE_UP/main.c:134
 8002ffc:	f243 408a 	movw	r0, #13450	; 0x348a
 8003000:	f2c2 0002 	movt	r0, #8194	; 0x2002
 8003004:	f990 0000 	ldrsb.w	r0, [r0]
 8003008:	eb00 7190 	add.w	r1, r0, r0, lsr #30
 800300c:	f021 0103 	bic.w	r1, r1, #3
 8003010:	1a40      	subs	r0, r0, r1
 8003012:	b9d8      	cbnz	r0, 800304c <handlingMonth+0x54>
 8003014:	e7ff      	b.n	8003016 <handlingMonth+0x1e>
 8003016:	f243 408a 	movw	r0, #13450	; 0x348a
 800301a:	f2c2 0002 	movt	r0, #8194	; 0x2002
 800301e:	f990 1000 	ldrsb.w	r1, [r0]
 8003022:	2001      	movs	r0, #1
 8003024:	f64b 0350 	movw	r3, #47184	; 0xb850
 8003028:	f2c0 531e 	movt	r3, #1310	; 0x51e
 800302c:	f645 4229 	movw	r2, #23593	; 0x5c29
 8003030:	f2cc 228f 	movt	r2, #49807	; 0xc28f
 8003034:	fb01 3102 	mla	r1, r1, r2, r3
 8003038:	ea4f 01b1 	mov.w	r1, r1, ror #2
 800303c:	f645 4228 	movw	r2, #23592	; 0x5c28
 8003040:	f2c0 228f 	movt	r2, #655	; 0x28f
 8003044:	4291      	cmp	r1, r2
 8003046:	9002      	str	r0, [sp, #8]
 8003048:	d81c      	bhi.n	8003084 <handlingMonth+0x8c>
 800304a:	e7ff      	b.n	800304c <handlingMonth+0x54>
 800304c:	f243 408a 	movw	r0, #13450	; 0x348a
 8003050:	f2c2 0002 	movt	r0, #8194	; 0x2002
 8003054:	f990 0000 	ldrsb.w	r0, [r0]
 8003058:	f64b 0250 	movw	r2, #47184	; 0xb850
 800305c:	f2c0 521e 	movt	r2, #1310	; 0x51e
 8003060:	f645 4129 	movw	r1, #23593	; 0x5c29
 8003064:	f2cc 218f 	movt	r1, #49807	; 0xc28f
 8003068:	fb00 2001 	mla	r0, r0, r1, r2
 800306c:	ea4f 1130 	mov.w	r1, r0, ror #4
 8003070:	f24d 720b 	movw	r2, #55051	; 0xd70b
 8003074:	f2c0 02a3 	movt	r2, #163	; 0xa3
 8003078:	2000      	movs	r0, #0
 800307a:	4291      	cmp	r1, r2
 800307c:	bf38      	it	cc
 800307e:	2001      	movcc	r0, #1
 8003080:	9002      	str	r0, [sp, #8]
 8003082:	e7ff      	b.n	8003084 <handlingMonth+0x8c>
 8003084:	9802      	ldr	r0, [sp, #8]
 8003086:	f000 0001 	and.w	r0, r0, #1
 800308a:	f88d 000f 	strb.w	r0, [sp, #15]
D:\#Documents\UVISION\SMART_WAKE_UP/main.c:136
 800308e:	f243 4084 	movw	r0, #13444	; 0x3484
 8003092:	f2c2 0002 	movt	r0, #8194	; 0x2002
 8003096:	7800      	ldrb	r0, [r0, #0]
 8003098:	b170      	cbz	r0, 80030b8 <handlingMonth+0xc0>
 800309a:	e7ff      	b.n	800309c <handlingMonth+0xa4>
D:\#Documents\UVISION\SMART_WAKE_UP/main.c:138
 800309c:	f243 31ca 	movw	r1, #13258	; 0x33ca
 80030a0:	f2c2 0102 	movt	r1, #8194	; 0x2002
 80030a4:	7808      	ldrb	r0, [r1, #0]
 80030a6:	3001      	adds	r0, #1
 80030a8:	7008      	strb	r0, [r1, #0]
D:\#Documents\UVISION\SMART_WAKE_UP/main.c:139
 80030aa:	f243 4184 	movw	r1, #13444	; 0x3484
 80030ae:	f2c2 0102 	movt	r1, #8194	; 0x2002
 80030b2:	2000      	movs	r0, #0
 80030b4:	7008      	strb	r0, [r1, #0]
D:\#Documents\UVISION\SMART_WAKE_UP/main.c:140
 80030b6:	e7ff      	b.n	80030b8 <handlingMonth+0xc0>
D:\#Documents\UVISION\SMART_WAKE_UP/main.c:141
 80030b8:	f243 4080 	movw	r0, #13440	; 0x3480
 80030bc:	f2c2 0002 	movt	r0, #8194	; 0x2002
 80030c0:	7800      	ldrb	r0, [r0, #0]
 80030c2:	b170      	cbz	r0, 80030e2 <handlingMonth+0xea>
 80030c4:	e7ff      	b.n	80030c6 <handlingMonth+0xce>
D:\#Documents\UVISION\SMART_WAKE_UP/main.c:143
 80030c6:	f243 31ca 	movw	r1, #13258	; 0x33ca
 80030ca:	f2c2 0102 	movt	r1, #8194	; 0x2002
 80030ce:	7808      	ldrb	r0, [r1, #0]
 80030d0:	3801      	subs	r0, #1
 80030d2:	7008      	strb	r0, [r1, #0]
D:\#Documents\UVISION\SMART_WAKE_UP/main.c:144
 80030d4:	f243 4180 	movw	r1, #13440	; 0x3480
 80030d8:	f2c2 0102 	movt	r1, #8194	; 0x2002
 80030dc:	2000      	movs	r0, #0
 80030de:	7008      	strb	r0, [r1, #0]
D:\#Documents\UVISION\SMART_WAKE_UP/main.c:145
 80030e0:	e7ff      	b.n	80030e2 <handlingMonth+0xea>
D:\#Documents\UVISION\SMART_WAKE_UP/main.c:147
 80030e2:	f243 30ca 	movw	r0, #13258	; 0x33ca
 80030e6:	f2c2 0002 	movt	r0, #8194	; 0x2002
 80030ea:	f990 0000 	ldrsb.w	r0, [r0]
 80030ee:	280d      	cmp	r0, #13
 80030f0:	db07      	blt.n	8003102 <handlingMonth+0x10a>
 80030f2:	e7ff      	b.n	80030f4 <handlingMonth+0xfc>
 80030f4:	f243 31ca 	movw	r1, #13258	; 0x33ca
 80030f8:	f2c2 0102 	movt	r1, #8194	; 0x2002
 80030fc:	2001      	movs	r0, #1
 80030fe:	7008      	strb	r0, [r1, #0]
 8003100:	e7ff      	b.n	8003102 <handlingMonth+0x10a>
D:\#Documents\UVISION\SMART_WAKE_UP/main.c:148
 8003102:	f243 30ca 	movw	r0, #13258	; 0x33ca
 8003106:	f2c2 0002 	movt	r0, #8194	; 0x2002
 800310a:	f990 0000 	ldrsb.w	r0, [r0]
 800310e:	2800      	cmp	r0, #0
 8003110:	dc07      	bgt.n	8003122 <handlingMonth+0x12a>
 8003112:	e7ff      	b.n	8003114 <handlingMonth+0x11c>
 8003114:	f243 31ca 	movw	r1, #13258	; 0x33ca
 8003118:	f2c2 0102 	movt	r1, #8194	; 0x2002
 800311c:	200c      	movs	r0, #12
 800311e:	7008      	strb	r0, [r1, #0]
 8003120:	e7ff      	b.n	8003122 <handlingMonth+0x12a>
D:\#Documents\UVISION\SMART_WAKE_UP/main.c:150
 8003122:	f243 30ca 	movw	r0, #13258	; 0x33ca
 8003126:	f2c2 0002 	movt	r0, #8194	; 0x2002
 800312a:	f990 0000 	ldrsb.w	r0, [r0]
 800312e:	2804      	cmp	r0, #4
 8003130:	d01b      	beq.n	800316a <handlingMonth+0x172>
 8003132:	e7ff      	b.n	8003134 <handlingMonth+0x13c>
 8003134:	f243 30ca 	movw	r0, #13258	; 0x33ca
 8003138:	f2c2 0002 	movt	r0, #8194	; 0x2002
 800313c:	f990 0000 	ldrsb.w	r0, [r0]
 8003140:	2806      	cmp	r0, #6
 8003142:	d012      	beq.n	800316a <handlingMonth+0x172>
 8003144:	e7ff      	b.n	8003146 <handlingMonth+0x14e>
 8003146:	f243 30ca 	movw	r0, #13258	; 0x33ca
 800314a:	f2c2 0002 	movt	r0, #8194	; 0x2002
 800314e:	f990 0000 	ldrsb.w	r0, [r0]
 8003152:	2809      	cmp	r0, #9
 8003154:	d009      	beq.n	800316a <handlingMonth+0x172>
 8003156:	e7ff      	b.n	8003158 <handlingMonth+0x160>
 8003158:	f243 30ca 	movw	r0, #13258	; 0x33ca
 800315c:	f2c2 0002 	movt	r0, #8194	; 0x2002
 8003160:	f990 0000 	ldrsb.w	r0, [r0]
 8003164:	280b      	cmp	r0, #11
 8003166:	d110      	bne.n	800318a <handlingMonth+0x192>
 8003168:	e7ff      	b.n	800316a <handlingMonth+0x172>
 800316a:	f243 30c8 	movw	r0, #13256	; 0x33c8
 800316e:	f2c2 0002 	movt	r0, #8194	; 0x2002
 8003172:	f990 0000 	ldrsb.w	r0, [r0]
 8003176:	281f      	cmp	r0, #31
 8003178:	db07      	blt.n	800318a <handlingMonth+0x192>
 800317a:	e7ff      	b.n	800317c <handlingMonth+0x184>
 800317c:	f243 31c8 	movw	r1, #13256	; 0x33c8
 8003180:	f2c2 0102 	movt	r1, #8194	; 0x2002
 8003184:	201e      	movs	r0, #30
 8003186:	7008      	strb	r0, [r1, #0]
 8003188:	e7ff      	b.n	800318a <handlingMonth+0x192>
D:\#Documents\UVISION\SMART_WAKE_UP/main.c:152
 800318a:	f243 30ca 	movw	r0, #13258	; 0x33ca
 800318e:	f2c2 0002 	movt	r0, #8194	; 0x2002
 8003192:	f990 0000 	ldrsb.w	r0, [r0]
 8003196:	2802      	cmp	r0, #2
 8003198:	d114      	bne.n	80031c4 <handlingMonth+0x1cc>
 800319a:	e7ff      	b.n	800319c <handlingMonth+0x1a4>
 800319c:	f89d 000f 	ldrb.w	r0, [sp, #15]
 80031a0:	b180      	cbz	r0, 80031c4 <handlingMonth+0x1cc>
 80031a2:	e7ff      	b.n	80031a4 <handlingMonth+0x1ac>
 80031a4:	f243 30c8 	movw	r0, #13256	; 0x33c8
 80031a8:	f2c2 0002 	movt	r0, #8194	; 0x2002
 80031ac:	f990 0000 	ldrsb.w	r0, [r0]
 80031b0:	281e      	cmp	r0, #30
 80031b2:	db07      	blt.n	80031c4 <handlingMonth+0x1cc>
 80031b4:	e7ff      	b.n	80031b6 <handlingMonth+0x1be>
 80031b6:	f243 31c8 	movw	r1, #13256	; 0x33c8
 80031ba:	f2c2 0102 	movt	r1, #8194	; 0x2002
 80031be:	201d      	movs	r0, #29
 80031c0:	7008      	strb	r0, [r1, #0]
 80031c2:	e7ff      	b.n	80031c4 <handlingMonth+0x1cc>
D:\#Documents\UVISION\SMART_WAKE_UP/main.c:153
 80031c4:	f243 30ca 	movw	r0, #13258	; 0x33ca
 80031c8:	f2c2 0002 	movt	r0, #8194	; 0x2002
 80031cc:	f990 0000 	ldrsb.w	r0, [r0]
 80031d0:	2802      	cmp	r0, #2
 80031d2:	d114      	bne.n	80031fe <handlingMonth+0x206>
 80031d4:	e7ff      	b.n	80031d6 <handlingMonth+0x1de>
 80031d6:	f89d 000f 	ldrb.w	r0, [sp, #15]
 80031da:	b980      	cbnz	r0, 80031fe <handlingMonth+0x206>
 80031dc:	e7ff      	b.n	80031de <handlingMonth+0x1e6>
 80031de:	f243 30c8 	movw	r0, #13256	; 0x33c8
 80031e2:	f2c2 0002 	movt	r0, #8194	; 0x2002
 80031e6:	f990 0000 	ldrsb.w	r0, [r0]
 80031ea:	281d      	cmp	r0, #29
 80031ec:	db07      	blt.n	80031fe <handlingMonth+0x206>
 80031ee:	e7ff      	b.n	80031f0 <handlingMonth+0x1f8>
 80031f0:	f243 31c8 	movw	r1, #13256	; 0x33c8
 80031f4:	f2c2 0102 	movt	r1, #8194	; 0x2002
 80031f8:	201c      	movs	r0, #28
 80031fa:	7008      	strb	r0, [r1, #0]
 80031fc:	e7ff      	b.n	80031fe <handlingMonth+0x206>
D:\#Documents\UVISION\SMART_WAKE_UP/main.c:155
 80031fe:	f243 30ca 	movw	r0, #13258	; 0x33ca
 8003202:	f2c2 0002 	movt	r0, #8194	; 0x2002
 8003206:	f990 0000 	ldrsb.w	r0, [r0]
 800320a:	4669      	mov	r1, sp
 800320c:	6048      	str	r0, [r1, #4]
 800320e:	f643 50f8 	movw	r0, #15864	; 0x3df8
 8003212:	f6c0 0000 	movt	r0, #2048	; 0x800
 8003216:	6008      	str	r0, [r1, #0]
 8003218:	f240 0300 	movw	r3, #0
 800321c:	f2c2 0302 	movt	r3, #8194	; 0x2002
 8003220:	2001      	movs	r0, #1
 8003222:	2100      	movs	r1, #0
 8003224:	220d      	movs	r2, #13
 8003226:	f7ff f88b 	bl	8002340 <SH1106_FontPrint>
D:\#Documents\UVISION\SMART_WAKE_UP/main.c:156
 800322a:	b004      	add	sp, #16
 800322c:	bd80      	pop	{r7, pc}
	...

08003230 <handlingYear>:
handlingYear():
D:\#Documents\UVISION\SMART_WAKE_UP/main.c:159
 8003230:	b580      	push	{r7, lr}
 8003232:	b084      	sub	sp, #16
D:\#Documents\UVISION\SMART_WAKE_UP/main.c:160
 8003234:	f243 408a 	movw	r0, #13450	; 0x348a
 8003238:	f2c2 0002 	movt	r0, #8194	; 0x2002
 800323c:	f990 0000 	ldrsb.w	r0, [r0]
 8003240:	eb00 7190 	add.w	r1, r0, r0, lsr #30
 8003244:	f021 0103 	bic.w	r1, r1, #3
 8003248:	1a40      	subs	r0, r0, r1
 800324a:	b9d8      	cbnz	r0, 8003284 <handlingYear+0x54>
 800324c:	e7ff      	b.n	800324e <handlingYear+0x1e>
 800324e:	f243 408a 	movw	r0, #13450	; 0x348a
 8003252:	f2c2 0002 	movt	r0, #8194	; 0x2002
 8003256:	f990 1000 	ldrsb.w	r1, [r0]
 800325a:	2001      	movs	r0, #1
 800325c:	f64b 0350 	movw	r3, #47184	; 0xb850
 8003260:	f2c0 531e 	movt	r3, #1310	; 0x51e
 8003264:	f645 4229 	movw	r2, #23593	; 0x5c29
 8003268:	f2cc 228f 	movt	r2, #49807	; 0xc28f
 800326c:	fb01 3102 	mla	r1, r1, r2, r3
 8003270:	ea4f 01b1 	mov.w	r1, r1, ror #2
 8003274:	f645 4228 	movw	r2, #23592	; 0x5c28
 8003278:	f2c0 228f 	movt	r2, #655	; 0x28f
 800327c:	4291      	cmp	r1, r2
 800327e:	9002      	str	r0, [sp, #8]
 8003280:	d81c      	bhi.n	80032bc <handlingYear+0x8c>
 8003282:	e7ff      	b.n	8003284 <handlingYear+0x54>
 8003284:	f243 408a 	movw	r0, #13450	; 0x348a
 8003288:	f2c2 0002 	movt	r0, #8194	; 0x2002
 800328c:	f990 0000 	ldrsb.w	r0, [r0]
 8003290:	f64b 0250 	movw	r2, #47184	; 0xb850
 8003294:	f2c0 521e 	movt	r2, #1310	; 0x51e
 8003298:	f645 4129 	movw	r1, #23593	; 0x5c29
 800329c:	f2cc 218f 	movt	r1, #49807	; 0xc28f
 80032a0:	fb00 2001 	mla	r0, r0, r1, r2
 80032a4:	ea4f 1130 	mov.w	r1, r0, ror #4
 80032a8:	f24d 720b 	movw	r2, #55051	; 0xd70b
 80032ac:	f2c0 02a3 	movt	r2, #163	; 0xa3
 80032b0:	2000      	movs	r0, #0
 80032b2:	4291      	cmp	r1, r2
 80032b4:	bf38      	it	cc
 80032b6:	2001      	movcc	r0, #1
 80032b8:	9002      	str	r0, [sp, #8]
 80032ba:	e7ff      	b.n	80032bc <handlingYear+0x8c>
 80032bc:	9802      	ldr	r0, [sp, #8]
 80032be:	f000 0001 	and.w	r0, r0, #1
 80032c2:	f88d 000f 	strb.w	r0, [sp, #15]
D:\#Documents\UVISION\SMART_WAKE_UP/main.c:162
 80032c6:	f243 4084 	movw	r0, #13444	; 0x3484
 80032ca:	f2c2 0002 	movt	r0, #8194	; 0x2002
 80032ce:	7800      	ldrb	r0, [r0, #0]
 80032d0:	b170      	cbz	r0, 80032f0 <handlingYear+0xc0>
 80032d2:	e7ff      	b.n	80032d4 <handlingYear+0xa4>
D:\#Documents\UVISION\SMART_WAKE_UP/main.c:164
 80032d4:	f243 418a 	movw	r1, #13450	; 0x348a
 80032d8:	f2c2 0102 	movt	r1, #8194	; 0x2002
 80032dc:	7808      	ldrb	r0, [r1, #0]
 80032de:	3001      	adds	r0, #1
 80032e0:	7008      	strb	r0, [r1, #0]
D:\#Documents\UVISION\SMART_WAKE_UP/main.c:165
 80032e2:	f243 4184 	movw	r1, #13444	; 0x3484
 80032e6:	f2c2 0102 	movt	r1, #8194	; 0x2002
 80032ea:	2000      	movs	r0, #0
 80032ec:	7008      	strb	r0, [r1, #0]
D:\#Documents\UVISION\SMART_WAKE_UP/main.c:166
 80032ee:	e7ff      	b.n	80032f0 <handlingYear+0xc0>
D:\#Documents\UVISION\SMART_WAKE_UP/main.c:167
 80032f0:	f243 4080 	movw	r0, #13440	; 0x3480
 80032f4:	f2c2 0002 	movt	r0, #8194	; 0x2002
 80032f8:	7800      	ldrb	r0, [r0, #0]
 80032fa:	b170      	cbz	r0, 800331a <handlingYear+0xea>
 80032fc:	e7ff      	b.n	80032fe <handlingYear+0xce>
D:\#Documents\UVISION\SMART_WAKE_UP/main.c:169
 80032fe:	f243 418a 	movw	r1, #13450	; 0x348a
 8003302:	f2c2 0102 	movt	r1, #8194	; 0x2002
 8003306:	7808      	ldrb	r0, [r1, #0]
 8003308:	3801      	subs	r0, #1
 800330a:	7008      	strb	r0, [r1, #0]
D:\#Documents\UVISION\SMART_WAKE_UP/main.c:170
 800330c:	f243 4180 	movw	r1, #13440	; 0x3480
 8003310:	f2c2 0102 	movt	r1, #8194	; 0x2002
 8003314:	2000      	movs	r0, #0
 8003316:	7008      	strb	r0, [r1, #0]
D:\#Documents\UVISION\SMART_WAKE_UP/main.c:171
 8003318:	e7ff      	b.n	800331a <handlingYear+0xea>
D:\#Documents\UVISION\SMART_WAKE_UP/main.c:173
 800331a:	f243 408a 	movw	r0, #13450	; 0x348a
 800331e:	f2c2 0002 	movt	r0, #8194	; 0x2002
 8003322:	f990 0000 	ldrsb.w	r0, [r0]
 8003326:	2864      	cmp	r0, #100	; 0x64
 8003328:	db07      	blt.n	800333a <handlingYear+0x10a>
 800332a:	e7ff      	b.n	800332c <handlingYear+0xfc>
 800332c:	f243 418a 	movw	r1, #13450	; 0x348a
 8003330:	f2c2 0102 	movt	r1, #8194	; 0x2002
 8003334:	2000      	movs	r0, #0
 8003336:	7008      	strb	r0, [r1, #0]
 8003338:	e7ff      	b.n	800333a <handlingYear+0x10a>
D:\#Documents\UVISION\SMART_WAKE_UP/main.c:174
 800333a:	f243 408a 	movw	r0, #13450	; 0x348a
 800333e:	f2c2 0002 	movt	r0, #8194	; 0x2002
 8003342:	f990 0000 	ldrsb.w	r0, [r0]
 8003346:	f1b0 3fff 	cmp.w	r0, #4294967295	; 0xffffffff
 800334a:	dc07      	bgt.n	800335c <handlingYear+0x12c>
 800334c:	e7ff      	b.n	800334e <handlingYear+0x11e>
 800334e:	f243 418a 	movw	r1, #13450	; 0x348a
 8003352:	f2c2 0102 	movt	r1, #8194	; 0x2002
 8003356:	2063      	movs	r0, #99	; 0x63
 8003358:	7008      	strb	r0, [r1, #0]
 800335a:	e7ff      	b.n	800335c <handlingYear+0x12c>
D:\#Documents\UVISION\SMART_WAKE_UP/main.c:176
 800335c:	f243 30ca 	movw	r0, #13258	; 0x33ca
 8003360:	f2c2 0002 	movt	r0, #8194	; 0x2002
 8003364:	f990 0000 	ldrsb.w	r0, [r0]
 8003368:	2802      	cmp	r0, #2
 800336a:	d114      	bne.n	8003396 <handlingYear+0x166>
 800336c:	e7ff      	b.n	800336e <handlingYear+0x13e>
 800336e:	f89d 000f 	ldrb.w	r0, [sp, #15]
 8003372:	b180      	cbz	r0, 8003396 <handlingYear+0x166>
 8003374:	e7ff      	b.n	8003376 <handlingYear+0x146>
 8003376:	f243 30c8 	movw	r0, #13256	; 0x33c8
 800337a:	f2c2 0002 	movt	r0, #8194	; 0x2002
 800337e:	f990 0000 	ldrsb.w	r0, [r0]
 8003382:	281e      	cmp	r0, #30
 8003384:	db07      	blt.n	8003396 <handlingYear+0x166>
 8003386:	e7ff      	b.n	8003388 <handlingYear+0x158>
 8003388:	f243 31c8 	movw	r1, #13256	; 0x33c8
 800338c:	f2c2 0102 	movt	r1, #8194	; 0x2002
 8003390:	201d      	movs	r0, #29
 8003392:	7008      	strb	r0, [r1, #0]
 8003394:	e7ff      	b.n	8003396 <handlingYear+0x166>
D:\#Documents\UVISION\SMART_WAKE_UP/main.c:177
 8003396:	f243 30ca 	movw	r0, #13258	; 0x33ca
 800339a:	f2c2 0002 	movt	r0, #8194	; 0x2002
 800339e:	f990 0000 	ldrsb.w	r0, [r0]
 80033a2:	2802      	cmp	r0, #2
 80033a4:	d114      	bne.n	80033d0 <handlingYear+0x1a0>
 80033a6:	e7ff      	b.n	80033a8 <handlingYear+0x178>
 80033a8:	f89d 000f 	ldrb.w	r0, [sp, #15]
 80033ac:	b980      	cbnz	r0, 80033d0 <handlingYear+0x1a0>
 80033ae:	e7ff      	b.n	80033b0 <handlingYear+0x180>
 80033b0:	f243 30c8 	movw	r0, #13256	; 0x33c8
 80033b4:	f2c2 0002 	movt	r0, #8194	; 0x2002
 80033b8:	f990 0000 	ldrsb.w	r0, [r0]
 80033bc:	281d      	cmp	r0, #29
 80033be:	db07      	blt.n	80033d0 <handlingYear+0x1a0>
 80033c0:	e7ff      	b.n	80033c2 <handlingYear+0x192>
 80033c2:	f243 31c8 	movw	r1, #13256	; 0x33c8
 80033c6:	f2c2 0102 	movt	r1, #8194	; 0x2002
 80033ca:	201c      	movs	r0, #28
 80033cc:	7008      	strb	r0, [r1, #0]
 80033ce:	e7ff      	b.n	80033d0 <handlingYear+0x1a0>
D:\#Documents\UVISION\SMART_WAKE_UP/main.c:179
 80033d0:	f243 408a 	movw	r0, #13450	; 0x348a
 80033d4:	f2c2 0002 	movt	r0, #8194	; 0x2002
 80033d8:	f990 0000 	ldrsb.w	r0, [r0]
 80033dc:	4669      	mov	r1, sp
 80033de:	6048      	str	r0, [r1, #4]
 80033e0:	f643 600b 	movw	r0, #15883	; 0x3e0b
 80033e4:	f6c0 0000 	movt	r0, #2048	; 0x800
 80033e8:	6008      	str	r0, [r1, #0]
 80033ea:	f240 0300 	movw	r3, #0
 80033ee:	f2c2 0302 	movt	r3, #8194	; 0x2002
 80033f2:	2001      	movs	r0, #1
 80033f4:	2100      	movs	r1, #0
 80033f6:	220d      	movs	r2, #13
 80033f8:	f7fe ffa2 	bl	8002340 <SH1106_FontPrint>
D:\#Documents\UVISION\SMART_WAKE_UP/main.c:180
 80033fc:	b004      	add	sp, #16
 80033fe:	bd80      	pop	{r7, pc}

08003400 <main>:
main():
D:\#Documents\UVISION\SMART_WAKE_UP/main.c:31
 8003400:	b580      	push	{r7, lr}
 8003402:	b082      	sub	sp, #8
 8003404:	2000      	movs	r0, #0
 8003406:	9001      	str	r0, [sp, #4]
D:\#Documents\UVISION\SMART_WAKE_UP/main.c:32
 8003408:	f7ff f82e 	bl	8002468 <SH1106_Init>
D:\#Documents\UVISION\SMART_WAKE_UP/main.c:33
 800340c:	f7fe f85c 	bl	80014c8 <BUTTONS_Init>
D:\#Documents\UVISION\SMART_WAKE_UP/main.c:34
 8003410:	f7fe f97a 	bl	8001708 <DS3231_Init>
 8003414:	f240 4000 	movw	r0, #1024	; 0x400
 8003418:	f2c4 0002 	movt	r0, #16386	; 0x4002
 800341c:	2107      	movs	r1, #7
 800341e:	2201      	movs	r2, #1
D:\#Documents\UVISION\SMART_WAKE_UP/main.c:35
 8003420:	f7fe fb82 	bl	8001b28 <GPIO_PinMode>
D:\#Documents\UVISION\SMART_WAKE_UP/main.c:36
 8003424:	f7fe fe54 	bl	80020d0 <SH1106_ClearBuffer>
D:\#Documents\UVISION\SMART_WAKE_UP/main.c:37
 8003428:	f7ff f882 	bl	8002530 <SH1106_SendBuffer>
D:\#Documents\UVISION\SMART_WAKE_UP/main.c:42
 800342c:	e7ff      	b.n	800342e <main+0x2e>
D:\#Documents\UVISION\SMART_WAKE_UP/main.c:44
 800342e:	f7fe fe4f 	bl	80020d0 <SH1106_ClearBuffer>
D:\#Documents\UVISION\SMART_WAKE_UP/main.c:45
 8003432:	f7fe f909 	bl	8001648 <BUTTONS_KeyState>
D:\#Documents\UVISION\SMART_WAKE_UP/main.c:46
 8003436:	f643 00a0 	movw	r0, #14496	; 0x38a0
 800343a:	f2c2 0002 	movt	r0, #8194	; 0x2002
 800343e:	7802      	ldrb	r2, [r0, #0]
 8003440:	f240 4000 	movw	r0, #1024	; 0x400
 8003444:	f2c4 0002 	movt	r0, #16386	; 0x4002
 8003448:	2107      	movs	r1, #7
 800344a:	f7fe fb49 	bl	8001ae0 <GPIO_DigitalWrite>
D:\#Documents\UVISION\SMART_WAKE_UP/main.c:47
 800344e:	f243 4083 	movw	r0, #13443	; 0x3483
 8003452:	f2c2 0002 	movt	r0, #8194	; 0x2002
 8003456:	7800      	ldrb	r0, [r0, #0]
 8003458:	4601      	mov	r1, r0
 800345a:	9100      	str	r1, [sp, #0]
 800345c:	b120      	cbz	r0, 8003468 <main+0x68>
 800345e:	e7ff      	b.n	8003460 <main+0x60>
 8003460:	9800      	ldr	r0, [sp, #0]
 8003462:	2801      	cmp	r0, #1
 8003464:	d005      	beq.n	8003472 <main+0x72>
 8003466:	e007      	b.n	8003478 <main+0x78>
D:\#Documents\UVISION\SMART_WAKE_UP/main.c:50
 8003468:	f7fe fd32 	bl	8001ed0 <MAIN_Initialization>
D:\#Documents\UVISION\SMART_WAKE_UP/main.c:51
 800346c:	f7fe fc48 	bl	8001d00 <MAIN_DisplayDate>
D:\#Documents\UVISION\SMART_WAKE_UP/main.c:52
 8003470:	e002      	b.n	8003478 <main+0x78>
D:\#Documents\UVISION\SMART_WAKE_UP/main.c:54
 8003472:	f7fe fd8d 	bl	8001f90 <MAIN_Settings>
D:\#Documents\UVISION\SMART_WAKE_UP/main.c:55
 8003476:	e7ff      	b.n	8003478 <main+0x78>
D:\#Documents\UVISION\SMART_WAKE_UP/main.c:57
 8003478:	f643 01a0 	movw	r1, #14496	; 0x38a0
 800347c:	f2c2 0102 	movt	r1, #8194	; 0x2002
 8003480:	7808      	ldrb	r0, [r1, #0]
 8003482:	f080 0001 	eor.w	r0, r0, #1
 8003486:	7008      	strb	r0, [r1, #0]
D:\#Documents\UVISION\SMART_WAKE_UP/main.c:58
 8003488:	f7ff f852 	bl	8002530 <SH1106_SendBuffer>
D:\#Documents\UVISION\SMART_WAKE_UP/main.c:42
 800348c:	e7cf      	b.n	800342e <main+0x2e>

0800348e <_btod_d2e>:
_btod_d2e():
 800348e:	ea5f 0c40 	movs.w	ip, r0, lsl #1
 8003492:	bf08      	it	eq
 8003494:	f091 0f00 	teqeq	r1, #0
 8003498:	ea4f 238c 	mov.w	r3, ip, lsl #10
 800349c:	ea4f 22c1 	mov.w	r2, r1, lsl #11
 80034a0:	ea43 5151 	orr.w	r1, r3, r1, lsr #21
 80034a4:	ea4f 501c 	mov.w	r0, ip, lsr #20
 80034a8:	bf18      	it	ne
 80034aa:	f500 40f0 	addne.w	r0, r0, #30720	; 0x7800
 80034ae:	ea4f 0030 	mov.w	r0, r0, rrx
 80034b2:	bf18      	it	ne
 80034b4:	f041 4100 	orrne.w	r1, r1, #2147483648	; 0x80000000
 80034b8:	ea5f 5c6c 	movs.w	ip, ip, asr #21
 80034bc:	f000 8029 	beq.w	8003512 <_d2e_norm_op1>
 80034c0:	f1bc 3fff 	cmp.w	ip, #4294967295	; 0xffffffff
 80034c4:	bf08      	it	eq
 80034c6:	f040 4080 	orreq.w	r0, r0, #1073741824	; 0x40000000
 80034ca:	4770      	bx	lr

080034cc <_d2e_denorm_low>:
_d2e_denorm_low():
 80034cc:	0c13      	lsrs	r3, r2, #16
 80034ce:	bf06      	itte	eq
 80034d0:	0412      	lsleq	r2, r2, #16
 80034d2:	f04f 0c10 	moveq.w	ip, #16
 80034d6:	f04f 0c00 	movne.w	ip, #0
 80034da:	0e13      	lsrs	r3, r2, #24
 80034dc:	bf04      	itt	eq
 80034de:	0212      	lsleq	r2, r2, #8
 80034e0:	f10c 0c08 	addeq.w	ip, ip, #8
 80034e4:	0f13      	lsrs	r3, r2, #28
 80034e6:	bf04      	itt	eq
 80034e8:	0112      	lsleq	r2, r2, #4
 80034ea:	f10c 0c04 	addeq.w	ip, ip, #4
 80034ee:	0f93      	lsrs	r3, r2, #30
 80034f0:	bf04      	itt	eq
 80034f2:	0092      	lsleq	r2, r2, #2
 80034f4:	f10c 0c02 	addeq.w	ip, ip, #2
 80034f8:	0fd3      	lsrs	r3, r2, #31
 80034fa:	bf04      	itt	eq
 80034fc:	0052      	lsleq	r2, r2, #1
 80034fe:	f10c 0c01 	addeq.w	ip, ip, #1
 8003502:	4611      	mov	r1, r2
 8003504:	f04f 0200 	mov.w	r2, #0
 8003508:	f1a0 001f 	sub.w	r0, r0, #31
 800350c:	eba0 000c 	sub.w	r0, r0, ip
 8003510:	4770      	bx	lr

08003512 <_d2e_norm_op1>:
_d2e_norm_op1():
 8003512:	f011 4f00 	tst.w	r1, #2147483648	; 0x80000000
 8003516:	bf08      	it	eq
 8003518:	4770      	bxeq	lr
 800351a:	f031 4100 	bics.w	r1, r1, #2147483648	; 0x80000000
 800351e:	f43f afd5 	beq.w	80034cc <_d2e_denorm_low>
 8003522:	0c0b      	lsrs	r3, r1, #16
 8003524:	bf06      	itte	eq
 8003526:	0409      	lsleq	r1, r1, #16
 8003528:	f04f 0c10 	moveq.w	ip, #16
 800352c:	f04f 0c00 	movne.w	ip, #0
 8003530:	0e0b      	lsrs	r3, r1, #24
 8003532:	bf04      	itt	eq
 8003534:	0209      	lsleq	r1, r1, #8
 8003536:	f10c 0c08 	addeq.w	ip, ip, #8
 800353a:	0f0b      	lsrs	r3, r1, #28
 800353c:	bf04      	itt	eq
 800353e:	0109      	lsleq	r1, r1, #4
 8003540:	f10c 0c04 	addeq.w	ip, ip, #4
 8003544:	0f8b      	lsrs	r3, r1, #30
 8003546:	bf04      	itt	eq
 8003548:	0089      	lsleq	r1, r1, #2
 800354a:	f10c 0c02 	addeq.w	ip, ip, #2
 800354e:	0fcb      	lsrs	r3, r1, #31
 8003550:	bf04      	itt	eq
 8003552:	0049      	lsleq	r1, r1, #1
 8003554:	f10c 0c01 	addeq.w	ip, ip, #1
 8003558:	f1cc 0320 	rsb	r3, ip, #32
 800355c:	fa22 f303 	lsr.w	r3, r2, r3
 8003560:	ea41 0103 	orr.w	r1, r1, r3
 8003564:	fa02 f20c 	lsl.w	r2, r2, ip
 8003568:	eba0 000c 	sub.w	r0, r0, ip
 800356c:	f100 0001 	add.w	r0, r0, #1
 8003570:	4770      	bx	lr
	...

08003574 <__btod_div_common>:
__btod_div_common():
 8003574:	f023 477f 	bic.w	r7, r3, #4278190080	; 0xff000000
 8003578:	f020 4c7f 	bic.w	ip, r0, #4278190080	; 0xff000000
 800357c:	ea80 0003 	eor.w	r0, r0, r3
 8003580:	f000 4000 	and.w	r0, r0, #2147483648	; 0x80000000
 8003584:	ebac 0307 	sub.w	r3, ip, r7
 8003588:	f503 537c 	add.w	r3, r3, #16128	; 0x3f00
 800358c:	f103 03ff 	add.w	r3, r3, #255	; 0xff
 8003590:	e92d 4980 	stmdb	sp!, {r7, r8, fp, lr}
 8003594:	b409      	push	{r0, r3}
 8003596:	ea4f 4314 	mov.w	r3, r4, lsr #16
 800359a:	ea24 4803 	bic.w	r8, r4, r3, lsl #16
 800359e:	ea4f 4b15 	mov.w	fp, r5, lsr #16
 80035a2:	ea25 4e0b 	bic.w	lr, r5, fp, lsl #16
 80035a6:	f20f 2604 	addw	r6, pc, #516	; 0x204
 80035aa:	eb06 2713 	add.w	r7, r6, r3, lsr #8
 80035ae:	783e      	ldrb	r6, [r7, #0]
 80035b0:	fb03 6706 	mla	r7, r3, r6, r6
 80035b4:	f5c7 0700 	rsb	r7, r7, #8388608	; 0x800000
 80035b8:	fb07 f606 	mul.w	r6, r7, r6
 80035bc:	ea4f 46d6 	mov.w	r6, r6, lsr #19
 80035c0:	f106 0602 	add.w	r6, r6, #2
 80035c4:	ea4f 3754 	mov.w	r7, r4, lsr #13
 80035c8:	fb07 6c06 	mla	ip, r7, r6, r6
 80035cc:	f1cc 5c00 	rsb	ip, ip, #536870912	; 0x20000000
 80035d0:	ea4f 471c 	mov.w	r7, ip, lsr #16
 80035d4:	ea2c 4c07 	bic.w	ip, ip, r7, lsl #16
 80035d8:	fb0c f506 	mul.w	r5, ip, r6
 80035dc:	fb07 f406 	mul.w	r4, r7, r6
 80035e0:	eb04 4615 	add.w	r6, r4, r5, lsr #16
 80035e4:	ea4f 1696 	mov.w	r6, r6, lsr #6
 80035e8:	0849      	lsrs	r1, r1, #1
 80035ea:	ea5f 0232 	movs.w	r2, r2, rrx
 80035ee:	bf34      	ite	cc
 80035f0:	2000      	movcc	r0, #0
 80035f2:	f04f 4000 	movcs.w	r0, #2147483648	; 0x80000000
 80035f6:	ea4f 37d1 	mov.w	r7, r1, lsr #15
