
SMART_WAKE_UP.axf:     file format elf32-littlearm


Disassembly of section ER_RO:

08000000 <__Vectors>:
 8000000:	20023ea8 	andcs	r3, r2, r8, lsr #29
 8000004:	0800038d 	stmdaeq	r0, {r0, r2, r3, r7, r8, r9}
 8000008:	08000395 	stmdaeq	r0, {r0, r2, r4, r7, r8, r9}
 800000c:	08000397 	stmdaeq	r0, {r0, r1, r2, r4, r7, r8, r9}
 8000010:	08000399 	stmdaeq	r0, {r0, r3, r4, r7, r8, r9}
 8000014:	0800039b 	stmdaeq	r0, {r0, r1, r3, r4, r7, r8, r9}
 8000018:	0800039d 	stmdaeq	r0, {r0, r2, r3, r4, r7, r8, r9}
	...
 800002c:	0800039f 	stmdaeq	r0, {r0, r1, r2, r3, r4, r7, r8, r9}
 8000030:	080003a1 	stmdaeq	r0, {r0, r5, r7, r8, r9}
 8000034:	00000000 	andeq	r0, r0, r0
 8000038:	080003a3 	stmdaeq	r0, {r0, r1, r5, r7, r8, r9}
 800003c:	080003a5 	stmdaeq	r0, {r0, r2, r5, r7, r8, r9}
 8000040:	080003a7 	stmdaeq	r0, {r0, r1, r2, r5, r7, r8, r9}
 8000044:	080003a7 	stmdaeq	r0, {r0, r1, r2, r5, r7, r8, r9}
 8000048:	080003a7 	stmdaeq	r0, {r0, r1, r2, r5, r7, r8, r9}
 800004c:	080003a7 	stmdaeq	r0, {r0, r1, r2, r5, r7, r8, r9}
 8000050:	080003a7 	stmdaeq	r0, {r0, r1, r2, r5, r7, r8, r9}
 8000054:	080003a7 	stmdaeq	r0, {r0, r1, r2, r5, r7, r8, r9}
 8000058:	080003a7 	stmdaeq	r0, {r0, r1, r2, r5, r7, r8, r9}
 800005c:	080003a7 	stmdaeq	r0, {r0, r1, r2, r5, r7, r8, r9}
 8000060:	08001a31 	stmdaeq	r0, {r0, r4, r5, r9, fp, ip}
 8000064:	08001a71 	stmdaeq	r0, {r0, r4, r5, r6, r9, fp, ip}
 8000068:	08001aa9 	stmdaeq	r0, {r0, r3, r5, r7, r9, fp, ip}
 800006c:	080003a7 	stmdaeq	r0, {r0, r1, r2, r5, r7, r8, r9}
 8000070:	080003a7 	stmdaeq	r0, {r0, r1, r2, r5, r7, r8, r9}
 8000074:	080003a7 	stmdaeq	r0, {r0, r1, r2, r5, r7, r8, r9}
 8000078:	080003a7 	stmdaeq	r0, {r0, r1, r2, r5, r7, r8, r9}
 800007c:	080003a7 	stmdaeq	r0, {r0, r1, r2, r5, r7, r8, r9}
 8000080:	080003a7 	stmdaeq	r0, {r0, r1, r2, r5, r7, r8, r9}
 8000084:	080003a7 	stmdaeq	r0, {r0, r1, r2, r5, r7, r8, r9}
 8000088:	080003a7 	stmdaeq	r0, {r0, r1, r2, r5, r7, r8, r9}
 800008c:	080003a7 	stmdaeq	r0, {r0, r1, r2, r5, r7, r8, r9}
 8000090:	080003a7 	stmdaeq	r0, {r0, r1, r2, r5, r7, r8, r9}
 8000094:	080003a7 	stmdaeq	r0, {r0, r1, r2, r5, r7, r8, r9}
 8000098:	080003a7 	stmdaeq	r0, {r0, r1, r2, r5, r7, r8, r9}
 800009c:	080003a7 	stmdaeq	r0, {r0, r1, r2, r5, r7, r8, r9}
 80000a0:	080003a7 	stmdaeq	r0, {r0, r1, r2, r5, r7, r8, r9}
 80000a4:	080003a7 	stmdaeq	r0, {r0, r1, r2, r5, r7, r8, r9}
 80000a8:	080003a7 	stmdaeq	r0, {r0, r1, r2, r5, r7, r8, r9}
 80000ac:	080003a7 	stmdaeq	r0, {r0, r1, r2, r5, r7, r8, r9}
 80000b0:	08002849 	stmdaeq	r0, {r0, r3, r6, fp, sp}
 80000b4:	080003a7 	stmdaeq	r0, {r0, r1, r2, r5, r7, r8, r9}
 80000b8:	080003a7 	stmdaeq	r0, {r0, r1, r2, r5, r7, r8, r9}
 80000bc:	080003a7 	stmdaeq	r0, {r0, r1, r2, r5, r7, r8, r9}
 80000c0:	080003a7 	stmdaeq	r0, {r0, r1, r2, r5, r7, r8, r9}
 80000c4:	080003a7 	stmdaeq	r0, {r0, r1, r2, r5, r7, r8, r9}
 80000c8:	080003a7 	stmdaeq	r0, {r0, r1, r2, r5, r7, r8, r9}
 80000cc:	080003a7 	stmdaeq	r0, {r0, r1, r2, r5, r7, r8, r9}
 80000d0:	080003a7 	stmdaeq	r0, {r0, r1, r2, r5, r7, r8, r9}
 80000d4:	080003a7 	stmdaeq	r0, {r0, r1, r2, r5, r7, r8, r9}
 80000d8:	08002981 	stmdaeq	r0, {r0, r7, r8, fp, sp}
 80000dc:	080003a7 	stmdaeq	r0, {r0, r1, r2, r5, r7, r8, r9}
 80000e0:	080019f1 	stmdaeq	r0, {r0, r4, r5, r6, r7, r8, fp, ip}
 80000e4:	080003a7 	stmdaeq	r0, {r0, r1, r2, r5, r7, r8, r9}
 80000e8:	080003a7 	stmdaeq	r0, {r0, r1, r2, r5, r7, r8, r9}
 80000ec:	080003a7 	stmdaeq	r0, {r0, r1, r2, r5, r7, r8, r9}
 80000f0:	080003a7 	stmdaeq	r0, {r0, r1, r2, r5, r7, r8, r9}
 80000f4:	080003a7 	stmdaeq	r0, {r0, r1, r2, r5, r7, r8, r9}
 80000f8:	080003a7 	stmdaeq	r0, {r0, r1, r2, r5, r7, r8, r9}
 80000fc:	080003a7 	stmdaeq	r0, {r0, r1, r2, r5, r7, r8, r9}
 8000100:	080003a7 	stmdaeq	r0, {r0, r1, r2, r5, r7, r8, r9}
 8000104:	080003a7 	stmdaeq	r0, {r0, r1, r2, r5, r7, r8, r9}
 8000108:	080003a7 	stmdaeq	r0, {r0, r1, r2, r5, r7, r8, r9}
 800010c:	080003a7 	stmdaeq	r0, {r0, r1, r2, r5, r7, r8, r9}
 8000110:	080003a7 	stmdaeq	r0, {r0, r1, r2, r5, r7, r8, r9}
 8000114:	080003a7 	stmdaeq	r0, {r0, r1, r2, r5, r7, r8, r9}
 8000118:	080003a7 	stmdaeq	r0, {r0, r1, r2, r5, r7, r8, r9}
 800011c:	080003a7 	stmdaeq	r0, {r0, r1, r2, r5, r7, r8, r9}
 8000120:	080003a7 	stmdaeq	r0, {r0, r1, r2, r5, r7, r8, r9}
 8000124:	080003a7 	stmdaeq	r0, {r0, r1, r2, r5, r7, r8, r9}
 8000128:	080003a7 	stmdaeq	r0, {r0, r1, r2, r5, r7, r8, r9}
 800012c:	080003a7 	stmdaeq	r0, {r0, r1, r2, r5, r7, r8, r9}
 8000130:	080003a7 	stmdaeq	r0, {r0, r1, r2, r5, r7, r8, r9}
 8000134:	080003a7 	stmdaeq	r0, {r0, r1, r2, r5, r7, r8, r9}
 8000138:	080003a7 	stmdaeq	r0, {r0, r1, r2, r5, r7, r8, r9}
 800013c:	080003a7 	stmdaeq	r0, {r0, r1, r2, r5, r7, r8, r9}
 8000140:	080003a7 	stmdaeq	r0, {r0, r1, r2, r5, r7, r8, r9}
 8000144:	080003a7 	stmdaeq	r0, {r0, r1, r2, r5, r7, r8, r9}
 8000148:	080003a7 	stmdaeq	r0, {r0, r1, r2, r5, r7, r8, r9}
 800014c:	080003a7 	stmdaeq	r0, {r0, r1, r2, r5, r7, r8, r9}
 8000150:	080003a7 	stmdaeq	r0, {r0, r1, r2, r5, r7, r8, r9}
 8000154:	080003a7 	stmdaeq	r0, {r0, r1, r2, r5, r7, r8, r9}
 8000158:	080003a7 	stmdaeq	r0, {r0, r1, r2, r5, r7, r8, r9}
 800015c:	080003a7 	stmdaeq	r0, {r0, r1, r2, r5, r7, r8, r9}
 8000160:	080003a7 	stmdaeq	r0, {r0, r1, r2, r5, r7, r8, r9}
 8000164:	080003a7 	stmdaeq	r0, {r0, r1, r2, r5, r7, r8, r9}
 8000168:	080003a7 	stmdaeq	r0, {r0, r1, r2, r5, r7, r8, r9}
 800016c:	080003a7 	stmdaeq	r0, {r0, r1, r2, r5, r7, r8, r9}
 8000170:	080003a7 	stmdaeq	r0, {r0, r1, r2, r5, r7, r8, r9}
 8000174:	080003a7 	stmdaeq	r0, {r0, r1, r2, r5, r7, r8, r9}
 8000178:	080003a7 	stmdaeq	r0, {r0, r1, r2, r5, r7, r8, r9}
 800017c:	00000000 	andeq	r0, r0, r0
 8000180:	080003a7 	stmdaeq	r0, {r0, r1, r2, r5, r7, r8, r9}
 8000184:	080003a7 	stmdaeq	r0, {r0, r1, r2, r5, r7, r8, r9}
 8000188:	080003a7 	stmdaeq	r0, {r0, r1, r2, r5, r7, r8, r9}
 800018c:	080003a7 	stmdaeq	r0, {r0, r1, r2, r5, r7, r8, r9}
 8000190:	080003a7 	stmdaeq	r0, {r0, r1, r2, r5, r7, r8, r9}
 8000194:	080003a7 	stmdaeq	r0, {r0, r1, r2, r5, r7, r8, r9}
 8000198:	080003a7 	stmdaeq	r0, {r0, r1, r2, r5, r7, r8, r9}
 800019c:	080003a7 	stmdaeq	r0, {r0, r1, r2, r5, r7, r8, r9}
 80001a0:	080003a7 	stmdaeq	r0, {r0, r1, r2, r5, r7, r8, r9}
 80001a4:	080003a7 	stmdaeq	r0, {r0, r1, r2, r5, r7, r8, r9}
 80001a8:	080003a7 	stmdaeq	r0, {r0, r1, r2, r5, r7, r8, r9}
 80001ac:	080003a7 	stmdaeq	r0, {r0, r1, r2, r5, r7, r8, r9}
 80001b0:	080003a7 	stmdaeq	r0, {r0, r1, r2, r5, r7, r8, r9}
 80001b4:	080003a7 	stmdaeq	r0, {r0, r1, r2, r5, r7, r8, r9}
 80001b8:	080003a7 	stmdaeq	r0, {r0, r1, r2, r5, r7, r8, r9}
 80001bc:	080003a7 	stmdaeq	r0, {r0, r1, r2, r5, r7, r8, r9}
 80001c0:	080003a7 	stmdaeq	r0, {r0, r1, r2, r5, r7, r8, r9}
 80001c4:	080003a7 	stmdaeq	r0, {r0, r1, r2, r5, r7, r8, r9}
 80001c8:	00000000 	andeq	r0, r0, r0
 80001cc:	080003a7 	stmdaeq	r0, {r0, r1, r2, r5, r7, r8, r9}
 80001d0:	080003a7 	stmdaeq	r0, {r0, r1, r2, r5, r7, r8, r9}
 80001d4:	080003a7 	stmdaeq	r0, {r0, r1, r2, r5, r7, r8, r9}
 80001d8:	080003a7 	stmdaeq	r0, {r0, r1, r2, r5, r7, r8, r9}
 80001dc:	080003a7 	stmdaeq	r0, {r0, r1, r2, r5, r7, r8, r9}
 80001e0:	080003a7 	stmdaeq	r0, {r0, r1, r2, r5, r7, r8, r9}
 80001e4:	080003a7 	stmdaeq	r0, {r0, r1, r2, r5, r7, r8, r9}
 80001e8:	080003a7 	stmdaeq	r0, {r0, r1, r2, r5, r7, r8, r9}
 80001ec:	080003a7 	stmdaeq	r0, {r0, r1, r2, r5, r7, r8, r9}
 80001f0:	080003a7 	stmdaeq	r0, {r0, r1, r2, r5, r7, r8, r9}
 80001f4:	080003a7 	stmdaeq	r0, {r0, r1, r2, r5, r7, r8, r9}

080001f8 <__main>:
__main():
 80001f8:	f000 f802 	bl	8000200 <__scatterload_rt2>
 80001fc:	f000 f8b6 	bl	800036c <__rt_entry>

08000200 <__scatterload_rt2>:
__scatterload_rt2():
 8000200:	a00a      	add	r0, pc, #40	; (adr r0, 800022c <__scatterload_null+0x1e>)
 8000202:	e890 0c00 	ldmia.w	r0, {sl, fp}
 8000206:	4482      	add	sl, r0
 8000208:	4483      	add	fp, r0
 800020a:	f1aa 0701 	sub.w	r7, sl, #1

0800020e <__scatterload_null>:
 800020e:	45da      	cmp	sl, fp
 8000210:	d101      	bne.n	8000216 <__scatterload_null+0x8>
 8000212:	f000 f8ab 	bl	800036c <__rt_entry>
 8000216:	f2af 0e09 	subw	lr, pc, #9
 800021a:	e8ba 000f 	ldmia.w	sl!, {r0, r1, r2, r3}
 800021e:	f013 0f01 	tst.w	r3, #1
 8000222:	bf18      	it	ne
 8000224:	1afb      	subne	r3, r7, r3
 8000226:	f043 0301 	orr.w	r3, r3, #1
 800022a:	4718      	bx	r3
__scatterload_null():
 800022c:	00003cc8 	andeq	r3, r0, r8, asr #25
 8000230:	00003ce8 	andeq	r3, r0, r8, ror #25

08000234 <__decompress>:
__decompress():
 8000234:	440a      	add	r2, r1
 8000236:	f810 3b01 	ldrb.w	r3, [r0], #1
 800023a:	f013 0403 	ands.w	r4, r3, #3
 800023e:	bf08      	it	eq
 8000240:	f810 4b01 	ldrbeq.w	r4, [r0], #1
 8000244:	111d      	asrs	r5, r3, #4
 8000246:	bf08      	it	eq
 8000248:	f810 5b01 	ldrbeq.w	r5, [r0], #1
 800024c:	1e64      	subs	r4, r4, #1
 800024e:	d005      	beq.n	800025c <__decompress+0x28>
 8000250:	f810 6b01 	ldrb.w	r6, [r0], #1
 8000254:	1e64      	subs	r4, r4, #1
 8000256:	f801 6b01 	strb.w	r6, [r1], #1
 800025a:	d1f9      	bne.n	8000250 <__decompress+0x1c>
 800025c:	2d00      	cmp	r5, #0
 800025e:	d015      	beq.n	800028c <__decompress+0x58>
 8000260:	f810 4b01 	ldrb.w	r4, [r0], #1
 8000264:	f003 030c 	and.w	r3, r3, #12
 8000268:	2b0c      	cmp	r3, #12
 800026a:	eba1 0404 	sub.w	r4, r1, r4
 800026e:	bf0a      	itet	eq
 8000270:	f810 3b01 	ldrbeq.w	r3, [r0], #1
 8000274:	eba4 1483 	subne.w	r4, r4, r3, lsl #6
 8000278:	eba4 2403 	subeq.w	r4, r4, r3, lsl #8
 800027c:	f105 0301 	add.w	r3, r5, #1
 8000280:	f814 6b01 	ldrb.w	r6, [r4], #1
 8000284:	1e5b      	subs	r3, r3, #1
 8000286:	f801 6b01 	strb.w	r6, [r1], #1
 800028a:	d5f9      	bpl.n	8000280 <__decompress+0x4c>
 800028c:	4291      	cmp	r1, r2
 800028e:	bf38      	it	cc
 8000290:	f810 3b01 	ldrbcc.w	r3, [r0], #1
 8000294:	d3d1      	bcc.n	800023a <__decompress+0x6>
 8000296:	4770      	bx	lr

08000298 <__scatterload_zeroinit>:
__scatterload_zeroinit():
 8000298:	2300      	movs	r3, #0
 800029a:	2400      	movs	r4, #0
 800029c:	2500      	movs	r5, #0
 800029e:	2600      	movs	r6, #0
 80002a0:	3a10      	subs	r2, #16
 80002a2:	bf28      	it	cs
 80002a4:	c178      	stmiacs	r1!, {r3, r4, r5, r6}
 80002a6:	d8fb      	bhi.n	80002a0 <__scatterload_zeroinit+0x8>
 80002a8:	0752      	lsls	r2, r2, #29
 80002aa:	bf28      	it	cs
 80002ac:	c130      	stmiacs	r1!, {r4, r5}
 80002ae:	bf48      	it	mi
 80002b0:	600b      	strmi	r3, [r1, #0]
 80002b2:	4770      	bx	lr

080002b4 <_printf_n>:
_printf_n():
 80002b4:	296e      	cmp	r1, #110	; 0x6e
 80002b6:	f000 813d 	beq.w	8000534 <_printf_charcount>

080002ba <_printf_p>:
_printf_p():
 80002ba:	2970      	cmp	r1, #112	; 0x70
 80002bc:	f000 827f 	beq.w	80007be <_printf_hex_ptr>

080002c0 <_printf_f>:
_printf_f():
 80002c0:	2966      	cmp	r1, #102	; 0x66
 80002c2:	f003 8506 	beq.w	8003cd2 <_printf_fp_dec>

080002c6 <_printf_e>:
_printf_e():
 80002c6:	2965      	cmp	r1, #101	; 0x65
 80002c8:	f003 8503 	beq.w	8003cd2 <_printf_fp_dec>

080002cc <_printf_g>:
_printf_g():
 80002cc:	2967      	cmp	r1, #103	; 0x67
 80002ce:	f003 8500 	beq.w	8003cd2 <_printf_fp_dec>

080002d2 <_printf_a>:
_printf_a():
 80002d2:	2961      	cmp	r1, #97	; 0x61
 80002d4:	f003 84ff 	beq.w	8003cd6 <_printf_fp_hex>

080002d8 <_printf_ll>:
_printf_ll():
 80002d8:	6803      	ldr	r3, [r0, #0]
 80002da:	0a1b      	lsrs	r3, r3, #8
 80002dc:	bf28      	it	cs
 80002de:	f041 0180 	orrcs.w	r1, r1, #128	; 0x80

080002e2 <_printf_i>:
_printf_i():
 80002e2:	2969      	cmp	r1, #105	; 0x69
 80002e4:	f000 80ea 	beq.w	80004bc <_printf_int_dec>

080002e8 <_printf_d>:
_printf_d():
 80002e8:	2964      	cmp	r1, #100	; 0x64
 80002ea:	f000 80e7 	beq.w	80004bc <_printf_int_dec>

080002ee <_printf_u>:
_printf_u():
 80002ee:	2975      	cmp	r1, #117	; 0x75
 80002f0:	f000 80e4 	beq.w	80004bc <_printf_int_dec>

080002f4 <_printf_o>:
_printf_o():
 80002f4:	296f      	cmp	r1, #111	; 0x6f
 80002f6:	f000 820d 	beq.w	8000714 <_printf_int_oct>

080002fa <_printf_x>:
_printf_x():
 80002fa:	2978      	cmp	r1, #120	; 0x78
 80002fc:	f000 824b 	beq.w	8000796 <_printf_int_hex>

08000300 <_printf_lli>:
_printf_lli():
 8000300:	29e9      	cmp	r1, #233	; 0xe9
 8000302:	f000 81a7 	beq.w	8000654 <_printf_longlong_dec>

08000306 <_printf_lld>:
_printf_lld():
 8000306:	29e4      	cmp	r1, #228	; 0xe4
 8000308:	f000 81a4 	beq.w	8000654 <_printf_longlong_dec>

0800030c <_printf_llu>:
_printf_llu():
 800030c:	29f5      	cmp	r1, #245	; 0xf5
 800030e:	f000 81a1 	beq.w	8000654 <_printf_longlong_dec>

08000312 <_printf_llo>:
_printf_llo():
 8000312:	29ef      	cmp	r1, #239	; 0xef
 8000314:	f000 820a 	beq.w	800072c <_printf_ll_oct>

08000318 <_printf_llx>:
_printf_llx():
 8000318:	29f8      	cmp	r1, #248	; 0xf8
 800031a:	f000 824a 	beq.w	80007b2 <_printf_ll_hex>

0800031e <_printf_l>:
_printf_l():
 800031e:	6803      	ldr	r3, [r0, #0]
 8000320:	09db      	lsrs	r3, r3, #7
 8000322:	bf28      	it	cs
 8000324:	f041 0180 	orrcs.w	r1, r1, #128	; 0x80

08000328 <_printf_c>:
_printf_c():
 8000328:	2963      	cmp	r1, #99	; 0x63
 800032a:	f000 874b 	beq.w	80011c4 <_printf_char>

0800032e <_printf_s>:
_printf_s():
 800032e:	2973      	cmp	r1, #115	; 0x73
 8000330:	f000 8750 	beq.w	80011d4 <_printf_string>

08000334 <_printf_lc>:
_printf_lc():
 8000334:	29e3      	cmp	r1, #227	; 0xe3
 8000336:	f000 875b 	beq.w	80011f0 <_printf_wchar>

0800033a <_printf_ls>:
_printf_ls():
 800033a:	29f3      	cmp	r1, #243	; 0xf3
 800033c:	f000 8760 	beq.w	8001200 <_printf_wstring>

08000340 <_printf_percent_end>:
_printf_percent_end():
 8000340:	2000      	movs	r0, #0
 8000342:	4770      	bx	lr

08000344 <__rt_lib_init>:
__rt_lib_init():
 8000344:	b51f      	push	{r0, r1, r2, r3, r4, lr}

08000346 <__rt_lib_init_fp_1>:
__rt_lib_init_fp_1():
 8000346:	f003 fcb7 	bl	8003cb8 <_fp_init>

0800034a <__rt_lib_init_heap_1>:
__rt_lib_init_heap_1():
 800034a:	f000 ffaf 	bl	80012ac <__rt_locale>
 800034e:	0004      	movs	r4, r0

08000350 <__rt_lib_init_lc_collate_1>:
__rt_lib_init_lc_collate_1():
 8000350:	2000      	movs	r0, #0
 8000352:	2100      	movs	r1, #0
 8000354:	f003 fc9a 	bl	8003c8c <_get_lc_ctype>
 8000358:	1c40      	adds	r0, r0, #1
 800035a:	6060      	str	r0, [r4, #4]

0800035c <__rt_lib_init_lc_ctype_1>:
__rt_lib_init_lc_ctype_1():
 800035c:	2000      	movs	r0, #0
 800035e:	2100      	movs	r1, #0
 8000360:	f003 fc7e 	bl	8003c60 <_get_lc_numeric>
 8000364:	60e0      	str	r0, [r4, #12]

08000366 <__rt_lib_init_alloca_1>:
__rt_lib_init_alloca_1():
 8000366:	bd1f      	pop	{r0, r1, r2, r3, r4, pc}

08000368 <__rt_lib_shutdown>:
__rt_lib_shutdown():
 8000368:	b510      	push	{r4, lr}

0800036a <__rt_lib_shutdown_cpp_1>:
__rt_lib_shutdown_cpp_1():
 800036a:	bd10      	pop	{r4, pc}

0800036c <__rt_entry>:
__rt_entry():
 800036c:	f000 ff70 	bl	8001250 <__user_setup_stackheap>
 8000370:	4611      	mov	r1, r2

08000372 <__rt_entry_li>:
__rt_entry_li():
 8000372:	f7ff ffe7 	bl	8000344 <__rt_lib_init>

08000376 <__rt_entry_main>:
__rt_entry_main():
 8000376:	f003 f843 	bl	8003400 <main>
 800037a:	f001 f84d 	bl	8001418 <exit>

0800037e <__rt_exit>:
__rt_exit():
 800037e:	b403      	push	{r0, r1}

08000380 <__rt_exit_ls>:
__rt_exit_ls():
 8000380:	f7ff fff2 	bl	8000368 <__rt_lib_shutdown>

08000384 <__rt_exit_exit>:
__rt_exit_exit():
 8000384:	bc03      	pop	{r0, r1}
 8000386:	f001 f895 	bl	80014b4 <_sys_exit>
	...

0800038c <Reset_Handler>:
Reset_Handler():
D:\#Documents\UVISION\SMART_WAKE_UP/RTE/Device/STM32F767ZITx//startup_stm32f767xx.s:200
 800038c:	4809      	ldr	r0, [pc, #36]	; (80003b4 <__user_initial_stackheap+0xc>)
D:\#Documents\UVISION\SMART_WAKE_UP/RTE/Device/STM32F767ZITx//startup_stm32f767xx.s:201
 800038e:	4780      	blx	r0
D:\#Documents\UVISION\SMART_WAKE_UP/RTE/Device/STM32F767ZITx//startup_stm32f767xx.s:202
 8000390:	4809      	ldr	r0, [pc, #36]	; (80003b8 <__user_initial_stackheap+0x10>)
D:\#Documents\UVISION\SMART_WAKE_UP/RTE/Device/STM32F767ZITx//startup_stm32f767xx.s:203
 8000392:	4700      	bx	r0

08000394 <NMI_Handler>:
NMI_Handler():
D:\#Documents\UVISION\SMART_WAKE_UP/RTE/Device/STM32F767ZITx//startup_stm32f767xx.s:210
 8000394:	e7fe      	b.n	8000394 <NMI_Handler>

08000396 <HardFault_Handler>:
HardFault_Handler():
D:\#Documents\UVISION\SMART_WAKE_UP/RTE/Device/STM32F767ZITx//startup_stm32f767xx.s:215
 8000396:	e7fe      	b.n	8000396 <HardFault_Handler>

08000398 <MemManage_Handler>:
MemManage_Handler():
D:\#Documents\UVISION\SMART_WAKE_UP/RTE/Device/STM32F767ZITx//startup_stm32f767xx.s:220
 8000398:	e7fe      	b.n	8000398 <MemManage_Handler>

0800039a <BusFault_Handler>:
BusFault_Handler():
D:\#Documents\UVISION\SMART_WAKE_UP/RTE/Device/STM32F767ZITx//startup_stm32f767xx.s:225
 800039a:	e7fe      	b.n	800039a <BusFault_Handler>

0800039c <UsageFault_Handler>:
UsageFault_Handler():
D:\#Documents\UVISION\SMART_WAKE_UP/RTE/Device/STM32F767ZITx//startup_stm32f767xx.s:230
 800039c:	e7fe      	b.n	800039c <UsageFault_Handler>

0800039e <SVC_Handler>:
SVC_Handler():
D:\#Documents\UVISION\SMART_WAKE_UP/RTE/Device/STM32F767ZITx//startup_stm32f767xx.s:234
 800039e:	e7fe      	b.n	800039e <SVC_Handler>

080003a0 <DebugMon_Handler>:
DebugMon_Handler():
D:\#Documents\UVISION\SMART_WAKE_UP/RTE/Device/STM32F767ZITx//startup_stm32f767xx.s:239
 80003a0:	e7fe      	b.n	80003a0 <DebugMon_Handler>

080003a2 <PendSV_Handler>:
PendSV_Handler():
D:\#Documents\UVISION\SMART_WAKE_UP/RTE/Device/STM32F767ZITx//startup_stm32f767xx.s:243
 80003a2:	e7fe      	b.n	80003a2 <PendSV_Handler>

080003a4 <SysTick_Handler>:
SysTick_Handler():
D:\#Documents\UVISION\SMART_WAKE_UP/RTE/Device/STM32F767ZITx//startup_stm32f767xx.s:247
 80003a4:	e7fe      	b.n	80003a4 <SysTick_Handler>

080003a6 <ADC_IRQHandler>:
ADC_IRQHandler():
D:\#Documents\UVISION\SMART_WAKE_UP/RTE/Device/STM32F767ZITx//startup_stm32f767xx.s:469
 80003a6:	e7fe      	b.n	80003a6 <ADC_IRQHandler>

080003a8 <__user_initial_stackheap>:
__user_initial_stackheap():
D:\#Documents\UVISION\SMART_WAKE_UP/RTE/Device/STM32F767ZITx//startup_stm32f767xx.s:491
 80003a8:	4804      	ldr	r0, [pc, #16]	; (80003bc <__user_initial_stackheap+0x14>)
D:\#Documents\UVISION\SMART_WAKE_UP/RTE/Device/STM32F767ZITx//startup_stm32f767xx.s:492
 80003aa:	4905      	ldr	r1, [pc, #20]	; (80003c0 <__user_initial_stackheap+0x18>)
D:\#Documents\UVISION\SMART_WAKE_UP/RTE/Device/STM32F767ZITx//startup_stm32f767xx.s:493
 80003ac:	4a05      	ldr	r2, [pc, #20]	; (80003c4 <__user_initial_stackheap+0x1c>)
D:\#Documents\UVISION\SMART_WAKE_UP/RTE/Device/STM32F767ZITx//startup_stm32f767xx.s:494
 80003ae:	4b06      	ldr	r3, [pc, #24]	; (80003c8 <__user_initial_stackheap+0x20>)
D:\#Documents\UVISION\SMART_WAKE_UP/RTE/Device/STM32F767ZITx//startup_stm32f767xx.s:495
 80003b0:	4770      	bx	lr
 80003b2:	28310000 	ldmdacs	r1!, {}	; <UNPREDICTABLE>
 80003b6:	01f90800 	mvnseq	r0, r0, lsl #16
 80003ba:	38a80800 	stmiacc	r8!, {fp}
 80003be:	3ea82002 	cdpcc	0, 10, cr2, cr8, cr2, {0}
 80003c2:	3aa82002 	bcc	6a083d2 <__Vectors_Size+0x6a081da>
 80003c6:	3aa82002 	bcc	6a083d6 <__Vectors_Size+0x6a081de>
 80003ca:	 	ldrlt	r2, [ip, #-2]

080003cc <vsprintf>:
vsprintf():
 80003cc:	b51c      	push	{r2, r3, r4, lr}
 80003ce:	460c      	mov	r4, r1
 80003d0:	4b06      	ldr	r3, [pc, #24]	; (80003ec <vsprintf+0x20>)
 80003d2:	447b      	add	r3, pc
 80003d4:	4669      	mov	r1, sp
 80003d6:	9000      	str	r0, [sp, #0]
 80003d8:	4620      	mov	r0, r4
 80003da:	f000 f8c4 	bl	8000566 <_printf_char_common>
 80003de:	4604      	mov	r4, r0
 80003e0:	2000      	movs	r0, #0
 80003e2:	4669      	mov	r1, sp
 80003e4:	f000 f8d2 	bl	800058c <_sputc>
 80003e8:	4620      	mov	r0, r4
 80003ea:	bd1c      	pop	{r2, r3, r4, pc}
 80003ec:	000001b7 			; <UNDEFINED> instruction: 0x000001b7

080003f0 <__use_two_region_memory>:
__use_two_region_memory():
 80003f0:	4770      	bx	lr

080003f2 <__rt_heap_escrow$2region>:
__rt_heap_escrow$2region():
 80003f2:	4770      	bx	lr

080003f4 <__rt_heap_expand$2region>:
__rt_heap_expand$2region():
 80003f4:	4770      	bx	lr

080003f6 <_printf_pre_padding>:
_printf_pre_padding():
 80003f6:	b570      	push	{r4, r5, r6, lr}
 80003f8:	4604      	mov	r4, r0
 80003fa:	6985      	ldr	r5, [r0, #24]
 80003fc:	6800      	ldr	r0, [r0, #0]
 80003fe:	06c1      	lsls	r1, r0, #27
 8000400:	d501      	bpl.n	8000406 <_printf_pre_padding+0x10>
 8000402:	2630      	movs	r6, #48	; 0x30
 8000404:	e000      	b.n	8000408 <_printf_pre_padding+0x12>
 8000406:	2620      	movs	r6, #32
 8000408:	07c0      	lsls	r0, r0, #31
 800040a:	d007      	beq.n	800041c <_printf_pre_padding+0x26>
 800040c:	bd70      	pop	{r4, r5, r6, pc}
 800040e:	e9d4 2101 	ldrd	r2, r1, [r4, #4]
 8000412:	4630      	mov	r0, r6
 8000414:	4790      	blx	r2
 8000416:	6a20      	ldr	r0, [r4, #32]
 8000418:	1c40      	adds	r0, r0, #1
 800041a:	6220      	str	r0, [r4, #32]
 800041c:	1e6d      	subs	r5, r5, #1
 800041e:	d5f6      	bpl.n	800040e <_printf_pre_padding+0x18>
 8000420:	bd70      	pop	{r4, r5, r6, pc}

08000422 <_printf_post_padding>:
_printf_post_padding():
 8000422:	b570      	push	{r4, r5, r6, lr}
 8000424:	4604      	mov	r4, r0
 8000426:	6985      	ldr	r5, [r0, #24]
 8000428:	7800      	ldrb	r0, [r0, #0]
 800042a:	07c0      	lsls	r0, r0, #31
 800042c:	d107      	bne.n	800043e <_printf_post_padding+0x1c>
 800042e:	bd70      	pop	{r4, r5, r6, pc}
 8000430:	e9d4 2101 	ldrd	r2, r1, [r4, #4]
 8000434:	2020      	movs	r0, #32
 8000436:	4790      	blx	r2
 8000438:	6a20      	ldr	r0, [r4, #32]
 800043a:	1c40      	adds	r0, r0, #1
 800043c:	6220      	str	r0, [r4, #32]
 800043e:	1e6d      	subs	r5, r5, #1
 8000440:	d5f6      	bpl.n	8000430 <_printf_post_padding+0xe>
 8000442:	bd70      	pop	{r4, r5, r6, pc}

08000444 <_printf_truncate_signed>:
_printf_truncate_signed():
 8000444:	6809      	ldr	r1, [r1, #0]
 8000446:	054a      	lsls	r2, r1, #21
 8000448:	d501      	bpl.n	800044e <_printf_truncate_signed+0xa>
 800044a:	b240      	sxtb	r0, r0
 800044c:	4770      	bx	lr
 800044e:	05c9      	lsls	r1, r1, #23
 8000450:	d5fc      	bpl.n	800044c <_printf_truncate_signed+0x8>
 8000452:	b200      	sxth	r0, r0
 8000454:	4770      	bx	lr

08000456 <_printf_truncate_unsigned>:
_printf_truncate_unsigned():
 8000456:	6809      	ldr	r1, [r1, #0]
 8000458:	054a      	lsls	r2, r1, #21
 800045a:	d501      	bpl.n	8000460 <_printf_truncate_unsigned+0xa>
 800045c:	b2c0      	uxtb	r0, r0
 800045e:	4770      	bx	lr
 8000460:	05c9      	lsls	r1, r1, #23
 8000462:	d5fc      	bpl.n	800045e <_printf_truncate_unsigned+0x8>
 8000464:	b280      	uxth	r0, r0
 8000466:	4770      	bx	lr

08000468 <_printf_str>:
_printf_str():
 8000468:	b570      	push	{r4, r5, r6, lr}
 800046a:	460c      	mov	r4, r1
 800046c:	4605      	mov	r5, r0
 800046e:	2a01      	cmp	r2, #1
 8000470:	d005      	beq.n	800047e <_printf_str+0x16>
 8000472:	7828      	ldrb	r0, [r5, #0]
 8000474:	0680      	lsls	r0, r0, #26
 8000476:	d500      	bpl.n	800047a <_printf_str+0x12>
 8000478:	69ea      	ldr	r2, [r5, #28]
 800047a:	2300      	movs	r3, #0
 800047c:	e002      	b.n	8000484 <_printf_str+0x1c>
 800047e:	2301      	movs	r3, #1
 8000480:	e005      	b.n	800048e <_printf_str+0x26>
 8000482:	1c5b      	adds	r3, r3, #1
 8000484:	4293      	cmp	r3, r2
 8000486:	d202      	bcs.n	800048e <_printf_str+0x26>
 8000488:	5ce0      	ldrb	r0, [r4, r3]
 800048a:	2800      	cmp	r0, #0
 800048c:	d1f9      	bne.n	8000482 <_printf_str+0x1a>
 800048e:	69a8      	ldr	r0, [r5, #24]
 8000490:	18e6      	adds	r6, r4, r3
 8000492:	1ac0      	subs	r0, r0, r3
 8000494:	61a8      	str	r0, [r5, #24]
 8000496:	6a28      	ldr	r0, [r5, #32]
 8000498:	4418      	add	r0, r3
 800049a:	6228      	str	r0, [r5, #32]
 800049c:	4628      	mov	r0, r5
 800049e:	f7ff ffaa 	bl	80003f6 <_printf_pre_padding>
 80004a2:	e004      	b.n	80004ae <_printf_str+0x46>
 80004a4:	e9d5 2101 	ldrd	r2, r1, [r5, #4]
 80004a8:	f814 0b01 	ldrb.w	r0, [r4], #1
 80004ac:	4790      	blx	r2
 80004ae:	42b4      	cmp	r4, r6
 80004b0:	d3f8      	bcc.n	80004a4 <_printf_str+0x3c>
 80004b2:	4628      	mov	r0, r5
 80004b4:	f7ff ffb5 	bl	8000422 <_printf_post_padding>
 80004b8:	bd70      	pop	{r4, r5, r6, pc}
	...

080004bc <_printf_int_dec>:
_printf_int_dec():
 80004bc:	e92d 41f0 	stmdb	sp!, {r4, r5, r6, r7, r8, lr}
 80004c0:	4606      	mov	r6, r0
 80004c2:	2400      	movs	r4, #0
 80004c4:	6810      	ldr	r0, [r2, #0]
 80004c6:	2975      	cmp	r1, #117	; 0x75
 80004c8:	4631      	mov	r1, r6
 80004ca:	a516      	add	r5, pc, #88	; (adr r5, 8000524 <_printf_int_dec+0x68>)
 80004cc:	d010      	beq.n	80004f0 <_printf_int_dec+0x34>
 80004ce:	f7ff ffb9 	bl	8000444 <_printf_truncate_signed>
 80004d2:	2800      	cmp	r0, #0
 80004d4:	da02      	bge.n	80004dc <_printf_int_dec+0x20>
 80004d6:	4240      	negs	r0, r0
 80004d8:	a513      	add	r5, pc, #76	; (adr r5, 8000528 <_printf_int_dec+0x6c>)
 80004da:	e007      	b.n	80004ec <_printf_int_dec+0x30>
 80004dc:	6831      	ldr	r1, [r6, #0]
 80004de:	078a      	lsls	r2, r1, #30
 80004e0:	d501      	bpl.n	80004e6 <_printf_int_dec+0x2a>
 80004e2:	a512      	add	r5, pc, #72	; (adr r5, 800052c <_printf_int_dec+0x70>)
 80004e4:	e002      	b.n	80004ec <_printf_int_dec+0x30>
 80004e6:	0749      	lsls	r1, r1, #29
 80004e8:	d504      	bpl.n	80004f4 <_printf_int_dec+0x38>
 80004ea:	a511      	add	r5, pc, #68	; (adr r5, 8000530 <_printf_int_dec+0x74>)
 80004ec:	2401      	movs	r4, #1
 80004ee:	e001      	b.n	80004f4 <_printf_int_dec+0x38>
 80004f0:	f7ff ffb1 	bl	8000456 <_printf_truncate_unsigned>
 80004f4:	2100      	movs	r1, #0
 80004f6:	220a      	movs	r2, #10
 80004f8:	f106 0724 	add.w	r7, r6, #36	; 0x24
 80004fc:	e009      	b.n	8000512 <_printf_int_dec+0x56>
 80004fe:	fbb0 fcf2 	udiv	ip, r0, r2
 8000502:	fbb0 f3f2 	udiv	r3, r0, r2
 8000506:	fb02 001c 	mls	r0, r2, ip, r0
 800050a:	3030      	adds	r0, #48	; 0x30
 800050c:	5478      	strb	r0, [r7, r1]
 800050e:	4618      	mov	r0, r3
 8000510:	1c49      	adds	r1, r1, #1
 8000512:	2800      	cmp	r0, #0
 8000514:	d1f3      	bne.n	80004fe <_printf_int_dec+0x42>
 8000516:	4623      	mov	r3, r4
 8000518:	462a      	mov	r2, r5
 800051a:	4630      	mov	r0, r6
 800051c:	e8bd 41f0 	ldmia.w	sp!, {r4, r5, r6, r7, r8, lr}
 8000520:	f000 ba61 	b.w	80009e6 <_printf_int_common>
 8000524:	00000000 	andeq	r0, r0, r0
 8000528:	0000002d 	andeq	r0, r0, sp, lsr #32
 800052c:	0000002b 	andeq	r0, r0, fp, lsr #32
 8000530:	00000020 	andeq	r0, r0, r0, lsr #32

08000534 <_printf_charcount>:
_printf_charcount():
 8000534:	6811      	ldr	r1, [r2, #0]
 8000536:	6802      	ldr	r2, [r0, #0]
 8000538:	6a00      	ldr	r0, [r0, #32]
 800053a:	0553      	lsls	r3, r2, #21
 800053c:	d501      	bpl.n	8000542 <_printf_charcount+0xe>
 800053e:	7008      	strb	r0, [r1, #0]
 8000540:	e00a      	b.n	8000558 <_printf_charcount+0x24>
 8000542:	05d3      	lsls	r3, r2, #23
 8000544:	d501      	bpl.n	800054a <_printf_charcount+0x16>
 8000546:	8008      	strh	r0, [r1, #0]
 8000548:	e006      	b.n	8000558 <_printf_charcount+0x24>
 800054a:	0613      	lsls	r3, r2, #24
 800054c:	d503      	bpl.n	8000556 <_printf_charcount+0x22>
 800054e:	17c2      	asrs	r2, r0, #31
 8000550:	e9c1 0200 	strd	r0, r2, [r1]
 8000554:	e000      	b.n	8000558 <_printf_charcount+0x24>
 8000556:	6008      	str	r0, [r1, #0]
 8000558:	2001      	movs	r0, #1
 800055a:	4770      	bx	lr

0800055c <_printf_input_char>:
_printf_input_char():
 800055c:	6901      	ldr	r1, [r0, #16]
 800055e:	1c4a      	adds	r2, r1, #1
 8000560:	6102      	str	r2, [r0, #16]
 8000562:	7808      	ldrb	r0, [r1, #0]
 8000564:	4770      	bx	lr

08000566 <_printf_char_common>:
_printf_char_common():
 8000566:	b500      	push	{lr}
 8000568:	b08f      	sub	sp, #60	; 0x3c
 800056a:	e9cd 3101 	strd	r3, r1, [sp, #4]
 800056e:	2100      	movs	r1, #0
 8000570:	9105      	str	r1, [sp, #20]
 8000572:	4905      	ldr	r1, [pc, #20]	; (8000588 <_printf_char_common+0x22>)
 8000574:	4479      	add	r1, pc
 8000576:	e9cd 1003 	strd	r1, r0, [sp, #12]
 800057a:	4611      	mov	r1, r2
 800057c:	4668      	mov	r0, sp
 800057e:	f000 f929 	bl	80007d4 <__printf>
 8000582:	b00f      	add	sp, #60	; 0x3c
 8000584:	bd00      	pop	{pc}
 8000586:	ffe50000 			; <UNDEFINED> instruction: 0xffe50000
 800058a:	 	stmdavs	sl, {r0, r1, r2, r3, r4, r5, r6, r7, r8, r9, sl, fp, ip, sp, lr, pc}

0800058c <_sputc>:
_sputc():
 800058c:	680a      	ldr	r2, [r1, #0]
 800058e:	f802 0b01 	strb.w	r0, [r2], #1
 8000592:	600a      	str	r2, [r1, #0]
 8000594:	4770      	bx	lr
	...

08000598 <_printf_wctomb>:
_printf_wctomb():
 8000598:	e92d 5fff 	stmdb	sp!, {r0, r1, r2, r3, r4, r5, r6, r7, r8, r9, sl, fp, ip, lr}
 800059c:	4615      	mov	r5, r2
 800059e:	468a      	mov	sl, r1
 80005a0:	4604      	mov	r4, r0
 80005a2:	f8df 80ac 	ldr.w	r8, [pc, #172]	; 8000650 <_printf_wctomb+0xb8>
 80005a6:	44f8      	add	r8, pc
 80005a8:	2700      	movs	r7, #0
 80005aa:	e9d8 1000 	ldrd	r1, r0, [r8]
 80005ae:	463e      	mov	r6, r7
 80005b0:	e9cd 1000 	strd	r1, r0, [sp]
 80005b4:	e010      	b.n	80005d8 <_printf_wctomb+0x40>
 80005b6:	f83a 1016 	ldrh.w	r1, [sl, r6, lsl #1]
 80005ba:	466a      	mov	r2, sp
 80005bc:	a802      	add	r0, sp, #8
 80005be:	f000 fe23 	bl	8001208 <_c16rtomb>
 80005c2:	1c41      	adds	r1, r0, #1
 80005c4:	d007      	beq.n	80005d6 <_printf_wctomb+0x3e>
 80005c6:	7821      	ldrb	r1, [r4, #0]
 80005c8:	0689      	lsls	r1, r1, #26
 80005ca:	d503      	bpl.n	80005d4 <_printf_wctomb+0x3c>
 80005cc:	69e2      	ldr	r2, [r4, #28]
 80005ce:	1839      	adds	r1, r7, r0
 80005d0:	4291      	cmp	r1, r2
 80005d2:	d80d      	bhi.n	80005f0 <_printf_wctomb+0x58>
 80005d4:	4407      	add	r7, r0
 80005d6:	1c76      	adds	r6, r6, #1
 80005d8:	7820      	ldrb	r0, [r4, #0]
 80005da:	0680      	lsls	r0, r0, #26
 80005dc:	d502      	bpl.n	80005e4 <_printf_wctomb+0x4c>
 80005de:	69e0      	ldr	r0, [r4, #28]
 80005e0:	42b8      	cmp	r0, r7
 80005e2:	dd05      	ble.n	80005f0 <_printf_wctomb+0x58>
 80005e4:	42ae      	cmp	r6, r5
 80005e6:	dbe6      	blt.n	80005b6 <_printf_wctomb+0x1e>
 80005e8:	f83a 0016 	ldrh.w	r0, [sl, r6, lsl #1]
 80005ec:	2800      	cmp	r0, #0
 80005ee:	d1e2      	bne.n	80005b6 <_printf_wctomb+0x1e>
 80005f0:	69a0      	ldr	r0, [r4, #24]
 80005f2:	1bc0      	subs	r0, r0, r7
 80005f4:	61a0      	str	r0, [r4, #24]
 80005f6:	4620      	mov	r0, r4
 80005f8:	f7ff fefd 	bl	80003f6 <_printf_pre_padding>
 80005fc:	e9d8 1000 	ldrd	r1, r0, [r8]
 8000600:	e9cd 1000 	strd	r1, r0, [sp]
 8000604:	2000      	movs	r0, #0
 8000606:	e017      	b.n	8000638 <_printf_wctomb+0xa0>
 8000608:	f83a 1018 	ldrh.w	r1, [sl, r8, lsl #1]
 800060c:	466a      	mov	r2, sp
 800060e:	a802      	add	r0, sp, #8
 8000610:	f000 fdfa 	bl	8001208 <_c16rtomb>
 8000614:	f1b0 3fff 	cmp.w	r0, #4294967295	; 0xffffffff
 8000618:	4681      	mov	r9, r0
 800061a:	d00b      	beq.n	8000634 <_printf_wctomb+0x9c>
 800061c:	2500      	movs	r5, #0
 800061e:	f10d 0b08 	add.w	fp, sp, #8
 8000622:	e005      	b.n	8000630 <_printf_wctomb+0x98>
 8000624:	e9d4 2101 	ldrd	r2, r1, [r4, #4]
 8000628:	f81b 0005 	ldrb.w	r0, [fp, r5]
 800062c:	4790      	blx	r2
 800062e:	1c6d      	adds	r5, r5, #1
 8000630:	454d      	cmp	r5, r9
 8000632:	d3f7      	bcc.n	8000624 <_printf_wctomb+0x8c>
 8000634:	f108 0001 	add.w	r0, r8, #1
 8000638:	42b0      	cmp	r0, r6
 800063a:	4680      	mov	r8, r0
 800063c:	dbe4      	blt.n	8000608 <_printf_wctomb+0x70>
 800063e:	6a20      	ldr	r0, [r4, #32]
 8000640:	4438      	add	r0, r7
 8000642:	6220      	str	r0, [r4, #32]
 8000644:	4620      	mov	r0, r4
 8000646:	f7ff feec 	bl	8000422 <_printf_post_padding>
 800064a:	e8bd 9fff 	ldmia.w	sp!, {r0, r1, r2, r3, r4, r5, r6, r7, r8, r9, sl, fp, ip, pc}
 800064e:	37320000 	ldrcc	r0, [r2, -r0]!
	...

08000654 <_printf_longlong_dec>:
_printf_longlong_dec():
 8000654:	e92d 41f0 	stmdb	sp!, {r4, r5, r6, r7, r8, lr}
 8000658:	4680      	mov	r8, r0
 800065a:	1dd2      	adds	r2, r2, #7
 800065c:	f022 0207 	bic.w	r2, r2, #7
 8000660:	2500      	movs	r5, #0
 8000662:	e9d2 0200 	ldrd	r0, r2, [r2]
 8000666:	29f5      	cmp	r1, #245	; 0xf5
 8000668:	a615      	add	r6, pc, #84	; (adr r6, 80006c0 <_printf_longlong_dec+0x6c>)
 800066a:	d014      	beq.n	8000696 <_printf_longlong_dec+0x42>
 800066c:	1e01      	subs	r1, r0, #0
 800066e:	f172 0100 	sbcs.w	r1, r2, #0
 8000672:	da06      	bge.n	8000682 <_printf_longlong_dec+0x2e>
 8000674:	2300      	movs	r3, #0
 8000676:	ebd0 0003 	rsbs	r0, r0, r3
 800067a:	eb63 0202 	sbc.w	r2, r3, r2
 800067e:	a611      	add	r6, pc, #68	; (adr r6, 80006c4 <_printf_longlong_dec+0x70>)
 8000680:	e008      	b.n	8000694 <_printf_longlong_dec+0x40>
 8000682:	f8d8 1000 	ldr.w	r1, [r8]
 8000686:	078b      	lsls	r3, r1, #30
 8000688:	d501      	bpl.n	800068e <_printf_longlong_dec+0x3a>
 800068a:	a60f      	add	r6, pc, #60	; (adr r6, 80006c8 <_printf_longlong_dec+0x74>)
 800068c:	e002      	b.n	8000694 <_printf_longlong_dec+0x40>
 800068e:	0749      	lsls	r1, r1, #29
 8000690:	d501      	bpl.n	8000696 <_printf_longlong_dec+0x42>
 8000692:	a60e      	add	r6, pc, #56	; (adr r6, 80006cc <_printf_longlong_dec+0x78>)
 8000694:	2501      	movs	r5, #1
 8000696:	4611      	mov	r1, r2
 8000698:	2400      	movs	r4, #0
 800069a:	f108 0724 	add.w	r7, r8, #36	; 0x24
 800069e:	e004      	b.n	80006aa <_printf_longlong_dec+0x56>
 80006a0:	f000 f95c 	bl	800095c <_ll_udiv10>
 80006a4:	3230      	adds	r2, #48	; 0x30
 80006a6:	553a      	strb	r2, [r7, r4]
 80006a8:	1c64      	adds	r4, r4, #1
 80006aa:	ea50 0201 	orrs.w	r2, r0, r1
 80006ae:	d1f7      	bne.n	80006a0 <_printf_longlong_dec+0x4c>
 80006b0:	462b      	mov	r3, r5
 80006b2:	4632      	mov	r2, r6
 80006b4:	4621      	mov	r1, r4
 80006b6:	4640      	mov	r0, r8
 80006b8:	e8bd 41f0 	ldmia.w	sp!, {r4, r5, r6, r7, r8, lr}
 80006bc:	f000 b993 	b.w	80009e6 <_printf_int_common>
 80006c0:	00000000 	andeq	r0, r0, r0
 80006c4:	0000002d 	andeq	r0, r0, sp, lsr #32
 80006c8:	0000002b 	andeq	r0, r0, fp, lsr #32
 80006cc:	00000020 	andeq	r0, r0, r0, lsr #32

080006d0 <_printf_longlong_oct>:
_printf_longlong_oct():
 80006d0:	b430      	push	{r4, r5}
 80006d2:	2100      	movs	r1, #0
 80006d4:	f100 0424 	add.w	r4, r0, #36	; 0x24
 80006d8:	e008      	b.n	80006ec <_printf_longlong_oct+0x1c>
 80006da:	f002 0507 	and.w	r5, r2, #7
 80006de:	08d2      	lsrs	r2, r2, #3
 80006e0:	3530      	adds	r5, #48	; 0x30
 80006e2:	ea42 7243 	orr.w	r2, r2, r3, lsl #29
 80006e6:	08db      	lsrs	r3, r3, #3
 80006e8:	5465      	strb	r5, [r4, r1]
 80006ea:	1c49      	adds	r1, r1, #1
 80006ec:	ea52 0503 	orrs.w	r5, r2, r3
 80006f0:	d1f3      	bne.n	80006da <_printf_longlong_oct+0xa>
 80006f2:	6804      	ldr	r4, [r0, #0]
 80006f4:	2300      	movs	r3, #0
 80006f6:	a210      	add	r2, pc, #64	; (adr r2, 8000738 <_printf_ll_oct+0xc>)
 80006f8:	0725      	lsls	r5, r4, #28
 80006fa:	d508      	bpl.n	800070e <_printf_longlong_oct+0x3e>
 80006fc:	f004 0420 	and.w	r4, r4, #32
 8000700:	430c      	orrs	r4, r1
 8000702:	d004      	beq.n	800070e <_printf_longlong_oct+0x3e>
 8000704:	69c4      	ldr	r4, [r0, #28]
 8000706:	2301      	movs	r3, #1
 8000708:	a20c      	add	r2, pc, #48	; (adr r2, 800073c <_printf_ll_oct+0x10>)
 800070a:	1e64      	subs	r4, r4, #1
 800070c:	61c4      	str	r4, [r0, #28]
 800070e:	bc30      	pop	{r4, r5}
 8000710:	f000 b969 	b.w	80009e6 <_printf_int_common>

08000714 <_printf_int_oct>:
_printf_int_oct():
 8000714:	b510      	push	{r4, lr}
 8000716:	4604      	mov	r4, r0
 8000718:	4621      	mov	r1, r4
 800071a:	6810      	ldr	r0, [r2, #0]
 800071c:	f7ff fe9b 	bl	8000456 <_printf_truncate_unsigned>
 8000720:	4602      	mov	r2, r0
 8000722:	4620      	mov	r0, r4
 8000724:	e8bd 4010 	ldmia.w	sp!, {r4, lr}
 8000728:	2300      	movs	r3, #0
 800072a:	e7d1      	b.n	80006d0 <_printf_longlong_oct>

0800072c <_printf_ll_oct>:
_printf_ll_oct():
 800072c:	1dd2      	adds	r2, r2, #7
 800072e:	f022 0107 	bic.w	r1, r2, #7
 8000732:	e9d1 2300 	ldrd	r2, r3, [r1]
 8000736:	e7cb      	b.n	80006d0 <_printf_longlong_oct>
 8000738:	00000000 	andeq	r0, r0, r0
 800073c:	00000030 	andeq	r0, r0, r0, lsr r0

08000740 <_printf_longlong_hex>:
_printf_longlong_hex():
 8000740:	b4f0      	push	{r4, r5, r6, r7}
 8000742:	460d      	mov	r5, r1
 8000744:	8801      	ldrh	r1, [r0, #0]
 8000746:	0509      	lsls	r1, r1, #20
 8000748:	d502      	bpl.n	8000750 <_printf_longlong_hex+0x10>
 800074a:	4c21      	ldr	r4, [pc, #132]	; (80007d0 <_printf_hex_ptr+0x12>)
 800074c:	447c      	add	r4, pc
 800074e:	e002      	b.n	8000756 <_printf_longlong_hex+0x16>
 8000750:	4c1f      	ldr	r4, [pc, #124]	; (80007d0 <_printf_hex_ptr+0x12>)
 8000752:	447c      	add	r4, pc
 8000754:	340e      	adds	r4, #14
 8000756:	2100      	movs	r1, #0
 8000758:	f100 0624 	add.w	r6, r0, #36	; 0x24
 800075c:	e008      	b.n	8000770 <_printf_longlong_hex+0x30>
 800075e:	f002 070f 	and.w	r7, r2, #15
 8000762:	0912      	lsrs	r2, r2, #4
 8000764:	5de7      	ldrb	r7, [r4, r7]
 8000766:	ea42 7203 	orr.w	r2, r2, r3, lsl #28
 800076a:	091b      	lsrs	r3, r3, #4
 800076c:	5477      	strb	r7, [r6, r1]
 800076e:	1c49      	adds	r1, r1, #1
 8000770:	ea52 0703 	orrs.w	r7, r2, r3
 8000774:	d1f3      	bne.n	800075e <_printf_longlong_hex+0x1e>
 8000776:	7802      	ldrb	r2, [r0, #0]
 8000778:	2300      	movs	r3, #0
 800077a:	0712      	lsls	r2, r2, #28
 800077c:	d504      	bpl.n	8000788 <_printf_longlong_hex+0x48>
 800077e:	2d70      	cmp	r5, #112	; 0x70
 8000780:	d006      	beq.n	8000790 <_printf_longlong_hex+0x50>
 8000782:	b109      	cbz	r1, 8000788 <_printf_longlong_hex+0x48>
 8000784:	2302      	movs	r3, #2
 8000786:	3411      	adds	r4, #17
 8000788:	4622      	mov	r2, r4
 800078a:	bcf0      	pop	{r4, r5, r6, r7}
 800078c:	f000 b92b 	b.w	80009e6 <_printf_int_common>
 8000790:	2301      	movs	r3, #1
 8000792:	3410      	adds	r4, #16
 8000794:	e7f8      	b.n	8000788 <_printf_longlong_hex+0x48>

08000796 <_printf_int_hex>:
_printf_int_hex():
 8000796:	b570      	push	{r4, r5, r6, lr}
 8000798:	4604      	mov	r4, r0
 800079a:	460d      	mov	r5, r1
 800079c:	4621      	mov	r1, r4
 800079e:	6810      	ldr	r0, [r2, #0]
 80007a0:	f7ff fe59 	bl	8000456 <_printf_truncate_unsigned>
 80007a4:	4602      	mov	r2, r0
 80007a6:	4629      	mov	r1, r5
 80007a8:	4620      	mov	r0, r4
 80007aa:	e8bd 4070 	ldmia.w	sp!, {r4, r5, r6, lr}
 80007ae:	2300      	movs	r3, #0
 80007b0:	e7c6      	b.n	8000740 <_printf_longlong_hex>

080007b2 <_printf_ll_hex>:
_printf_ll_hex():
 80007b2:	1dd2      	adds	r2, r2, #7
 80007b4:	f022 0307 	bic.w	r3, r2, #7
 80007b8:	e9d3 2300 	ldrd	r2, r3, [r3]
 80007bc:	e7c0      	b.n	8000740 <_printf_longlong_hex>

080007be <_printf_hex_ptr>:
_printf_hex_ptr():
 80007be:	6803      	ldr	r3, [r0, #0]
 80007c0:	6812      	ldr	r2, [r2, #0]
 80007c2:	f043 0320 	orr.w	r3, r3, #32
 80007c6:	6003      	str	r3, [r0, #0]
 80007c8:	2308      	movs	r3, #8
 80007ca:	61c3      	str	r3, [r0, #28]
 80007cc:	2300      	movs	r3, #0
 80007ce:	e7b7      	b.n	8000740 <_printf_longlong_hex>
 80007d0:	00003594 	muleq	r0, r4, r5

080007d4 <__printf>:
__printf():
 80007d4:	e92d 5ff0 	stmdb	sp!, {r4, r5, r6, r7, r8, r9, sl, fp, ip, lr}
 80007d8:	4689      	mov	r9, r1
 80007da:	4604      	mov	r4, r0
 80007dc:	f04f 0a00 	mov.w	sl, #0
 80007e0:	f8df b174 	ldr.w	fp, [pc, #372]	; 8000958 <__printf+0x184>
 80007e4:	44fb      	add	fp, pc
 80007e6:	f8c0 a020 	str.w	sl, [r0, #32]
 80007ea:	4620      	mov	r0, r4
 80007ec:	68e1      	ldr	r1, [r4, #12]
 80007ee:	4788      	blx	r1
 80007f0:	2800      	cmp	r0, #0
 80007f2:	d074      	beq.n	80008de <__printf+0x10a>
 80007f4:	2825      	cmp	r0, #37	; 0x25
 80007f6:	d006      	beq.n	8000806 <__printf+0x32>
 80007f8:	e9d4 2101 	ldrd	r2, r1, [r4, #4]
 80007fc:	4790      	blx	r2
 80007fe:	6a20      	ldr	r0, [r4, #32]
 8000800:	1c40      	adds	r0, r0, #1
 8000802:	6220      	str	r0, [r4, #32]
 8000804:	e7f1      	b.n	80007ea <__printf+0x16>
 8000806:	2600      	movs	r6, #0
 8000808:	465f      	mov	r7, fp
 800080a:	4620      	mov	r0, r4
 800080c:	68e1      	ldr	r1, [r4, #12]
 800080e:	4788      	blx	r1
 8000810:	2820      	cmp	r0, #32
 8000812:	4605      	mov	r5, r0
 8000814:	db07      	blt.n	8000826 <__printf+0x52>
 8000816:	2d31      	cmp	r5, #49	; 0x31
 8000818:	d205      	bcs.n	8000826 <__printf+0x52>
 800081a:	1978      	adds	r0, r7, r5
 800081c:	f810 0c20 	ldrb.w	r0, [r0, #-32]
 8000820:	b108      	cbz	r0, 8000826 <__printf+0x52>
 8000822:	4306      	orrs	r6, r0
 8000824:	e7f1      	b.n	800080a <__printf+0x36>
 8000826:	07b0      	lsls	r0, r6, #30
 8000828:	d501      	bpl.n	800082e <__printf+0x5a>
 800082a:	f026 0604 	bic.w	r6, r6, #4
 800082e:	f8c4 a01c 	str.w	sl, [r4, #28]
 8000832:	2700      	movs	r7, #0
 8000834:	f8c4 a018 	str.w	sl, [r4, #24]
 8000838:	2d2a      	cmp	r5, #42	; 0x2a
 800083a:	d009      	beq.n	8000850 <__printf+0x7c>
 800083c:	4628      	mov	r0, r5
 800083e:	f003 fa07 	bl	8003c50 <_is_digit>
 8000842:	b338      	cbz	r0, 8000894 <__printf+0xc0>
 8000844:	eb04 0887 	add.w	r8, r4, r7, lsl #2
 8000848:	3d30      	subs	r5, #48	; 0x30
 800084a:	f8c8 5018 	str.w	r5, [r8, #24]
 800084e:	e019      	b.n	8000884 <__printf+0xb0>
 8000850:	f859 1b04 	ldr.w	r1, [r9], #4
 8000854:	4620      	mov	r0, r4
 8000856:	eb04 0287 	add.w	r2, r4, r7, lsl #2
 800085a:	6191      	str	r1, [r2, #24]
 800085c:	68e1      	ldr	r1, [r4, #12]
 800085e:	4788      	blx	r1
 8000860:	2f01      	cmp	r7, #1
 8000862:	4605      	mov	r5, r0
 8000864:	d118      	bne.n	8000898 <__printf+0xc4>
 8000866:	69e0      	ldr	r0, [r4, #28]
 8000868:	2800      	cmp	r0, #0
 800086a:	da20      	bge.n	80008ae <__printf+0xda>
 800086c:	f026 0620 	bic.w	r6, r6, #32
 8000870:	e01d      	b.n	80008ae <__printf+0xda>
 8000872:	f8d8 0018 	ldr.w	r0, [r8, #24]
 8000876:	eb00 0080 	add.w	r0, r0, r0, lsl #2
 800087a:	eb05 0040 	add.w	r0, r5, r0, lsl #1
 800087e:	3830      	subs	r0, #48	; 0x30
 8000880:	f8c8 0018 	str.w	r0, [r8, #24]
 8000884:	4620      	mov	r0, r4
 8000886:	68e1      	ldr	r1, [r4, #12]
 8000888:	4788      	blx	r1
 800088a:	4605      	mov	r5, r0
 800088c:	f003 f9e0 	bl	8003c50 <_is_digit>
 8000890:	2800      	cmp	r0, #0
 8000892:	d1ee      	bne.n	8000872 <__printf+0x9e>
 8000894:	2f01      	cmp	r7, #1
 8000896:	d00a      	beq.n	80008ae <__printf+0xda>
 8000898:	2d2e      	cmp	r5, #46	; 0x2e
 800089a:	d108      	bne.n	80008ae <__printf+0xda>
 800089c:	4620      	mov	r0, r4
 800089e:	68e1      	ldr	r1, [r4, #12]
 80008a0:	4788      	blx	r1
 80008a2:	1c7f      	adds	r7, r7, #1
 80008a4:	4605      	mov	r5, r0
 80008a6:	2f02      	cmp	r7, #2
 80008a8:	f046 0620 	orr.w	r6, r6, #32
 80008ac:	dbc4      	blt.n	8000838 <__printf+0x64>
 80008ae:	69a0      	ldr	r0, [r4, #24]
 80008b0:	2800      	cmp	r0, #0
 80008b2:	da03      	bge.n	80008bc <__printf+0xe8>
 80008b4:	4240      	negs	r0, r0
 80008b6:	f046 0601 	orr.w	r6, r6, #1
 80008ba:	61a0      	str	r0, [r4, #24]
 80008bc:	07f0      	lsls	r0, r6, #31
 80008be:	d001      	beq.n	80008c4 <__printf+0xf0>
 80008c0:	f026 0610 	bic.w	r6, r6, #16
 80008c4:	2d6c      	cmp	r5, #108	; 0x6c
 80008c6:	d00b      	beq.n	80008e0 <__printf+0x10c>
 80008c8:	2d68      	cmp	r5, #104	; 0x68
 80008ca:	d009      	beq.n	80008e0 <__printf+0x10c>
 80008cc:	2d4c      	cmp	r5, #76	; 0x4c
 80008ce:	d039      	beq.n	8000944 <__printf+0x170>
 80008d0:	2d6a      	cmp	r5, #106	; 0x6a
 80008d2:	d035      	beq.n	8000940 <__printf+0x16c>
 80008d4:	2d74      	cmp	r5, #116	; 0x74
 80008d6:	d035      	beq.n	8000944 <__printf+0x170>
 80008d8:	2d7a      	cmp	r5, #122	; 0x7a
 80008da:	d033      	beq.n	8000944 <__printf+0x170>
 80008dc:	e016      	b.n	800090c <__printf+0x138>
 80008de:	e038      	b.n	8000952 <__printf+0x17e>
 80008e0:	68e1      	ldr	r1, [r4, #12]
 80008e2:	462f      	mov	r7, r5
 80008e4:	4620      	mov	r0, r4
 80008e6:	4788      	blx	r1
 80008e8:	42b8      	cmp	r0, r7
 80008ea:	4605      	mov	r5, r0
 80008ec:	d109      	bne.n	8000902 <__printf+0x12e>
 80008ee:	2f6c      	cmp	r7, #108	; 0x6c
 80008f0:	d026      	beq.n	8000940 <__printf+0x16c>
 80008f2:	f44f 6080 	mov.w	r0, #1024	; 0x400
 80008f6:	68e1      	ldr	r1, [r4, #12]
 80008f8:	4306      	orrs	r6, r0
 80008fa:	4620      	mov	r0, r4
 80008fc:	4788      	blx	r1
 80008fe:	4605      	mov	r5, r0
 8000900:	e004      	b.n	800090c <__printf+0x138>
 8000902:	2f6c      	cmp	r7, #108	; 0x6c
 8000904:	d01a      	beq.n	800093c <__printf+0x168>
 8000906:	f44f 7080 	mov.w	r0, #256	; 0x100
 800090a:	4306      	orrs	r6, r0
 800090c:	b30d      	cbz	r5, 8000952 <__printf+0x17e>
 800090e:	f1a5 0041 	sub.w	r0, r5, #65	; 0x41
 8000912:	2819      	cmp	r0, #25
 8000914:	d802      	bhi.n	800091c <__printf+0x148>
 8000916:	3520      	adds	r5, #32
 8000918:	f446 6600 	orr.w	r6, r6, #2048	; 0x800
 800091c:	464a      	mov	r2, r9
 800091e:	4629      	mov	r1, r5
 8000920:	4620      	mov	r0, r4
 8000922:	6026      	str	r6, [r4, #0]
 8000924:	464e      	mov	r6, r9
 8000926:	f7ff fcc5 	bl	80002b4 <_printf_n>
 800092a:	b180      	cbz	r0, 800094e <__printf+0x17a>
 800092c:	2801      	cmp	r0, #1
 800092e:	d00b      	beq.n	8000948 <__printf+0x174>
 8000930:	1df6      	adds	r6, r6, #7
 8000932:	f026 0007 	bic.w	r0, r6, #7
 8000936:	f100 0908 	add.w	r9, r0, #8
 800093a:	e756      	b.n	80007ea <__printf+0x16>
 800093c:	2040      	movs	r0, #64	; 0x40
 800093e:	e7e4      	b.n	800090a <__printf+0x136>
 8000940:	2080      	movs	r0, #128	; 0x80
 8000942:	e7d8      	b.n	80008f6 <__printf+0x122>
 8000944:	2000      	movs	r0, #0
 8000946:	e7d6      	b.n	80008f6 <__printf+0x122>
 8000948:	f106 0904 	add.w	r9, r6, #4
 800094c:	e74d      	b.n	80007ea <__printf+0x16>
 800094e:	4628      	mov	r0, r5
 8000950:	e752      	b.n	80007f8 <__printf+0x24>
 8000952:	6a20      	ldr	r0, [r4, #32]
 8000954:	e8bd 9ff0 	ldmia.w	sp!, {r4, r5, r6, r7, r8, r9, sl, fp, ip, pc}
 8000958:	00003524 	andeq	r3, r0, r4, lsr #10

0800095c <_ll_udiv10>:
_ll_udiv10():
 800095c:	b530      	push	{r4, r5, lr}
 800095e:	f1b0 020a 	subs.w	r2, r0, #10
 8000962:	f171 0300 	sbcs.w	r3, r1, #0
 8000966:	ea4f 0e90 	mov.w	lr, r0, lsr #2
 800096a:	ea4e 7e81 	orr.w	lr, lr, r1, lsl #30
 800096e:	ebb0 000e 	subs.w	r0, r0, lr
 8000972:	eb61 0191 	sbc.w	r1, r1, r1, lsr #2
 8000976:	ea4f 1e10 	mov.w	lr, r0, lsr #4
 800097a:	ea4e 7e01 	orr.w	lr, lr, r1, lsl #28
 800097e:	eb10 000e 	adds.w	r0, r0, lr
 8000982:	eb41 1111 	adc.w	r1, r1, r1, lsr #4
 8000986:	ea4f 2e10 	mov.w	lr, r0, lsr #8
 800098a:	ea4e 6e01 	orr.w	lr, lr, r1, lsl #24
 800098e:	eb10 000e 	adds.w	r0, r0, lr
 8000992:	eb41 2111 	adc.w	r1, r1, r1, lsr #8
 8000996:	ea4f 4e10 	mov.w	lr, r0, lsr #16
 800099a:	ea4e 4e01 	orr.w	lr, lr, r1, lsl #16
 800099e:	eb10 000e 	adds.w	r0, r0, lr
 80009a2:	eb41 4111 	adc.w	r1, r1, r1, lsr #16
 80009a6:	1840      	adds	r0, r0, r1
 80009a8:	f141 0100 	adc.w	r1, r1, #0
 80009ac:	ea4f 00d0 	mov.w	r0, r0, lsr #3
 80009b0:	ea40 7041 	orr.w	r0, r0, r1, lsl #29
 80009b4:	ea4f 01d1 	mov.w	r1, r1, lsr #3
 80009b8:	ea4f 0481 	mov.w	r4, r1, lsl #2
 80009bc:	ea44 7490 	orr.w	r4, r4, r0, lsr #30
 80009c0:	eb10 0580 	adds.w	r5, r0, r0, lsl #2
 80009c4:	eb44 0401 	adc.w	r4, r4, r1
 80009c8:	196d      	adds	r5, r5, r5
 80009ca:	eb44 0404 	adc.w	r4, r4, r4
 80009ce:	1b52      	subs	r2, r2, r5
 80009d0:	41a3      	sbcs	r3, r4
 80009d2:	f04f 0300 	mov.w	r3, #0
 80009d6:	bf48      	it	mi
 80009d8:	320a      	addmi	r2, #10
 80009da:	d500      	bpl.n	80009de <_ll_udiv10+0x82>
 80009dc:	bd30      	pop	{r4, r5, pc}
 80009de:	1c40      	adds	r0, r0, #1
 80009e0:	f141 0100 	adc.w	r1, r1, #0
 80009e4:	bd30      	pop	{r4, r5, pc}

080009e6 <_printf_int_common>:
_printf_int_common():
 80009e6:	e92d 47f0 	stmdb	sp!, {r4, r5, r6, r7, r8, r9, sl, lr}
 80009ea:	460d      	mov	r5, r1
 80009ec:	4699      	mov	r9, r3
 80009ee:	4692      	mov	sl, r2
 80009f0:	4604      	mov	r4, r0
 80009f2:	f100 0824 	add.w	r8, r0, #36	; 0x24
 80009f6:	6801      	ldr	r1, [r0, #0]
 80009f8:	0688      	lsls	r0, r1, #26
 80009fa:	d504      	bpl.n	8000a06 <_printf_int_common+0x20>
 80009fc:	69e0      	ldr	r0, [r4, #28]
 80009fe:	f021 0110 	bic.w	r1, r1, #16
 8000a02:	6021      	str	r1, [r4, #0]
 8000a04:	e000      	b.n	8000a08 <_printf_int_common+0x22>
 8000a06:	2001      	movs	r0, #1
 8000a08:	42a8      	cmp	r0, r5
 8000a0a:	dd01      	ble.n	8000a10 <_printf_int_common+0x2a>
 8000a0c:	1b47      	subs	r7, r0, r5
 8000a0e:	e000      	b.n	8000a12 <_printf_int_common+0x2c>
 8000a10:	2700      	movs	r7, #0
 8000a12:	69a1      	ldr	r1, [r4, #24]
 8000a14:	197a      	adds	r2, r7, r5
 8000a16:	eb02 0009 	add.w	r0, r2, r9
 8000a1a:	1a08      	subs	r0, r1, r0
 8000a1c:	61a0      	str	r0, [r4, #24]
 8000a1e:	7820      	ldrb	r0, [r4, #0]
 8000a20:	06c0      	lsls	r0, r0, #27
 8000a22:	d402      	bmi.n	8000a2a <_printf_int_common+0x44>
 8000a24:	4620      	mov	r0, r4
 8000a26:	f7ff fce6 	bl	80003f6 <_printf_pre_padding>
 8000a2a:	2600      	movs	r6, #0
 8000a2c:	e008      	b.n	8000a40 <_printf_int_common+0x5a>
 8000a2e:	e9d4 2101 	ldrd	r2, r1, [r4, #4]
 8000a32:	f81a 0006 	ldrb.w	r0, [sl, r6]
 8000a36:	4790      	blx	r2
 8000a38:	6a20      	ldr	r0, [r4, #32]
 8000a3a:	1c40      	adds	r0, r0, #1
 8000a3c:	1c76      	adds	r6, r6, #1
 8000a3e:	6220      	str	r0, [r4, #32]
 8000a40:	454e      	cmp	r6, r9
 8000a42:	dbf4      	blt.n	8000a2e <_printf_int_common+0x48>
 8000a44:	7820      	ldrb	r0, [r4, #0]
 8000a46:	06c0      	lsls	r0, r0, #27
 8000a48:	d50a      	bpl.n	8000a60 <_printf_int_common+0x7a>
 8000a4a:	4620      	mov	r0, r4
 8000a4c:	f7ff fcd3 	bl	80003f6 <_printf_pre_padding>
 8000a50:	e006      	b.n	8000a60 <_printf_int_common+0x7a>
 8000a52:	e9d4 2101 	ldrd	r2, r1, [r4, #4]
 8000a56:	2030      	movs	r0, #48	; 0x30
 8000a58:	4790      	blx	r2
 8000a5a:	6a20      	ldr	r0, [r4, #32]
 8000a5c:	1c40      	adds	r0, r0, #1
 8000a5e:	6220      	str	r0, [r4, #32]
 8000a60:	1e38      	subs	r0, r7, #0
 8000a62:	f1a7 0701 	sub.w	r7, r7, #1
 8000a66:	dcf4      	bgt.n	8000a52 <_printf_int_common+0x6c>
 8000a68:	e007      	b.n	8000a7a <_printf_int_common+0x94>
 8000a6a:	e9d4 2101 	ldrd	r2, r1, [r4, #4]
 8000a6e:	f818 0005 	ldrb.w	r0, [r8, r5]
 8000a72:	4790      	blx	r2
 8000a74:	6a20      	ldr	r0, [r4, #32]
 8000a76:	1c40      	adds	r0, r0, #1
 8000a78:	6220      	str	r0, [r4, #32]
 8000a7a:	1e28      	subs	r0, r5, #0
 8000a7c:	f1a5 0501 	sub.w	r5, r5, #1
 8000a80:	dcf3      	bgt.n	8000a6a <_printf_int_common+0x84>
 8000a82:	4620      	mov	r0, r4
 8000a84:	f7ff fccd 	bl	8000422 <_printf_post_padding>
 8000a88:	7820      	ldrb	r0, [r4, #0]
 8000a8a:	0600      	lsls	r0, r0, #24
 8000a8c:	d502      	bpl.n	8000a94 <_printf_int_common+0xae>
 8000a8e:	2002      	movs	r0, #2
 8000a90:	e8bd 87f0 	ldmia.w	sp!, {r4, r5, r6, r7, r8, r9, sl, pc}
 8000a94:	2001      	movs	r0, #1
 8000a96:	e7fb      	b.n	8000a90 <_printf_int_common+0xaa>

08000a98 <_fp_digits>:
_fp_digits():
 8000a98:	e92d 4fff 	stmdb	sp!, {r0, r1, r2, r3, r4, r5, r6, r7, r8, r9, sl, fp, lr}
 8000a9c:	460c      	mov	r4, r1
 8000a9e:	461e      	mov	r6, r3
 8000aa0:	f04f 37ff 	mov.w	r7, #4294967295	; 0xffffffff
 8000aa4:	b08b      	sub	sp, #44	; 0x2c
 8000aa6:	e9d2 0100 	ldrd	r0, r1, [r2]
 8000aaa:	f8dd 8060 	ldr.w	r8, [sp, #96]	; 0x60
 8000aae:	900a      	str	r0, [sp, #40]	; 0x28
 8000ab0:	468a      	mov	sl, r1
 8000ab2:	f3c1 550a 	ubfx	r5, r1, #20, #11
 8000ab6:	b905      	cbnz	r5, 8000aba <_fp_digits+0x22>
 8000ab8:	463d      	mov	r5, r7
 8000aba:	2100      	movs	r1, #0
 8000abc:	4608      	mov	r0, r1
 8000abe:	f04f 0000 	mov.w	r0, #0
 8000ac2:	f1ba 0f00 	cmp.w	sl, #0
 8000ac6:	f400 0040 	and.w	r0, r0, #12582912	; 0xc00000
 8000aca:	da05      	bge.n	8000ad8 <_fp_digits+0x40>
 8000acc:	eb00 0080 	add.w	r0, r0, r0, lsl #2
 8000ad0:	f44f 0140 	mov.w	r1, #12582912	; 0xc00000
 8000ad4:	ea01 0050 	and.w	r0, r1, r0, lsr #1
 8000ad8:	ea4f 5990 	mov.w	r9, r0, lsr #22
 8000adc:	f1b9 0f01 	cmp.w	r9, #1
 8000ae0:	dd00      	ble.n	8000ae4 <_fp_digits+0x4c>
 8000ae2:	46b9      	mov	r9, r7
 8000ae4:	980a      	ldr	r0, [sp, #40]	; 0x28
 8000ae6:	ea50 004a 	orrs.w	r0, r0, sl, lsl #1
 8000aea:	d00e      	beq.n	8000b0a <_fp_digits+0x72>
 8000aec:	f644 5010 	movw	r0, #19728	; 0x4d10
 8000af0:	f2a5 35ff 	subw	r5, r5, #1023	; 0x3ff
 8000af4:	4345      	muls	r5, r0
 8000af6:	142f      	asrs	r7, r5, #16
 8000af8:	f1b8 0f00 	cmp.w	r8, #0
 8000afc:	d01e      	beq.n	8000b3c <_fp_digits+0xa4>
 8000afe:	4275      	negs	r5, r6
 8000b00:	1e29      	subs	r1, r5, #0
 8000b02:	dd1e      	ble.n	8000b42 <_fp_digits+0xaa>
 8000b04:	f1c9 0200 	rsb	r2, r9, #0
 8000b08:	e01c      	b.n	8000b44 <_fp_digits+0xac>
 8000b0a:	f1b8 0f01 	cmp.w	r8, #1
 8000b0e:	f04f 0000 	mov.w	r0, #0
 8000b12:	d001      	beq.n	8000b18 <_fp_digits+0x80>
 8000b14:	2130      	movs	r1, #48	; 0x30
 8000b16:	e003      	b.n	8000b20 <_fp_digits+0x88>
 8000b18:	43f2      	mvns	r2, r6
 8000b1a:	e005      	b.n	8000b28 <_fp_digits+0x90>
 8000b1c:	5421      	strb	r1, [r4, r0]
 8000b1e:	1c40      	adds	r0, r0, #1
 8000b20:	42b0      	cmp	r0, r6
 8000b22:	dbfb      	blt.n	8000b1c <_fp_digits+0x84>
 8000b24:	4630      	mov	r0, r6
 8000b26:	2200      	movs	r2, #0
 8000b28:	2100      	movs	r1, #0
 8000b2a:	5421      	strb	r1, [r4, r0]
 8000b2c:	990b      	ldr	r1, [sp, #44]	; 0x2c
 8000b2e:	f8c1 8008 	str.w	r8, [r1, #8]
 8000b32:	e9c1 2000 	strd	r2, r0, [r1]
 8000b36:	b00f      	add	sp, #60	; 0x3c
 8000b38:	e8bd 8ff0 	ldmia.w	sp!, {r4, r5, r6, r7, r8, r9, sl, fp, pc}
 8000b3c:	1bbd      	subs	r5, r7, r6
 8000b3e:	1c6d      	adds	r5, r5, #1
 8000b40:	e7de      	b.n	8000b00 <_fp_digits+0x68>
 8000b42:	464a      	mov	r2, r9
 8000b44:	da00      	bge.n	8000b48 <_fp_digits+0xb0>
 8000b46:	4269      	negs	r1, r5
 8000b48:	a806      	add	r0, sp, #24
 8000b4a:	f000 fbf3 	bl	8001334 <_btod_etento>
 8000b4e:	ab06      	add	r3, sp, #24
 8000b50:	e893 0007 	ldmia.w	r3, {r0, r1, r2}
 8000b54:	ab03      	add	r3, sp, #12
 8000b56:	e883 0007 	stmia.w	r3, {r0, r1, r2}
 8000b5a:	4650      	mov	r0, sl
 8000b5c:	990a      	ldr	r1, [sp, #40]	; 0x28
 8000b5e:	f002 fc96 	bl	800348e <_btod_d2e>
 8000b62:	e88d 0007 	stmia.w	sp, {r0, r1, r2}
 8000b66:	f5a0 5000 	sub.w	r0, r0, #8192	; 0x2000
 8000b6a:	381f      	subs	r0, #31
 8000b6c:	9000      	str	r0, [sp, #0]
 8000b6e:	9803      	ldr	r0, [sp, #12]
 8000b70:	2d00      	cmp	r5, #0
 8000b72:	dd0a      	ble.n	8000b8a <_fp_digits+0xf2>
 8000b74:	f242 011f 	movw	r1, #8223	; 0x201f
 8000b78:	464a      	mov	r2, r9
 8000b7a:	4408      	add	r0, r1
 8000b7c:	2300      	movs	r3, #0
 8000b7e:	a903      	add	r1, sp, #12
 8000b80:	9003      	str	r0, [sp, #12]
 8000b82:	4668      	mov	r0, sp
 8000b84:	f002 ff00 	bl	8003988 <_btod_ediv>
 8000b88:	e009      	b.n	8000b9e <_fp_digits+0x106>
 8000b8a:	f5a0 5000 	sub.w	r0, r0, #8192	; 0x2000
 8000b8e:	464a      	mov	r2, r9
 8000b90:	381f      	subs	r0, #31
 8000b92:	2300      	movs	r3, #0
 8000b94:	a903      	add	r1, sp, #12
 8000b96:	9003      	str	r0, [sp, #12]
 8000b98:	4668      	mov	r0, sp
 8000b9a:	f002 ff0a 	bl	80039b2 <_btod_emul>
 8000b9e:	e88d 0007 	stmia.w	sp, {r0, r1, r2}
 8000ba2:	0400      	lsls	r0, r0, #16
 8000ba4:	0c00      	lsrs	r0, r0, #16
 8000ba6:	d003      	beq.n	8000bb0 <_fp_digits+0x118>
 8000ba8:	f04f 30ff 	mov.w	r0, #4294967295	; 0xffffffff
 8000bac:	0841      	lsrs	r1, r0, #1
 8000bae:	e000      	b.n	8000bb2 <_fp_digits+0x11a>
 8000bb0:	4610      	mov	r0, r2
 8000bb2:	f1b8 0f00 	cmp.w	r8, #0
 8000bb6:	d003      	beq.n	8000bc0 <_fp_digits+0x128>
 8000bb8:	2200      	movs	r2, #0
 8000bba:	9200      	str	r2, [sp, #0]
 8000bbc:	4615      	mov	r5, r2
 8000bbe:	e01e      	b.n	8000bfe <_fp_digits+0x166>
 8000bc0:	1e75      	subs	r5, r6, #1
 8000bc2:	d405      	bmi.n	8000bd0 <_fp_digits+0x138>
 8000bc4:	f7ff feca 	bl	800095c <_ll_udiv10>
 8000bc8:	3230      	adds	r2, #48	; 0x30
 8000bca:	5562      	strb	r2, [r4, r5]
 8000bcc:	1e6d      	subs	r5, r5, #1
 8000bce:	d5f9      	bpl.n	8000bc4 <_fp_digits+0x12c>
 8000bd0:	46b3      	mov	fp, r6
 8000bd2:	2201      	movs	r2, #1
 8000bd4:	4308      	orrs	r0, r1
 8000bd6:	d002      	beq.n	8000bde <_fp_digits+0x146>
 8000bd8:	2200      	movs	r2, #0
 8000bda:	1c7f      	adds	r7, r7, #1
 8000bdc:	e004      	b.n	8000be8 <_fp_digits+0x150>
 8000bde:	7820      	ldrb	r0, [r4, #0]
 8000be0:	2830      	cmp	r0, #48	; 0x30
 8000be2:	d101      	bne.n	8000be8 <_fp_digits+0x150>
 8000be4:	2200      	movs	r2, #0
 8000be6:	1e7f      	subs	r7, r7, #1
 8000be8:	2a00      	cmp	r2, #0
 8000bea:	9709      	str	r7, [sp, #36]	; 0x24
 8000bec:	d084      	beq.n	8000af8 <_fp_digits+0x60>
 8000bee:	e01d      	b.n	8000c2c <_fp_digits+0x194>
 8000bf0:	2d11      	cmp	r5, #17
 8000bf2:	da07      	bge.n	8000c04 <_fp_digits+0x16c>
 8000bf4:	f7ff feb2 	bl	800095c <_ll_udiv10>
 8000bf8:	3230      	adds	r2, #48	; 0x30
 8000bfa:	5562      	strb	r2, [r4, r5]
 8000bfc:	1c6d      	adds	r5, r5, #1
 8000bfe:	ea50 0201 	orrs.w	r2, r0, r1
 8000c02:	d1f5      	bne.n	8000bf0 <_fp_digits+0x158>
 8000c04:	4308      	orrs	r0, r1
 8000c06:	d002      	beq.n	8000c0e <_fp_digits+0x176>
 8000c08:	9800      	ldr	r0, [sp, #0]
 8000c0a:	b1c8      	cbz	r0, 8000c40 <_fp_digits+0x1a8>
 8000c0c:	e00e      	b.n	8000c2c <_fp_digits+0x194>
 8000c0e:	2100      	movs	r1, #0
 8000c10:	1e68      	subs	r0, r5, #1
 8000c12:	e005      	b.n	8000c20 <_fp_digits+0x188>
 8000c14:	5c23      	ldrb	r3, [r4, r0]
 8000c16:	5c62      	ldrb	r2, [r4, r1]
 8000c18:	5463      	strb	r3, [r4, r1]
 8000c1a:	5422      	strb	r2, [r4, r0]
 8000c1c:	1e40      	subs	r0, r0, #1
 8000c1e:	1c49      	adds	r1, r1, #1
 8000c20:	4281      	cmp	r1, r0
 8000c22:	dbf7      	blt.n	8000c14 <_fp_digits+0x17c>
 8000c24:	46ab      	mov	fp, r5
 8000c26:	1ba8      	subs	r0, r5, r6
 8000c28:	1e40      	subs	r0, r0, #1
 8000c2a:	9009      	str	r0, [sp, #36]	; 0x24
 8000c2c:	2000      	movs	r0, #0
 8000c2e:	f804 000b 	strb.w	r0, [r4, fp]
 8000c32:	980b      	ldr	r0, [sp, #44]	; 0x2c
 8000c34:	9a09      	ldr	r2, [sp, #36]	; 0x24
 8000c36:	f8c0 8008 	str.w	r8, [r0, #8]
 8000c3a:	e9c0 2b00 	strd	r2, fp, [r0]
 8000c3e:	e77a      	b.n	8000b36 <_fp_digits+0x9e>
 8000c40:	2611      	movs	r6, #17
 8000c42:	f04f 0800 	mov.w	r8, #0
 8000c46:	e757      	b.n	8000af8 <_fp_digits+0x60>

08000c48 <_printf_fp_dec_real>:
_printf_fp_dec_real():
 8000c48:	e92d 4ff0 	stmdb	sp!, {r4, r5, r6, r7, r8, r9, sl, fp, lr}
 8000c4c:	4688      	mov	r8, r1
 8000c4e:	4604      	mov	r4, r0
 8000c50:	1dd2      	adds	r2, r2, #7
 8000c52:	f022 0107 	bic.w	r1, r2, #7
 8000c56:	b091      	sub	sp, #68	; 0x44
 8000c58:	e9d1 0100 	ldrd	r0, r1, [r1]
 8000c5c:	e9cd 010a 	strd	r0, r1, [sp, #40]	; 0x28
 8000c60:	f002 ffde 	bl	8003c20 <__ARM_fpclassify>
 8000c64:	4602      	mov	r2, r0
 8000c66:	980b      	ldr	r0, [sp, #44]	; 0x2c
 8000c68:	0fc0      	lsrs	r0, r0, #31
 8000c6a:	d001      	beq.n	8000c70 <_printf_fp_dec_real+0x28>
 8000c6c:	202d      	movs	r0, #45	; 0x2d
 8000c6e:	e007      	b.n	8000c80 <_printf_fp_dec_real+0x38>
 8000c70:	6820      	ldr	r0, [r4, #0]
 8000c72:	0781      	lsls	r1, r0, #30
 8000c74:	d501      	bpl.n	8000c7a <_printf_fp_dec_real+0x32>
 8000c76:	202b      	movs	r0, #43	; 0x2b
 8000c78:	e002      	b.n	8000c80 <_printf_fp_dec_real+0x38>
 8000c7a:	2120      	movs	r1, #32
 8000c7c:	ea01 00c0 	and.w	r0, r1, r0, lsl #3
 8000c80:	2a03      	cmp	r2, #3
 8000c82:	9009      	str	r0, [sp, #36]	; 0x24
 8000c84:	d001      	beq.n	8000c8a <_printf_fp_dec_real+0x42>
 8000c86:	2a07      	cmp	r2, #7
 8000c88:	db05      	blt.n	8000c96 <_printf_fp_dec_real+0x4e>
 8000c8a:	4603      	mov	r3, r0
 8000c8c:	4641      	mov	r1, r8
 8000c8e:	4620      	mov	r0, r4
 8000c90:	f000 fb10 	bl	80012b4 <_printf_fp_infnan>
 8000c94:	e10b      	b.n	8000eae <_printf_fp_dec_real+0x266>
 8000c96:	7820      	ldrb	r0, [r4, #0]
 8000c98:	0680      	lsls	r0, r0, #26
 8000c9a:	d501      	bpl.n	8000ca0 <_printf_fp_dec_real+0x58>
 8000c9c:	69e0      	ldr	r0, [r4, #28]
 8000c9e:	e000      	b.n	8000ca2 <_printf_fp_dec_real+0x5a>
 8000ca0:	2006      	movs	r0, #6
 8000ca2:	f1b8 0f65 	cmp.w	r8, #101	; 0x65
 8000ca6:	4681      	mov	r9, r0
 8000ca8:	d006      	beq.n	8000cb8 <_printf_fp_dec_real+0x70>
 8000caa:	f1b8 0f66 	cmp.w	r8, #102	; 0x66
 8000cae:	d018      	beq.n	8000ce2 <_printf_fp_dec_real+0x9a>
 8000cb0:	f1b8 0f67 	cmp.w	r8, #103	; 0x67
 8000cb4:	d170      	bne.n	8000d98 <_printf_fp_dec_real+0x150>
 8000cb6:	e031      	b.n	8000d1c <_printf_fp_dec_real+0xd4>
 8000cb8:	2000      	movs	r0, #0
 8000cba:	f1b9 0f11 	cmp.w	r9, #17
 8000cbe:	9000      	str	r0, [sp, #0]
 8000cc0:	db01      	blt.n	8000cc6 <_printf_fp_dec_real+0x7e>
 8000cc2:	2311      	movs	r3, #17
 8000cc4:	e001      	b.n	8000cca <_printf_fp_dec_real+0x82>
 8000cc6:	f109 0301 	add.w	r3, r9, #1
 8000cca:	aa0a      	add	r2, sp, #40	; 0x28
 8000ccc:	a901      	add	r1, sp, #4
 8000cce:	a80c      	add	r0, sp, #48	; 0x30
 8000cd0:	f7ff fee2 	bl	8000a98 <_fp_digits>
 8000cd4:	e9dd 700c 	ldrd	r7, r0, [sp, #48]	; 0x30
 8000cd8:	2600      	movs	r6, #0
 8000cda:	f109 0501 	add.w	r5, r9, #1
 8000cde:	4683      	mov	fp, r0
 8000ce0:	e047      	b.n	8000d72 <_printf_fp_dec_real+0x12a>
 8000ce2:	2001      	movs	r0, #1
 8000ce4:	464b      	mov	r3, r9
 8000ce6:	9000      	str	r0, [sp, #0]
 8000ce8:	f04f 4700 	mov.w	r7, #2147483648	; 0x80000000
 8000cec:	aa0a      	add	r2, sp, #40	; 0x28
 8000cee:	a901      	add	r1, sp, #4
 8000cf0:	a80c      	add	r0, sp, #48	; 0x30
 8000cf2:	f7ff fed1 	bl	8000a98 <_fp_digits>
 8000cf6:	e9dd b00d 	ldrd	fp, r0, [sp, #52]	; 0x34
 8000cfa:	990c      	ldr	r1, [sp, #48]	; 0x30
 8000cfc:	465d      	mov	r5, fp
 8000cfe:	2600      	movs	r6, #0
 8000d00:	b910      	cbnz	r0, 8000d08 <_printf_fp_dec_real+0xc0>
 8000d02:	f109 0001 	add.w	r0, r9, #1
 8000d06:	180d      	adds	r5, r1, r0
 8000d08:	ebb9 0005 	subs.w	r0, r9, r5
 8000d0c:	d403      	bmi.n	8000d16 <_printf_fp_dec_real+0xce>
 8000d0e:	f1c0 36ff 	rsb	r6, r0, #4294967295	; 0xffffffff
 8000d12:	f109 0501 	add.w	r5, r9, #1
 8000d16:	eba5 0009 	sub.w	r0, r5, r9
 8000d1a:	e02b      	b.n	8000d74 <_printf_fp_dec_real+0x12c>
 8000d1c:	f1b9 0f01 	cmp.w	r9, #1
 8000d20:	da01      	bge.n	8000d26 <_printf_fp_dec_real+0xde>
 8000d22:	f04f 0901 	mov.w	r9, #1
 8000d26:	2000      	movs	r0, #0
 8000d28:	f1b9 0f11 	cmp.w	r9, #17
 8000d2c:	9000      	str	r0, [sp, #0]
 8000d2e:	4648      	mov	r0, r9
 8000d30:	dd01      	ble.n	8000d36 <_printf_fp_dec_real+0xee>
 8000d32:	2311      	movs	r3, #17
 8000d34:	e000      	b.n	8000d38 <_printf_fp_dec_real+0xf0>
 8000d36:	4603      	mov	r3, r0
 8000d38:	aa0a      	add	r2, sp, #40	; 0x28
 8000d3a:	a901      	add	r1, sp, #4
 8000d3c:	a80c      	add	r0, sp, #48	; 0x30
 8000d3e:	f7ff feab 	bl	8000a98 <_fp_digits>
 8000d42:	e9dd 700c 	ldrd	r7, r0, [sp, #48]	; 0x30
 8000d46:	464d      	mov	r5, r9
 8000d48:	2600      	movs	r6, #0
 8000d4a:	4683      	mov	fp, r0
 8000d4c:	7820      	ldrb	r0, [r4, #0]
 8000d4e:	0700      	lsls	r0, r0, #28
 8000d50:	d40a      	bmi.n	8000d68 <_printf_fp_dec_real+0x120>
 8000d52:	45ab      	cmp	fp, r5
 8000d54:	da00      	bge.n	8000d58 <_printf_fp_dec_real+0x110>
 8000d56:	465d      	mov	r5, fp
 8000d58:	a801      	add	r0, sp, #4
 8000d5a:	2d01      	cmp	r5, #1
 8000d5c:	dd04      	ble.n	8000d68 <_printf_fp_dec_real+0x120>
 8000d5e:	1941      	adds	r1, r0, r5
 8000d60:	f811 1c01 	ldrb.w	r1, [r1, #-1]
 8000d64:	2930      	cmp	r1, #48	; 0x30
 8000d66:	d007      	beq.n	8000d78 <_printf_fp_dec_real+0x130>
 8000d68:	454f      	cmp	r7, r9
 8000d6a:	da02      	bge.n	8000d72 <_printf_fp_dec_real+0x12a>
 8000d6c:	f117 0f04 	cmn.w	r7, #4
 8000d70:	da04      	bge.n	8000d7c <_printf_fp_dec_real+0x134>
 8000d72:	2001      	movs	r0, #1
 8000d74:	4682      	mov	sl, r0
 8000d76:	e00f      	b.n	8000d98 <_printf_fp_dec_real+0x150>
 8000d78:	1e6d      	subs	r5, r5, #1
 8000d7a:	e7ee      	b.n	8000d5a <_printf_fp_dec_real+0x112>
 8000d7c:	2f00      	cmp	r7, #0
 8000d7e:	dc02      	bgt.n	8000d86 <_printf_fp_dec_real+0x13e>
 8000d80:	1bed      	subs	r5, r5, r7
 8000d82:	443e      	add	r6, r7
 8000d84:	e003      	b.n	8000d8e <_printf_fp_dec_real+0x146>
 8000d86:	1c78      	adds	r0, r7, #1
 8000d88:	42a8      	cmp	r0, r5
 8000d8a:	dd00      	ble.n	8000d8e <_printf_fp_dec_real+0x146>
 8000d8c:	1c7d      	adds	r5, r7, #1
 8000d8e:	1bb8      	subs	r0, r7, r6
 8000d90:	f100 0a01 	add.w	sl, r0, #1
 8000d94:	f04f 4700 	mov.w	r7, #2147483648	; 0x80000000
 8000d98:	7820      	ldrb	r0, [r4, #0]
 8000d9a:	0700      	lsls	r0, r0, #28
 8000d9c:	d403      	bmi.n	8000da6 <_printf_fp_dec_real+0x15e>
 8000d9e:	45aa      	cmp	sl, r5
 8000da0:	db01      	blt.n	8000da6 <_printf_fp_dec_real+0x15e>
 8000da2:	f04f 3aff 	mov.w	sl, #4294967295	; 0xffffffff
 8000da6:	2100      	movs	r1, #0
 8000da8:	f1b7 4f00 	cmp.w	r7, #2147483648	; 0x80000000
 8000dac:	f10d 0843 	add.w	r8, sp, #67	; 0x43
 8000db0:	f88d 1043 	strb.w	r1, [sp, #67]	; 0x43
 8000db4:	d024      	beq.n	8000e00 <_printf_fp_dec_real+0x1b8>
 8000db6:	2002      	movs	r0, #2
 8000db8:	232b      	movs	r3, #43	; 0x2b
 8000dba:	2f00      	cmp	r7, #0
 8000dbc:	da01      	bge.n	8000dc2 <_printf_fp_dec_real+0x17a>
 8000dbe:	427f      	negs	r7, r7
 8000dc0:	232d      	movs	r3, #45	; 0x2d
 8000dc2:	210a      	movs	r1, #10
 8000dc4:	1e02      	subs	r2, r0, #0
 8000dc6:	f1a0 0001 	sub.w	r0, r0, #1
 8000dca:	dc00      	bgt.n	8000dce <_printf_fp_dec_real+0x186>
 8000dcc:	b15f      	cbz	r7, 8000de6 <_printf_fp_dec_real+0x19e>
 8000dce:	fb97 fcf1 	sdiv	ip, r7, r1
 8000dd2:	fb97 f2f1 	sdiv	r2, r7, r1
 8000dd6:	fb01 7c1c 	mls	ip, r1, ip, r7
 8000dda:	4617      	mov	r7, r2
 8000ddc:	f10c 0c30 	add.w	ip, ip, #48	; 0x30
 8000de0:	f808 cd01 	strb.w	ip, [r8, #-1]!
 8000de4:	e7ee      	b.n	8000dc4 <_printf_fp_dec_real+0x17c>
 8000de6:	f1a8 0001 	sub.w	r0, r8, #1
 8000dea:	7003      	strb	r3, [r0, #0]
 8000dec:	8821      	ldrh	r1, [r4, #0]
 8000dee:	0509      	lsls	r1, r1, #20
 8000df0:	d501      	bpl.n	8000df6 <_printf_fp_dec_real+0x1ae>
 8000df2:	2145      	movs	r1, #69	; 0x45
 8000df4:	e000      	b.n	8000df8 <_printf_fp_dec_real+0x1b0>
 8000df6:	2165      	movs	r1, #101	; 0x65
 8000df8:	f1a0 0801 	sub.w	r8, r0, #1
 8000dfc:	f800 1c01 	strb.w	r1, [r0, #-1]
 8000e00:	9809      	ldr	r0, [sp, #36]	; 0x24
 8000e02:	a90f      	add	r1, sp, #60	; 0x3c
 8000e04:	eba1 0708 	sub.w	r7, r1, r8
 8000e08:	1dff      	adds	r7, r7, #7
 8000e0a:	b100      	cbz	r0, 8000e0e <_printf_fp_dec_real+0x1c6>
 8000e0c:	2001      	movs	r0, #1
 8000e0e:	1941      	adds	r1, r0, r5
 8000e10:	eb01 70ea 	add.w	r0, r1, sl, asr #31
 8000e14:	69a1      	ldr	r1, [r4, #24]
 8000e16:	4438      	add	r0, r7
 8000e18:	1a08      	subs	r0, r1, r0
 8000e1a:	1e40      	subs	r0, r0, #1
 8000e1c:	61a0      	str	r0, [r4, #24]
 8000e1e:	7820      	ldrb	r0, [r4, #0]
 8000e20:	06c0      	lsls	r0, r0, #27
 8000e22:	d402      	bmi.n	8000e2a <_printf_fp_dec_real+0x1e2>
 8000e24:	4620      	mov	r0, r4
 8000e26:	f7ff fae6 	bl	80003f6 <_printf_pre_padding>
 8000e2a:	9809      	ldr	r0, [sp, #36]	; 0x24
 8000e2c:	b128      	cbz	r0, 8000e3a <_printf_fp_dec_real+0x1f2>
 8000e2e:	e9d4 2101 	ldrd	r2, r1, [r4, #4]
 8000e32:	4790      	blx	r2
 8000e34:	6a20      	ldr	r0, [r4, #32]
 8000e36:	1c40      	adds	r0, r0, #1
 8000e38:	6220      	str	r0, [r4, #32]
 8000e3a:	7820      	ldrb	r0, [r4, #0]
 8000e3c:	06c0      	lsls	r0, r0, #27
 8000e3e:	d522      	bpl.n	8000e86 <_printf_fp_dec_real+0x23e>
 8000e40:	4620      	mov	r0, r4
 8000e42:	f7ff fad8 	bl	80003f6 <_printf_pre_padding>
 8000e46:	e01e      	b.n	8000e86 <_printf_fp_dec_real+0x23e>
 8000e48:	2e00      	cmp	r6, #0
 8000e4a:	db04      	blt.n	8000e56 <_printf_fp_dec_real+0x20e>
 8000e4c:	45b3      	cmp	fp, r6
 8000e4e:	dd02      	ble.n	8000e56 <_printf_fp_dec_real+0x20e>
 8000e50:	a801      	add	r0, sp, #4
 8000e52:	5d80      	ldrb	r0, [r0, r6]
 8000e54:	e000      	b.n	8000e58 <_printf_fp_dec_real+0x210>
 8000e56:	2030      	movs	r0, #48	; 0x30
 8000e58:	e9d4 2101 	ldrd	r2, r1, [r4, #4]
 8000e5c:	4790      	blx	r2
 8000e5e:	6a20      	ldr	r0, [r4, #32]
 8000e60:	1c40      	adds	r0, r0, #1
 8000e62:	6220      	str	r0, [r4, #32]
 8000e64:	1c76      	adds	r6, r6, #1
 8000e66:	f1aa 0001 	sub.w	r0, sl, #1
 8000e6a:	ea5f 0a00 	movs.w	sl, r0
 8000e6e:	d10a      	bne.n	8000e86 <_printf_fp_dec_real+0x23e>
 8000e70:	f000 fa1c 	bl	80012ac <__rt_locale>
 8000e74:	68c0      	ldr	r0, [r0, #12]
 8000e76:	6801      	ldr	r1, [r0, #0]
 8000e78:	5c40      	ldrb	r0, [r0, r1]
 8000e7a:	e9d4 2101 	ldrd	r2, r1, [r4, #4]
 8000e7e:	4790      	blx	r2
 8000e80:	6a20      	ldr	r0, [r4, #32]
 8000e82:	1c40      	adds	r0, r0, #1
 8000e84:	6220      	str	r0, [r4, #32]
 8000e86:	1e28      	subs	r0, r5, #0
 8000e88:	f1a5 0501 	sub.w	r5, r5, #1
 8000e8c:	dcdc      	bgt.n	8000e48 <_printf_fp_dec_real+0x200>
 8000e8e:	e007      	b.n	8000ea0 <_printf_fp_dec_real+0x258>
 8000e90:	e9d4 2101 	ldrd	r2, r1, [r4, #4]
 8000e94:	f818 0b01 	ldrb.w	r0, [r8], #1
 8000e98:	4790      	blx	r2
 8000e9a:	6a20      	ldr	r0, [r4, #32]
 8000e9c:	1c40      	adds	r0, r0, #1
 8000e9e:	6220      	str	r0, [r4, #32]
 8000ea0:	1e38      	subs	r0, r7, #0
 8000ea2:	f1a7 0701 	sub.w	r7, r7, #1
 8000ea6:	dcf3      	bgt.n	8000e90 <_printf_fp_dec_real+0x248>
 8000ea8:	4620      	mov	r0, r4
 8000eaa:	f7ff faba 	bl	8000422 <_printf_post_padding>
 8000eae:	2003      	movs	r0, #3
 8000eb0:	b011      	add	sp, #68	; 0x44
 8000eb2:	e641      	b.n	8000b38 <_fp_digits+0xa0>

08000eb4 <_printf_fp_hex_real>:
_printf_fp_hex_real():
 8000eb4:	e92d 4ff0 	stmdb	sp!, {r4, r5, r6, r7, r8, r9, sl, fp, lr}
 8000eb8:	4604      	mov	r4, r0
 8000eba:	460d      	mov	r5, r1
 8000ebc:	1dd2      	adds	r2, r2, #7
 8000ebe:	f022 0007 	bic.w	r0, r2, #7
 8000ec2:	b089      	sub	sp, #36	; 0x24
 8000ec4:	e9d0 9700 	ldrd	r9, r7, [r0]
 8000ec8:	4648      	mov	r0, r9
 8000eca:	4639      	mov	r1, r7
 8000ecc:	f002 fea8 	bl	8003c20 <__ARM_fpclassify>
 8000ed0:	4602      	mov	r2, r0
 8000ed2:	0ff8      	lsrs	r0, r7, #31
 8000ed4:	d001      	beq.n	8000eda <_printf_fp_hex_real+0x26>
 8000ed6:	232d      	movs	r3, #45	; 0x2d
 8000ed8:	e007      	b.n	8000eea <_printf_fp_hex_real+0x36>
 8000eda:	6820      	ldr	r0, [r4, #0]
 8000edc:	0781      	lsls	r1, r0, #30
 8000ede:	d501      	bpl.n	8000ee4 <_printf_fp_hex_real+0x30>
 8000ee0:	232b      	movs	r3, #43	; 0x2b
 8000ee2:	e002      	b.n	8000eea <_printf_fp_hex_real+0x36>
 8000ee4:	2120      	movs	r1, #32
 8000ee6:	ea01 03c0 	and.w	r3, r1, r0, lsl #3
 8000eea:	f88d 3020 	strb.w	r3, [sp, #32]
 8000eee:	b10b      	cbz	r3, 8000ef4 <_printf_fp_hex_real+0x40>
 8000ef0:	2001      	movs	r0, #1
 8000ef2:	e000      	b.n	8000ef6 <_printf_fp_hex_real+0x42>
 8000ef4:	2000      	movs	r0, #0
 8000ef6:	2a03      	cmp	r2, #3
 8000ef8:	4682      	mov	sl, r0
 8000efa:	d001      	beq.n	8000f00 <_printf_fp_hex_real+0x4c>
 8000efc:	2a07      	cmp	r2, #7
 8000efe:	db04      	blt.n	8000f0a <_printf_fp_hex_real+0x56>
 8000f00:	4629      	mov	r1, r5
 8000f02:	4620      	mov	r0, r4
 8000f04:	f000 f9d6 	bl	80012b4 <_printf_fp_infnan>
 8000f08:	e13f      	b.n	800118a <_printf_fp_hex_real+0x2d6>
 8000f0a:	7820      	ldrb	r0, [r4, #0]
 8000f0c:	0680      	lsls	r0, r0, #26
 8000f0e:	d401      	bmi.n	8000f14 <_printf_fp_hex_real+0x60>
 8000f10:	250d      	movs	r5, #13
 8000f12:	e000      	b.n	8000f16 <_printf_fp_hex_real+0x62>
 8000f14:	69e5      	ldr	r5, [r4, #28]
 8000f16:	f3c7 560a 	ubfx	r6, r7, #20, #11
 8000f1a:	2d0d      	cmp	r5, #13
 8000f1c:	da49      	bge.n	8000fb2 <_printf_fp_hex_real+0xfe>
 8000f1e:	2100      	movs	r1, #0
 8000f20:	ea4f 5b17 	mov.w	fp, r7, lsr #20
 8000f24:	4608      	mov	r0, r1
 8000f26:	f04f 0000 	mov.w	r0, #0
 8000f2a:	2f00      	cmp	r7, #0
 8000f2c:	f400 0040 	and.w	r0, r0, #12582912	; 0xc00000
 8000f30:	da07      	bge.n	8000f42 <_printf_fp_hex_real+0x8e>
 8000f32:	eb00 0080 	add.w	r0, r0, r0, lsl #2
 8000f36:	f44f 0140 	mov.w	r1, #12582912	; 0xc00000
 8000f3a:	eb00 70d0 	add.w	r0, r0, r0, lsr #31
 8000f3e:	ea01 0060 	and.w	r0, r1, r0, asr #1
 8000f42:	1581      	asrs	r1, r0, #22
 8000f44:	2901      	cmp	r1, #1
 8000f46:	dd01      	ble.n	8000f4c <_printf_fp_hex_real+0x98>
 8000f48:	f04f 31ff 	mov.w	r1, #4294967295	; 0xffffffff
 8000f4c:	2200      	movs	r2, #0
 8000f4e:	ea4f 0c85 	mov.w	ip, r5, lsl #2
 8000f52:	f1bc 0f18 	cmp.w	ip, #24
 8000f56:	d306      	bcc.n	8000f66 <_printf_fp_hex_real+0xb2>
 8000f58:	4613      	mov	r3, r2
 8000f5a:	f1ac 0018 	sub.w	r0, ip, #24
 8000f5e:	f04f 5280 	mov.w	r2, #268435456	; 0x10000000
 8000f62:	40c2      	lsrs	r2, r0
 8000f64:	e003      	b.n	8000f6e <_printf_fp_hex_real+0xba>
 8000f66:	f44f 1380 	mov.w	r3, #1048576	; 0x100000
 8000f6a:	fa23 f30c 	lsr.w	r3, r3, ip
 8000f6e:	f10c 0c0c 	add.w	ip, ip, #12
 8000f72:	f1bc 0f20 	cmp.w	ip, #32
 8000f76:	d304      	bcc.n	8000f82 <_printf_fp_hex_real+0xce>
 8000f78:	f1ac 0c20 	sub.w	ip, ip, #32
 8000f7c:	fa09 f00c 	lsl.w	r0, r9, ip
 8000f80:	e001      	b.n	8000f86 <_printf_fp_hex_real+0xd2>
 8000f82:	fa07 f00c 	lsl.w	r0, r7, ip
 8000f86:	2900      	cmp	r1, #0
 8000f88:	f04f 4800 	mov.w	r8, #2147483648	; 0x80000000
 8000f8c:	dd01      	ble.n	8000f92 <_printf_fp_hex_real+0xde>
 8000f8e:	b918      	cbnz	r0, 8000f98 <_printf_fp_hex_real+0xe4>
 8000f90:	e00f      	b.n	8000fb2 <_printf_fp_hex_real+0xfe>
 8000f92:	d10e      	bne.n	8000fb2 <_printf_fp_hex_real+0xfe>
 8000f94:	4540      	cmp	r0, r8
 8000f96:	d30c      	bcc.n	8000fb2 <_printf_fp_hex_real+0xfe>
 8000f98:	eb19 0902 	adds.w	r9, r9, r2
 8000f9c:	415f      	adcs	r7, r3
 8000f9e:	b921      	cbnz	r1, 8000faa <_printf_fp_hex_real+0xf6>
 8000fa0:	4540      	cmp	r0, r8
 8000fa2:	d102      	bne.n	8000faa <_printf_fp_hex_real+0xf6>
 8000fa4:	439f      	bics	r7, r3
 8000fa6:	ea29 0902 	bic.w	r9, r9, r2
 8000faa:	ebbb 5f17 	cmp.w	fp, r7, lsr #20
 8000fae:	d000      	beq.n	8000fb2 <_printf_fp_hex_real+0xfe>
 8000fb0:	1c76      	adds	r6, r6, #1
 8000fb2:	8820      	ldrh	r0, [r4, #0]
 8000fb4:	0500      	lsls	r0, r0, #20
 8000fb6:	d502      	bpl.n	8000fbe <_printf_fp_hex_real+0x10a>
 8000fb8:	487b      	ldr	r0, [pc, #492]	; (80011a8 <_printf_fp_hex_real+0x2f4>)
 8000fba:	4478      	add	r0, pc
 8000fbc:	e002      	b.n	8000fc4 <_printf_fp_hex_real+0x110>
 8000fbe:	487a      	ldr	r0, [pc, #488]	; (80011a8 <_printf_fp_hex_real+0x2f4>)
 8000fc0:	4478      	add	r0, pc
 8000fc2:	3819      	subs	r0, #25
 8000fc4:	aa08      	add	r2, sp, #32
 8000fc6:	2330      	movs	r3, #48	; 0x30
 8000fc8:	f802 300a 	strb.w	r3, [r2, sl]
 8000fcc:	7c03      	ldrb	r3, [r0, #16]
 8000fce:	f10a 0101 	add.w	r1, sl, #1
 8000fd2:	2e00      	cmp	r6, #0
 8000fd4:	f10a 0a02 	add.w	sl, sl, #2
 8000fd8:	5453      	strb	r3, [r2, r1]
 8000fda:	466a      	mov	r2, sp
 8000fdc:	dc02      	bgt.n	8000fe4 <_printf_fp_hex_real+0x130>
 8000fde:	f04f 0130 	mov.w	r1, #48	; 0x30
 8000fe2:	e001      	b.n	8000fe8 <_printf_fp_hex_real+0x134>
 8000fe4:	f04f 0131 	mov.w	r1, #49	; 0x31
 8000fe8:	f04f 0801 	mov.w	r8, #1
 8000fec:	f88d 1000 	strb.w	r1, [sp]
 8000ff0:	d002      	beq.n	8000ff8 <_printf_fp_hex_real+0x144>
 8000ff2:	f2a6 36ff 	subw	r6, r6, #1023	; 0x3ff
 8000ff6:	e003      	b.n	8001000 <_printf_fp_hex_real+0x14c>
 8000ff8:	ea59 0147 	orrs.w	r1, r9, r7, lsl #1
 8000ffc:	d000      	beq.n	8001000 <_printf_fp_hex_real+0x14c>
 8000ffe:	4e6b      	ldr	r6, [pc, #428]	; (80011ac <_printf_fp_hex_real+0x2f8>)
 8001000:	2d00      	cmp	r5, #0
 8001002:	dc02      	bgt.n	800100a <_printf_fp_hex_real+0x156>
 8001004:	7821      	ldrb	r1, [r4, #0]
 8001006:	0709      	lsls	r1, r1, #28
 8001008:	d504      	bpl.n	8001014 <_printf_fp_hex_real+0x160>
 800100a:	f04f 0802 	mov.w	r8, #2
 800100e:	212e      	movs	r1, #46	; 0x2e
 8001010:	f88d 1001 	strb.w	r1, [sp, #1]
 8001014:	46c4      	mov	ip, r8
 8001016:	2100      	movs	r1, #0
 8001018:	e00b      	b.n	8001032 <_printf_fp_hex_real+0x17e>
 800101a:	f3c7 4303 	ubfx	r3, r7, #16, #4
 800101e:	013f      	lsls	r7, r7, #4
 8001020:	5cc3      	ldrb	r3, [r0, r3]
 8001022:	1c49      	adds	r1, r1, #1
 8001024:	1e6d      	subs	r5, r5, #1
 8001026:	f802 3008 	strb.w	r3, [r2, r8]
 800102a:	2905      	cmp	r1, #5
 800102c:	f108 0801 	add.w	r8, r8, #1
 8001030:	da01      	bge.n	8001036 <_printf_fp_hex_real+0x182>
 8001032:	2d00      	cmp	r5, #0
 8001034:	dcf1      	bgt.n	800101a <_printf_fp_hex_real+0x166>
 8001036:	2100      	movs	r1, #0
 8001038:	e00c      	b.n	8001054 <_printf_fp_hex_real+0x1a0>
 800103a:	eb00 7319 	add.w	r3, r0, r9, lsr #28
 800103e:	1c49      	adds	r1, r1, #1
 8001040:	781b      	ldrb	r3, [r3, #0]
 8001042:	1e6d      	subs	r5, r5, #1
 8001044:	2908      	cmp	r1, #8
 8001046:	f802 3008 	strb.w	r3, [r2, r8]
 800104a:	ea4f 1909 	mov.w	r9, r9, lsl #4
 800104e:	f108 0801 	add.w	r8, r8, #1
 8001052:	da01      	bge.n	8001058 <_printf_fp_hex_real+0x1a4>
 8001054:	2d00      	cmp	r5, #0
 8001056:	dcf0      	bgt.n	800103a <_printf_fp_hex_real+0x186>
 8001058:	6821      	ldr	r1, [r4, #0]
 800105a:	068b      	lsls	r3, r1, #26
 800105c:	d502      	bpl.n	8001064 <_printf_fp_hex_real+0x1b0>
 800105e:	e016      	b.n	800108e <_printf_fp_hex_real+0x1da>
 8001060:	f1a8 0801 	sub.w	r8, r8, #1
 8001064:	45e0      	cmp	r8, ip
 8001066:	dd05      	ble.n	8001074 <_printf_fp_hex_real+0x1c0>
 8001068:	eb02 0308 	add.w	r3, r2, r8
 800106c:	f813 3c01 	ldrb.w	r3, [r3, #-1]
 8001070:	2b30      	cmp	r3, #48	; 0x30
 8001072:	d0f5      	beq.n	8001060 <_printf_fp_hex_real+0x1ac>
 8001074:	f1b8 0f00 	cmp.w	r8, #0
 8001078:	dd09      	ble.n	800108e <_printf_fp_hex_real+0x1da>
 800107a:	eb02 0308 	add.w	r3, r2, r8
 800107e:	f813 3c01 	ldrb.w	r3, [r3, #-1]
 8001082:	2b2e      	cmp	r3, #46	; 0x2e
 8001084:	d103      	bne.n	800108e <_printf_fp_hex_real+0x1da>
 8001086:	0709      	lsls	r1, r1, #28
 8001088:	d401      	bmi.n	800108e <_printf_fp_hex_real+0x1da>
 800108a:	f1a8 0801 	sub.w	r8, r8, #1
 800108e:	2d00      	cmp	r5, #0
 8001090:	dd05      	ble.n	800109e <_printf_fp_hex_real+0x1ea>
 8001092:	213e      	movs	r1, #62	; 0x3e
 8001094:	f802 1008 	strb.w	r1, [r2, r8]
 8001098:	1e6d      	subs	r5, r5, #1
 800109a:	f108 0801 	add.w	r8, r8, #1
 800109e:	7c40      	ldrb	r0, [r0, #17]
 80010a0:	2e00      	cmp	r6, #0
 80010a2:	f802 0008 	strb.w	r0, [r2, r8]
 80010a6:	f108 0801 	add.w	r8, r8, #1
 80010aa:	da04      	bge.n	80010b6 <_printf_fp_hex_real+0x202>
 80010ac:	202d      	movs	r0, #45	; 0x2d
 80010ae:	4276      	negs	r6, r6
 80010b0:	f802 0008 	strb.w	r0, [r2, r8]
 80010b4:	e002      	b.n	80010bc <_printf_fp_hex_real+0x208>
 80010b6:	202b      	movs	r0, #43	; 0x2b
 80010b8:	f802 0008 	strb.w	r0, [r2, r8]
 80010bc:	210a      	movs	r1, #10
 80010be:	f44f 707a 	mov.w	r0, #1000	; 0x3e8
 80010c2:	4286      	cmp	r6, r0
 80010c4:	f108 0801 	add.w	r8, r8, #1
 80010c8:	db0b      	blt.n	80010e2 <_printf_fp_hex_real+0x22e>
 80010ca:	fb96 f3f0 	sdiv	r3, r6, r0
 80010ce:	3330      	adds	r3, #48	; 0x30
 80010d0:	f802 3008 	strb.w	r3, [r2, r8]
 80010d4:	fb96 f3f0 	sdiv	r3, r6, r0
 80010d8:	f108 0801 	add.w	r8, r8, #1
 80010dc:	fb00 6613 	mls	r6, r0, r3, r6
 80010e0:	e001      	b.n	80010e6 <_printf_fp_hex_real+0x232>
 80010e2:	2e64      	cmp	r6, #100	; 0x64
 80010e4:	db0c      	blt.n	8001100 <_printf_fp_hex_real+0x24c>
 80010e6:	2064      	movs	r0, #100	; 0x64
 80010e8:	fb96 f3f0 	sdiv	r3, r6, r0
 80010ec:	3330      	adds	r3, #48	; 0x30
 80010ee:	f802 3008 	strb.w	r3, [r2, r8]
 80010f2:	fb96 f3f0 	sdiv	r3, r6, r0
 80010f6:	f108 0801 	add.w	r8, r8, #1
 80010fa:	fb00 6613 	mls	r6, r0, r3, r6
 80010fe:	e001      	b.n	8001104 <_printf_fp_hex_real+0x250>
 8001100:	2e0a      	cmp	r6, #10
 8001102:	db06      	blt.n	8001112 <_printf_fp_hex_real+0x25e>
 8001104:	fb96 f0f1 	sdiv	r0, r6, r1
 8001108:	3030      	adds	r0, #48	; 0x30
 800110a:	f802 0008 	strb.w	r0, [r2, r8]
 800110e:	f108 0801 	add.w	r8, r8, #1
 8001112:	fb96 f0f1 	sdiv	r0, r6, r1
 8001116:	fb01 6010 	mls	r0, r1, r0, r6
 800111a:	3030      	adds	r0, #48	; 0x30
 800111c:	f802 0008 	strb.w	r0, [r2, r8]
 8001120:	69a1      	ldr	r1, [r4, #24]
 8001122:	f108 0801 	add.w	r8, r8, #1
 8001126:	eb08 0205 	add.w	r2, r8, r5
 800112a:	eb02 000a 	add.w	r0, r2, sl
 800112e:	1a08      	subs	r0, r1, r0
 8001130:	61a0      	str	r0, [r4, #24]
 8001132:	7820      	ldrb	r0, [r4, #0]
 8001134:	06c0      	lsls	r0, r0, #27
 8001136:	d402      	bmi.n	800113e <_printf_fp_hex_real+0x28a>
 8001138:	4620      	mov	r0, r4
 800113a:	f7ff f95c 	bl	80003f6 <_printf_pre_padding>
 800113e:	6a21      	ldr	r1, [r4, #32]
 8001140:	ae08      	add	r6, sp, #32
 8001142:	eb01 000a 	add.w	r0, r1, sl
 8001146:	6220      	str	r0, [r4, #32]
 8001148:	e004      	b.n	8001154 <_printf_fp_hex_real+0x2a0>
 800114a:	e9d4 2101 	ldrd	r2, r1, [r4, #4]
 800114e:	f816 0b01 	ldrb.w	r0, [r6], #1
 8001152:	4790      	blx	r2
 8001154:	f1ba 0a01 	subs.w	sl, sl, #1
 8001158:	d2f7      	bcs.n	800114a <_printf_fp_hex_real+0x296>
 800115a:	7820      	ldrb	r0, [r4, #0]
 800115c:	06c0      	lsls	r0, r0, #27
 800115e:	d502      	bpl.n	8001166 <_printf_fp_hex_real+0x2b2>
 8001160:	4620      	mov	r0, r4
 8001162:	f7ff f948 	bl	80003f6 <_printf_pre_padding>
 8001166:	466e      	mov	r6, sp
 8001168:	e009      	b.n	800117e <_printf_fp_hex_real+0x2ca>
 800116a:	f816 0b01 	ldrb.w	r0, [r6], #1
 800116e:	283e      	cmp	r0, #62	; 0x3e
 8001170:	d00f      	beq.n	8001192 <_printf_fp_hex_real+0x2de>
 8001172:	e9d4 2101 	ldrd	r2, r1, [r4, #4]
 8001176:	4790      	blx	r2
 8001178:	6a20      	ldr	r0, [r4, #32]
 800117a:	1c40      	adds	r0, r0, #1
 800117c:	6220      	str	r0, [r4, #32]
 800117e:	f1b8 0801 	subs.w	r8, r8, #1
 8001182:	d2f2      	bcs.n	800116a <_printf_fp_hex_real+0x2b6>
 8001184:	4620      	mov	r0, r4
 8001186:	f7ff f94c 	bl	8000422 <_printf_post_padding>
 800118a:	b009      	add	sp, #36	; 0x24
 800118c:	2003      	movs	r0, #3
 800118e:	e8bd 8ff0 	ldmia.w	sp!, {r4, r5, r6, r7, r8, r9, sl, fp, pc}
 8001192:	6a20      	ldr	r0, [r4, #32]
 8001194:	4428      	add	r0, r5
 8001196:	6220      	str	r0, [r4, #32]
 8001198:	e003      	b.n	80011a2 <_printf_fp_hex_real+0x2ee>
 800119a:	e9d4 2101 	ldrd	r2, r1, [r4, #4]
 800119e:	2030      	movs	r0, #48	; 0x30
 80011a0:	4790      	blx	r2
 80011a2:	1e6d      	subs	r5, r5, #1
 80011a4:	d3eb      	bcc.n	800117e <_printf_fp_hex_real+0x2ca>
 80011a6:	e7f8      	b.n	800119a <_printf_fp_hex_real+0x2e6>
 80011a8:	00002d72 	andeq	r2, r0, r2, ror sp
 80011ac:	fffffc02 			; <UNDEFINED> instruction: 0xfffffc02

080011b0 <_printf_cs_common>:
_printf_cs_common():
 80011b0:	b510      	push	{r4, lr}
 80011b2:	6943      	ldr	r3, [r0, #20]
 80011b4:	b113      	cbz	r3, 80011bc <_printf_cs_common+0xc>
 80011b6:	f3af 8000 	nop.w
 80011ba:	e001      	b.n	80011c0 <_printf_cs_common+0x10>
 80011bc:	f7ff f954 	bl	8000468 <_printf_str>
 80011c0:	2001      	movs	r0, #1
 80011c2:	bd10      	pop	{r4, pc}

080011c4 <_printf_char>:
_printf_char():
 80011c4:	7812      	ldrb	r2, [r2, #0]
 80011c6:	f100 0124 	add.w	r1, r0, #36	; 0x24
 80011ca:	700a      	strb	r2, [r1, #0]
 80011cc:	2200      	movs	r2, #0
 80011ce:	704a      	strb	r2, [r1, #1]
 80011d0:	2201      	movs	r2, #1
 80011d2:	e7ed      	b.n	80011b0 <_printf_cs_common>

080011d4 <_printf_string>:
_printf_string():
 80011d4:	6811      	ldr	r1, [r2, #0]
 80011d6:	f04f 32ff 	mov.w	r2, #4294967295	; 0xffffffff
 80011da:	e7e9      	b.n	80011b0 <_printf_cs_common>

080011dc <_printf_lcs_common>:
_printf_lcs_common():
 80011dc:	b510      	push	{r4, lr}
 80011de:	6943      	ldr	r3, [r0, #20]
 80011e0:	b113      	cbz	r3, 80011e8 <_printf_lcs_common+0xc>
 80011e2:	f3af 8000 	nop.w
 80011e6:	e001      	b.n	80011ec <_printf_lcs_common+0x10>
 80011e8:	f7ff f9d6 	bl	8000598 <_printf_wctomb>
 80011ec:	2001      	movs	r0, #1
 80011ee:	bd10      	pop	{r4, pc}

080011f0 <_printf_wchar>:
_printf_wchar():
 80011f0:	8812      	ldrh	r2, [r2, #0]
 80011f2:	f100 0124 	add.w	r1, r0, #36	; 0x24
 80011f6:	8482      	strh	r2, [r0, #36]	; 0x24
 80011f8:	2200      	movs	r2, #0
 80011fa:	84c2      	strh	r2, [r0, #38]	; 0x26
 80011fc:	2201      	movs	r2, #1
 80011fe:	e7ed      	b.n	80011dc <_printf_lcs_common>

08001200 <_printf_wstring>:
_printf_wstring():
 8001200:	6811      	ldr	r1, [r2, #0]
 8001202:	f04f 32ff 	mov.w	r2, #4294967295	; 0xffffffff
 8001206:	e7e9      	b.n	80011dc <_printf_lcs_common>

08001208 <_c16rtomb>:
_c16rtomb():
 8001208:	e92d 41f0 	stmdb	sp!, {r4, r5, r6, r7, r8, lr}
 800120c:	4616      	mov	r6, r2
 800120e:	460c      	mov	r4, r1
 8001210:	4605      	mov	r5, r0
 8001212:	f000 f843 	bl	800129c <__rt_ctype_table>
 8001216:	6803      	ldr	r3, [r0, #0]
 8001218:	f893 0101 	ldrb.w	r0, [r3, #257]	; 0x101
 800121c:	2801      	cmp	r0, #1
 800121e:	d007      	beq.n	8001230 <_c16rtomb+0x28>
 8001220:	2cff      	cmp	r4, #255	; 0xff
 8001222:	d812      	bhi.n	800124a <_c16rtomb+0x42>
 8001224:	5d18      	ldrb	r0, [r3, r4]
 8001226:	b180      	cbz	r0, 800124a <_c16rtomb+0x42>
 8001228:	2001      	movs	r0, #1
 800122a:	702c      	strb	r4, [r5, #0]
 800122c:	e8bd 81f0 	ldmia.w	sp!, {r4, r5, r6, r7, r8, pc}
 8001230:	f8d3 0107 	ldr.w	r0, [r3, #263]	; 0x107
 8001234:	4632      	mov	r2, r6
 8001236:	4621      	mov	r1, r4
 8001238:	f203 1307 	addw	r3, r3, #263	; 0x107
 800123c:	18c7      	adds	r7, r0, r3
 800123e:	4628      	mov	r0, r5
 8001240:	46bc      	mov	ip, r7
 8001242:	e8bd 41f0 	ldmia.w	sp!, {r4, r5, r6, r7, r8, lr}
 8001246:	2300      	movs	r3, #0
 8001248:	4760      	bx	ip
 800124a:	f04f 30ff 	mov.w	r0, #4294967295	; 0xffffffff
 800124e:	e7ed      	b.n	800122c <_c16rtomb+0x24>

08001250 <__user_setup_stackheap>:
__user_setup_stackheap():
 8001250:	4675      	mov	r5, lr
 8001252:	f000 f8eb 	bl	800142c <__user_libspace>
 8001256:	46ae      	mov	lr, r5
 8001258:	0005      	movs	r5, r0
 800125a:	4669      	mov	r1, sp
 800125c:	4653      	mov	r3, sl
 800125e:	f020 0007 	bic.w	r0, r0, #7
 8001262:	4685      	mov	sp, r0
 8001264:	b018      	add	sp, #96	; 0x60
 8001266:	b520      	push	{r5, lr}
 8001268:	f7ff f89e 	bl	80003a8 <__user_initial_stackheap>
 800126c:	e8bd 4020 	ldmia.w	sp!, {r5, lr}
 8001270:	f04f 0600 	mov.w	r6, #0
 8001274:	f04f 0700 	mov.w	r7, #0
 8001278:	f04f 0800 	mov.w	r8, #0
 800127c:	f04f 0b00 	mov.w	fp, #0
 8001280:	46ac      	mov	ip, r5
 8001282:	e8ac 09c0 	stmia.w	ip!, {r6, r7, r8, fp}
 8001286:	e8ac 09c0 	stmia.w	ip!, {r6, r7, r8, fp}
 800128a:	e8ac 09c0 	stmia.w	ip!, {r6, r7, r8, fp}
 800128e:	e8ac 09c0 	stmia.w	ip!, {r6, r7, r8, fp}
 8001292:	f021 0107 	bic.w	r1, r1, #7
 8001296:	468d      	mov	sp, r1
 8001298:	4770      	bx	lr
	...

0800129c <__rt_ctype_table>:
__rt_ctype_table():
 800129c:	b510      	push	{r4, lr}
 800129e:	f000 f805 	bl	80012ac <__rt_locale>
 80012a2:	1d00      	adds	r0, r0, #4
 80012a4:	bd10      	pop	{r4, pc}
 80012a6:	bf00      	nop
 80012a8:	000029e5 	andeq	r2, r0, r5, ror #19

080012ac <__rt_locale>:
__rt_locale():
 80012ac:	4800      	ldr	r0, [pc, #0]	; (80012b0 <__rt_locale+0x4>)
 80012ae:	4770      	bx	lr
 80012b0:	20023440 	andcs	r3, r2, r0, asr #8

080012b4 <_printf_fp_infnan>:
_printf_fp_infnan():
 80012b4:	e92d 41f0 	stmdb	sp!, {r4, r5, r6, r7, r8, lr}
 80012b8:	461f      	mov	r7, r3
 80012ba:	4604      	mov	r4, r0
 80012bc:	2603      	movs	r6, #3
 80012be:	6801      	ldr	r1, [r0, #0]
 80012c0:	2a07      	cmp	r2, #7
 80012c2:	f401 6000 	and.w	r0, r1, #2048	; 0x800
 80012c6:	db04      	blt.n	80012d2 <_printf_fp_infnan+0x1e>
 80012c8:	b108      	cbz	r0, 80012ce <_printf_fp_infnan+0x1a>
 80012ca:	a516      	add	r5, pc, #88	; (adr r5, 8001324 <_printf_fp_infnan+0x70>)
 80012cc:	e005      	b.n	80012da <_printf_fp_infnan+0x26>
 80012ce:	a516      	add	r5, pc, #88	; (adr r5, 8001328 <_printf_fp_infnan+0x74>)
 80012d0:	e003      	b.n	80012da <_printf_fp_infnan+0x26>
 80012d2:	b108      	cbz	r0, 80012d8 <_printf_fp_infnan+0x24>
 80012d4:	a515      	add	r5, pc, #84	; (adr r5, 800132c <_printf_fp_infnan+0x78>)
 80012d6:	e000      	b.n	80012da <_printf_fp_infnan+0x26>
 80012d8:	a515      	add	r5, pc, #84	; (adr r5, 8001330 <_printf_fp_infnan+0x7c>)
 80012da:	f021 0010 	bic.w	r0, r1, #16
 80012de:	6020      	str	r0, [r4, #0]
 80012e0:	69a0      	ldr	r0, [r4, #24]
 80012e2:	1ec0      	subs	r0, r0, #3
 80012e4:	61a0      	str	r0, [r4, #24]
 80012e6:	b10f      	cbz	r7, 80012ec <_printf_fp_infnan+0x38>
 80012e8:	1e40      	subs	r0, r0, #1
 80012ea:	61a0      	str	r0, [r4, #24]
 80012ec:	4620      	mov	r0, r4
 80012ee:	f7ff f882 	bl	80003f6 <_printf_pre_padding>
 80012f2:	b14f      	cbz	r7, 8001308 <_printf_fp_infnan+0x54>
 80012f4:	e9d4 2101 	ldrd	r2, r1, [r4, #4]
 80012f8:	4638      	mov	r0, r7
 80012fa:	4790      	blx	r2
 80012fc:	6a20      	ldr	r0, [r4, #32]
 80012fe:	1c40      	adds	r0, r0, #1
 8001300:	6220      	str	r0, [r4, #32]
 8001302:	1cc0      	adds	r0, r0, #3
 8001304:	6220      	str	r0, [r4, #32]
 8001306:	e006      	b.n	8001316 <_printf_fp_infnan+0x62>
 8001308:	6a20      	ldr	r0, [r4, #32]
 800130a:	e7fa      	b.n	8001302 <_printf_fp_infnan+0x4e>
 800130c:	e9d4 2101 	ldrd	r2, r1, [r4, #4]
 8001310:	f815 0b01 	ldrb.w	r0, [r5], #1
 8001314:	4790      	blx	r2
 8001316:	1e76      	subs	r6, r6, #1
 8001318:	d2f8      	bcs.n	800130c <_printf_fp_infnan+0x58>
 800131a:	4620      	mov	r0, r4
 800131c:	f7ff f881 	bl	8000422 <_printf_post_padding>
 8001320:	e8bd 81f0 	ldmia.w	sp!, {r4, r5, r6, r7, r8, pc}
 8001324:	004e414e 	subeq	r4, lr, lr, asr #2
 8001328:	006e616e 	rsbeq	r6, lr, lr, ror #2
 800132c:	00464e49 	subeq	r4, r6, r9, asr #28
 8001330:	00666e69 	rsbeq	r6, r6, r9, ror #28

08001334 <_btod_etento>:
_btod_etento():
 8001334:	e92d 47f0 	stmdb	sp!, {r4, r5, r6, r7, r8, r9, sl, lr}
 8001338:	4681      	mov	r9, r0
 800133a:	4616      	mov	r6, r2
 800133c:	b08a      	sub	sp, #40	; 0x28
 800133e:	4835      	ldr	r0, [pc, #212]	; (8001414 <_btod_etento+0xe0>)
 8001340:	4478      	add	r0, pc
 8001342:	c80d      	ldmia	r0, {r0, r2, r3}
 8001344:	e88d 000d 	stmia.w	sp, {r0, r2, r3}
 8001348:	4832      	ldr	r0, [pc, #200]	; (8001414 <_btod_etento+0xe0>)
 800134a:	4478      	add	r0, pc
 800134c:	1c80      	adds	r0, r0, #2
 800134e:	ac03      	add	r4, sp, #12
 8001350:	c80d      	ldmia	r0, {r0, r2, r3}
 8001352:	e884 000d 	stmia.w	r4, {r0, r2, r3}
 8001356:	f641 309b 	movw	r0, #7067	; 0x1b9b
 800135a:	4408      	add	r0, r1
 800135c:	2137      	movs	r1, #55	; 0x37
 800135e:	fb90 f2f1 	sdiv	r2, r0, r1
 8001362:	fb90 f5f1 	sdiv	r5, r0, r1
 8001366:	f1a5 0580 	sub.w	r5, r5, #128	; 0x80
 800136a:	fb01 0412 	mls	r4, r1, r2, r0
 800136e:	3c1b      	subs	r4, #27
 8001370:	d502      	bpl.n	8001378 <_btod_etento+0x44>
 8001372:	4264      	negs	r4, r4
 8001374:	2001      	movs	r0, #1
 8001376:	e000      	b.n	800137a <_btod_etento+0x46>
 8001378:	2000      	movs	r0, #0
 800137a:	f8df a098 	ldr.w	sl, [pc, #152]	; 8001414 <_btod_etento+0xe0>
 800137e:	4680      	mov	r8, r0
 8001380:	2700      	movs	r7, #0
 8001382:	44fa      	add	sl, pc
 8001384:	f1aa 0abe 	sub.w	sl, sl, #190	; 0xbe
 8001388:	e00e      	b.n	80013a8 <_btod_etento+0x74>
 800138a:	07e0      	lsls	r0, r4, #31
 800138c:	d00a      	beq.n	80013a4 <_btod_etento+0x70>
 800138e:	4632      	mov	r2, r6
 8001390:	4668      	mov	r0, sp
 8001392:	eb07 0147 	add.w	r1, r7, r7, lsl #1
 8001396:	2301      	movs	r3, #1
 8001398:	eb0a 0181 	add.w	r1, sl, r1, lsl #2
 800139c:	f002 fb09 	bl	80039b2 <_btod_emul>
 80013a0:	e88d 0007 	stmia.w	sp, {r0, r1, r2}
 80013a4:	1064      	asrs	r4, r4, #1
 80013a6:	1c7f      	adds	r7, r7, #1
 80013a8:	2c00      	cmp	r4, #0
 80013aa:	d1ee      	bne.n	800138a <_btod_etento+0x56>
 80013ac:	4f19      	ldr	r7, [pc, #100]	; (8001414 <_btod_etento+0xe0>)
 80013ae:	447f      	add	r7, pc
 80013b0:	3fae      	subs	r7, #174	; 0xae
 80013b2:	e019      	b.n	80013e8 <_btod_etento+0xb4>
 80013b4:	07e8      	lsls	r0, r5, #31
 80013b6:	d015      	beq.n	80013e4 <_btod_etento+0xb0>
 80013b8:	eb07 1004 	add.w	r0, r7, r4, lsl #4
 80013bc:	f10d 0a18 	add.w	sl, sp, #24
 80013c0:	e890 000e 	ldmia.w	r0, {r1, r2, r3}
 80013c4:	e88a 000e 	stmia.w	sl, {r1, r2, r3}
 80013c8:	68c0      	ldr	r0, [r0, #12]
 80013ca:	42f0      	cmn	r0, r6
 80013cc:	d101      	bne.n	80013d2 <_btod_etento+0x9e>
 80013ce:	1998      	adds	r0, r3, r6
 80013d0:	9008      	str	r0, [sp, #32]
 80013d2:	4632      	mov	r2, r6
 80013d4:	2301      	movs	r3, #1
 80013d6:	a906      	add	r1, sp, #24
 80013d8:	a803      	add	r0, sp, #12
 80013da:	f002 faea 	bl	80039b2 <_btod_emul>
 80013de:	ab03      	add	r3, sp, #12
 80013e0:	e883 0007 	stmia.w	r3, {r0, r1, r2}
 80013e4:	106d      	asrs	r5, r5, #1
 80013e6:	1c64      	adds	r4, r4, #1
 80013e8:	2d00      	cmp	r5, #0
 80013ea:	d1e3      	bne.n	80013b4 <_btod_etento+0x80>
 80013ec:	f04f 0301 	mov.w	r3, #1
 80013f0:	4632      	mov	r2, r6
 80013f2:	4669      	mov	r1, sp
 80013f4:	f1b8 0f00 	cmp.w	r8, #0
 80013f8:	a803      	add	r0, sp, #12
 80013fa:	d002      	beq.n	8001402 <_btod_etento+0xce>
 80013fc:	f002 fac4 	bl	8003988 <_btod_ediv>
 8001400:	e001      	b.n	8001406 <_btod_etento+0xd2>
 8001402:	f002 fad6 	bl	80039b2 <_btod_emul>
 8001406:	e9c9 0100 	strd	r0, r1, [r9]
 800140a:	f8c9 2008 	str.w	r2, [r9, #8]
 800140e:	b00a      	add	sp, #40	; 0x28
 8001410:	e8bd 87f0 	ldmia.w	sp!, {r4, r5, r6, r7, r8, r9, sl, pc}
 8001414:	00002a7c 	andeq	r2, r0, ip, ror sl

08001418 <exit>:
exit():
 8001418:	b510      	push	{r4, lr}
 800141a:	4604      	mov	r4, r0
 800141c:	f3af 8000 	nop.w
 8001420:	4620      	mov	r0, r4
 8001422:	e8bd 4010 	ldmia.w	sp!, {r4, lr}
 8001426:	f7fe bfaa 	b.w	800037e <__rt_exit>
	...

0800142c <__user_libspace>:
__user_libspace():
 800142c:	4800      	ldr	r0, [pc, #0]	; (8001430 <__user_libspace+0x4>)
 800142e:	4770      	bx	lr
 8001430:	20023420 	andcs	r3, r2, r0, lsr #8
 8001434:	00000000 	andeq	r0, r0, r0

08001438 <strcmp>:
strcmp():
 8001438:	b430      	push	{r4, r5}
 800143a:	f04f 3c01 	mov.w	ip, #16843009	; 0x1010101
 800143e:	f850 2b04 	ldr.w	r2, [r0], #4
 8001442:	facc f452 	uqsub8	r4, ip, r2
 8001446:	f851 3b04 	ldr.w	r3, [r1], #4
 800144a:	1ad5      	subs	r5, r2, r3
 800144c:	d120      	bne.n	8001490 <strcmp+0x58>
 800144e:	b9fc      	cbnz	r4, 8001490 <strcmp+0x58>
 8001450:	f850 2b04 	ldr.w	r2, [r0], #4
 8001454:	facc f452 	uqsub8	r4, ip, r2
 8001458:	f851 3b04 	ldr.w	r3, [r1], #4
 800145c:	1ad5      	subs	r5, r2, r3
 800145e:	d117      	bne.n	8001490 <strcmp+0x58>
 8001460:	b9b4      	cbnz	r4, 8001490 <strcmp+0x58>
 8001462:	f850 2b04 	ldr.w	r2, [r0], #4
 8001466:	facc f452 	uqsub8	r4, ip, r2
 800146a:	f851 3b04 	ldr.w	r3, [r1], #4
 800146e:	1ad5      	subs	r5, r2, r3
 8001470:	d10e      	bne.n	8001490 <strcmp+0x58>
 8001472:	b96c      	cbnz	r4, 8001490 <strcmp+0x58>
 8001474:	f850 2b04 	ldr.w	r2, [r0], #4
 8001478:	facc f452 	uqsub8	r4, ip, r2
 800147c:	f851 3b04 	ldr.w	r3, [r1], #4
 8001480:	1ad5      	subs	r5, r2, r3
 8001482:	d105      	bne.n	8001490 <strcmp+0x58>
 8001484:	2c00      	cmp	r4, #0
 8001486:	d0da      	beq.n	800143e <strcmp+0x6>
 8001488:	bc30      	pop	{r4, r5}
 800148a:	f04f 0000 	mov.w	r0, #0
 800148e:	4770      	bx	lr
 8001490:	ba29      	rev	r1, r5
 8001492:	fab1 f181 	clz	r1, r1
 8001496:	f011 0118 	ands.w	r1, r1, #24
 800149a:	f1d1 0020 	rsbs	r0, r1, #32
 800149e:	4084      	lsls	r4, r0
 80014a0:	d1f2      	bne.n	8001488 <strcmp+0x50>
 80014a2:	40ca      	lsrs	r2, r1
 80014a4:	40cb      	lsrs	r3, r1
 80014a6:	f012 02ff 	ands.w	r2, r2, #255	; 0xff
 80014aa:	f013 03ff 	ands.w	r3, r3, #255	; 0xff
 80014ae:	bc30      	pop	{r4, r5}
 80014b0:	1ad0      	subs	r0, r2, r3
 80014b2:	4770      	bx	lr

080014b4 <_sys_exit>:
_sys_exit():
 80014b4:	4901      	ldr	r1, [pc, #4]	; (80014bc <_sys_exit+0x8>)
 80014b6:	2018      	movs	r0, #24
 80014b8:	beab      	bkpt	0x00ab
 80014ba:	e7fe      	b.n	80014ba <_sys_exit+0x6>
 80014bc:	00020026 	andeq	r0, r2, r6, lsr #32

080014c0 <__use_no_semihosting_swi>:
__use_no_semihosting_swi():
 80014c0:	4770      	bx	lr

080014c2 <__semihosting_library_function>:
__semihosting_library_function():
 80014c2:	0000      	movs	r0, r0
 80014c4:	0000      	movs	r0, r0
	...

080014c8 <BUTTONS_Init>:
BUTTONS_Init():
D:\#Documents\UVISION\SMART_WAKE_UP/buttons.c:88
 80014c8:	b580      	push	{r7, lr}
 80014ca:	f643 0144 	movw	r1, #14404	; 0x3844
 80014ce:	f2c4 0102 	movt	r1, #16386	; 0x4002
D:\#Documents\UVISION\SMART_WAKE_UP/buttons.c:90
 80014d2:	6808      	ldr	r0, [r1, #0]
 80014d4:	f440 4080 	orr.w	r0, r0, #16384	; 0x4000
 80014d8:	6008      	str	r0, [r1, #0]
D:\#Documents\UVISION\SMART_WAKE_UP/buttons.c:92
 80014da:	f000 f805 	bl	80014e8 <BUTTONS_InitGPIO>
D:\#Documents\UVISION\SMART_WAKE_UP/buttons.c:93
 80014de:	f000 f88f 	bl	8001600 <BUTTONS_InitInterrupts>
D:\#Documents\UVISION\SMART_WAKE_UP/buttons.c:94
 80014e2:	f000 f8c1 	bl	8001668 <BUTTONS_TIM2_Init>
D:\#Documents\UVISION\SMART_WAKE_UP/buttons.c:95
 80014e6:	bd80      	pop	{r7, pc}

080014e8 <BUTTONS_InitGPIO>:
BUTTONS_InitGPIO():
D:\#Documents\UVISION\SMART_WAKE_UP/buttons.c:24
 80014e8:	b510      	push	{r4, lr}
 80014ea:	f643 0e30 	movw	lr, #14384	; 0x3830
 80014ee:	f2c4 0e02 	movt	lr, #16386	; 0x4002
D:\#Documents\UVISION\SMART_WAKE_UP/buttons.c:26
 80014f2:	f8de 0000 	ldr.w	r0, [lr]
 80014f6:	f040 0008 	orr.w	r0, r0, #8
 80014fa:	f8ce 0000 	str.w	r0, [lr]
 80014fe:	f640 4100 	movw	r1, #3072	; 0xc00
 8001502:	f2c4 0102 	movt	r1, #16386	; 0x4002
D:\#Documents\UVISION\SMART_WAKE_UP/buttons.c:27
 8001506:	6808      	ldr	r0, [r1, #0]
 8001508:	f420 0040 	bic.w	r0, r0, #12582912	; 0xc00000
 800150c:	6008      	str	r0, [r1, #0]
 800150e:	f643 0110 	movw	r1, #14352	; 0x3810
 8001512:	f2c4 0101 	movt	r1, #16385	; 0x4001
D:\#Documents\UVISION\SMART_WAKE_UP/buttons.c:28
 8001516:	6808      	ldr	r0, [r1, #0]
 8001518:	f440 5040 	orr.w	r0, r0, #12288	; 0x3000
 800151c:	6008      	str	r0, [r1, #0]
 800151e:	f643 4308 	movw	r3, #15368	; 0x3c08
 8001522:	f2c4 0301 	movt	r3, #16385	; 0x4001
D:\#Documents\UVISION\SMART_WAKE_UP/buttons.c:29
 8001526:	6818      	ldr	r0, [r3, #0]
 8001528:	f440 6000 	orr.w	r0, r0, #2048	; 0x800
 800152c:	6018      	str	r0, [r3, #0]
 800152e:	f643 4200 	movw	r2, #15360	; 0x3c00
 8001532:	f2c4 0201 	movt	r2, #16385	; 0x4001
D:\#Documents\UVISION\SMART_WAKE_UP/buttons.c:30
 8001536:	6810      	ldr	r0, [r2, #0]
 8001538:	f440 6000 	orr.w	r0, r0, #2048	; 0x800
 800153c:	6010      	str	r0, [r2, #0]
D:\#Documents\UVISION\SMART_WAKE_UP/buttons.c:33
 800153e:	f8de 0000 	ldr.w	r0, [lr]
 8001542:	f040 0010 	orr.w	r0, r0, #16
 8001546:	f8ce 0000 	str.w	r0, [lr]
 800154a:	f241 0100 	movw	r1, #4096	; 0x1000
 800154e:	f2c4 0102 	movt	r1, #16386	; 0x4002
D:\#Documents\UVISION\SMART_WAKE_UP/buttons.c:34
 8001552:	6808      	ldr	r0, [r1, #0]
 8001554:	f020 0030 	bic.w	r0, r0, #48	; 0x30
 8001558:	6008      	str	r0, [r1, #0]
 800155a:	f643 0c08 	movw	ip, #14344	; 0x3808
 800155e:	f2c4 0c01 	movt	ip, #16385	; 0x4001
D:\#Documents\UVISION\SMART_WAKE_UP/buttons.c:35
 8001562:	f8dc 0000 	ldr.w	r0, [ip]
 8001566:	f440 6080 	orr.w	r0, r0, #1024	; 0x400
 800156a:	f8cc 0000 	str.w	r0, [ip]
D:\#Documents\UVISION\SMART_WAKE_UP/buttons.c:36
 800156e:	6818      	ldr	r0, [r3, #0]
 8001570:	f040 0004 	orr.w	r0, r0, #4
 8001574:	6018      	str	r0, [r3, #0]
D:\#Documents\UVISION\SMART_WAKE_UP/buttons.c:37
 8001576:	6810      	ldr	r0, [r2, #0]
 8001578:	f040 0004 	orr.w	r0, r0, #4
 800157c:	6010      	str	r0, [r2, #0]
D:\#Documents\UVISION\SMART_WAKE_UP/buttons.c:40
 800157e:	f8de 0000 	ldr.w	r0, [lr]
 8001582:	f040 0001 	orr.w	r0, r0, #1
 8001586:	f8ce 0000 	str.w	r0, [lr]
 800158a:	2400      	movs	r4, #0
 800158c:	f2c4 0402 	movt	r4, #16386	; 0x4002
D:\#Documents\UVISION\SMART_WAKE_UP/buttons.c:41
 8001590:	6820      	ldr	r0, [r4, #0]
 8001592:	f420 7040 	bic.w	r0, r0, #768	; 0x300
 8001596:	6020      	str	r0, [r4, #0]
 8001598:	f643 040c 	movw	r4, #14348	; 0x380c
 800159c:	f2c4 0401 	movt	r4, #16385	; 0x4001
D:\#Documents\UVISION\SMART_WAKE_UP/buttons.c:42
 80015a0:	6820      	ldr	r0, [r4, #0]
 80015a2:	6020      	str	r0, [r4, #0]
D:\#Documents\UVISION\SMART_WAKE_UP/buttons.c:43
 80015a4:	6818      	ldr	r0, [r3, #0]
 80015a6:	f040 0010 	orr.w	r0, r0, #16
 80015aa:	6018      	str	r0, [r3, #0]
D:\#Documents\UVISION\SMART_WAKE_UP/buttons.c:44
 80015ac:	6810      	ldr	r0, [r2, #0]
 80015ae:	f040 0010 	orr.w	r0, r0, #16
 80015b2:	6010      	str	r0, [r2, #0]
D:\#Documents\UVISION\SMART_WAKE_UP/buttons.c:47
 80015b4:	f8de 0000 	ldr.w	r0, [lr]
 80015b8:	f040 0002 	orr.w	r0, r0, #2
 80015bc:	f8ce 0000 	str.w	r0, [lr]
 80015c0:	f240 4e00 	movw	lr, #1024	; 0x400
 80015c4:	f2c4 0e02 	movt	lr, #16386	; 0x4002
D:\#Documents\UVISION\SMART_WAKE_UP/buttons.c:48
 80015c8:	f8de 0000 	ldr.w	r0, [lr]
 80015cc:	f020 00c0 	bic.w	r0, r0, #192	; 0xc0
 80015d0:	f8ce 0000 	str.w	r0, [lr]
D:\#Documents\UVISION\SMART_WAKE_UP/buttons.c:49
 80015d4:	f8dc 0000 	ldr.w	r0, [ip]
 80015d8:	f440 5080 	orr.w	r0, r0, #4096	; 0x1000
 80015dc:	f8cc 0000 	str.w	r0, [ip]
D:\#Documents\UVISION\SMART_WAKE_UP/buttons.c:50
 80015e0:	6818      	ldr	r0, [r3, #0]
 80015e2:	f040 0008 	orr.w	r0, r0, #8
 80015e6:	6018      	str	r0, [r3, #0]
D:\#Documents\UVISION\SMART_WAKE_UP/buttons.c:51
 80015e8:	6810      	ldr	r0, [r2, #0]
 80015ea:	f040 0008 	orr.w	r0, r0, #8
 80015ee:	6010      	str	r0, [r2, #0]
D:\#Documents\UVISION\SMART_WAKE_UP/buttons.c:54
 80015f0:	6808      	ldr	r0, [r1, #0]
 80015f2:	f020 0003 	bic.w	r0, r0, #3
 80015f6:	6008      	str	r0, [r1, #0]
D:\#Documents\UVISION\SMART_WAKE_UP/buttons.c:55
 80015f8:	bd10      	pop	{r4, pc}
 80015fa:	0000      	movs	r0, r0
 80015fc:	0000      	movs	r0, r0
	...

08001600 <BUTTONS_InitInterrupts>:
BUTTONS_InitInterrupts():
D:\#Documents\UVISION\SMART_WAKE_UP/buttons.c:59
 8001600:	b580      	push	{r7, lr}
 8001602:	b084      	sub	sp, #16
 8001604:	2028      	movs	r0, #40	; 0x28
 8001606:	9000      	str	r0, [sp, #0]
 8001608:	2100      	movs	r1, #0
D:\#Documents\UVISION\SMART_WAKE_UP/buttons.c:61
 800160a:	f001 fa4d 	bl	8002aa8 <__NVIC_SetPriority>
 800160e:	9800      	ldr	r0, [sp, #0]
D:\#Documents\UVISION\SMART_WAKE_UP/buttons.c:62
 8001610:	f001 fa32 	bl	8002a78 <__NVIC_EnableIRQ>
 8001614:	2008      	movs	r0, #8
 8001616:	9001      	str	r0, [sp, #4]
 8001618:	2101      	movs	r1, #1
D:\#Documents\UVISION\SMART_WAKE_UP/buttons.c:63
 800161a:	f001 fa45 	bl	8002aa8 <__NVIC_SetPriority>
 800161e:	9801      	ldr	r0, [sp, #4]
D:\#Documents\UVISION\SMART_WAKE_UP/buttons.c:64
 8001620:	f001 fa2a 	bl	8002a78 <__NVIC_EnableIRQ>
 8001624:	200a      	movs	r0, #10
 8001626:	9002      	str	r0, [sp, #8]
 8001628:	2102      	movs	r1, #2
D:\#Documents\UVISION\SMART_WAKE_UP/buttons.c:65
 800162a:	f001 fa3d 	bl	8002aa8 <__NVIC_SetPriority>
 800162e:	9802      	ldr	r0, [sp, #8]
D:\#Documents\UVISION\SMART_WAKE_UP/buttons.c:66
 8001630:	f001 fa22 	bl	8002a78 <__NVIC_EnableIRQ>
 8001634:	2009      	movs	r0, #9
 8001636:	9003      	str	r0, [sp, #12]
 8001638:	2103      	movs	r1, #3
D:\#Documents\UVISION\SMART_WAKE_UP/buttons.c:67
 800163a:	f001 fa35 	bl	8002aa8 <__NVIC_SetPriority>
 800163e:	9803      	ldr	r0, [sp, #12]
D:\#Documents\UVISION\SMART_WAKE_UP/buttons.c:68
 8001640:	f001 fa1a 	bl	8002a78 <__NVIC_EnableIRQ>
D:\#Documents\UVISION\SMART_WAKE_UP/buttons.c:69
 8001644:	b004      	add	sp, #16
 8001646:	bd80      	pop	{r7, pc}

08001648 <BUTTONS_KeyState>:
BUTTONS_KeyState():
D:\#Documents\UVISION\SMART_WAKE_UP/buttons.c:141
 8001648:	f241 0010 	movw	r0, #4112	; 0x1010
 800164c:	f2c4 0002 	movt	r0, #16386	; 0x4002
D:\#Documents\UVISION\SMART_WAKE_UP/buttons.c:142
 8001650:	6800      	ldr	r0, [r0, #0]
 8001652:	f000 0001 	and.w	r0, r0, #1
 8001656:	f243 4183 	movw	r1, #13443	; 0x3483
 800165a:	f2c2 0102 	movt	r1, #8194	; 0x2002
 800165e:	7008      	strb	r0, [r1, #0]
D:\#Documents\UVISION\SMART_WAKE_UP/buttons.c:143
 8001660:	4770      	bx	lr
 8001662:	0000      	movs	r0, r0
 8001664:	0000      	movs	r0, r0
	...

08001668 <BUTTONS_TIM2_Init>:
BUTTONS_TIM2_Init():
D:\#Documents\UVISION\SMART_WAKE_UP/buttons.c:73
 8001668:	b580      	push	{r7, lr}
 800166a:	b082      	sub	sp, #8
 800166c:	f643 0140 	movw	r1, #14400	; 0x3840
 8001670:	f2c4 0102 	movt	r1, #16386	; 0x4002
D:\#Documents\UVISION\SMART_WAKE_UP/buttons.c:74
 8001674:	6808      	ldr	r0, [r1, #0]
 8001676:	f040 0001 	orr.w	r0, r0, #1
 800167a:	6008      	str	r0, [r1, #0]
 800167c:	2128      	movs	r1, #40	; 0x28
 800167e:	f2c4 0100 	movt	r1, #16384	; 0x4000
 8001682:	f643 607f 	movw	r0, #15999	; 0x3e7f
D:\#Documents\UVISION\SMART_WAKE_UP/buttons.c:76
 8001686:	6008      	str	r0, [r1, #0]
 8001688:	212c      	movs	r1, #44	; 0x2c
 800168a:	f2c4 0100 	movt	r1, #16384	; 0x4000
 800168e:	f240 30e7 	movw	r0, #999	; 0x3e7
D:\#Documents\UVISION\SMART_WAKE_UP/buttons.c:77
 8001692:	6008      	str	r0, [r1, #0]
 8001694:	210c      	movs	r1, #12
 8001696:	f2c4 0100 	movt	r1, #16384	; 0x4000
D:\#Documents\UVISION\SMART_WAKE_UP/buttons.c:79
 800169a:	6808      	ldr	r0, [r1, #0]
 800169c:	f040 0001 	orr.w	r0, r0, #1
 80016a0:	6008      	str	r0, [r1, #0]
 80016a2:	f04f 4180 	mov.w	r1, #1073741824	; 0x40000000
D:\#Documents\UVISION\SMART_WAKE_UP/buttons.c:80
 80016a6:	6808      	ldr	r0, [r1, #0]
 80016a8:	f040 0001 	orr.w	r0, r0, #1
 80016ac:	6008      	str	r0, [r1, #0]
 80016ae:	201c      	movs	r0, #28
 80016b0:	9001      	str	r0, [sp, #4]
 80016b2:	2104      	movs	r1, #4
D:\#Documents\UVISION\SMART_WAKE_UP/buttons.c:82
 80016b4:	f001 f9f8 	bl	8002aa8 <__NVIC_SetPriority>
 80016b8:	9801      	ldr	r0, [sp, #4]
D:\#Documents\UVISION\SMART_WAKE_UP/buttons.c:83
 80016ba:	f001 f9dd 	bl	8002a78 <__NVIC_EnableIRQ>
D:\#Documents\UVISION\SMART_WAKE_UP/buttons.c:84
 80016be:	b002      	add	sp, #8
 80016c0:	bd80      	pop	{r7, pc}
 80016c2:	0000      	movs	r0, r0
 80016c4:	0000      	movs	r0, r0
	...

080016c8 <DS3231_BCD_DEC>:
DS3231_BCD_DEC():
D:\#Documents\UVISION\SMART_WAKE_UP/ds3231.c:27
 80016c8:	b081      	sub	sp, #4
 80016ca:	f88d 0003 	strb.w	r0, [sp, #3]
D:\#Documents\UVISION\SMART_WAKE_UP/ds3231.c:28
 80016ce:	f89d 0003 	ldrb.w	r0, [sp, #3]
 80016d2:	0901      	lsrs	r1, r0, #4
 80016d4:	eb01 0141 	add.w	r1, r1, r1, lsl #1
 80016d8:	eba0 0041 	sub.w	r0, r0, r1, lsl #1
 80016dc:	b001      	add	sp, #4
 80016de:	4770      	bx	lr

080016e0 <DS3231_DEC_BCD>:
DS3231_DEC_BCD():
D:\#Documents\UVISION\SMART_WAKE_UP/ds3231.c:31
 80016e0:	b081      	sub	sp, #4
 80016e2:	f88d 0003 	strb.w	r0, [sp, #3]
D:\#Documents\UVISION\SMART_WAKE_UP/ds3231.c:32
 80016e6:	f89d 0003 	ldrb.w	r0, [sp, #3]
 80016ea:	f64c 41cd 	movw	r1, #52429	; 0xcccd
 80016ee:	f6cc 41cc 	movt	r1, #52428	; 0xcccc
 80016f2:	fba0 2101 	umull	r2, r1, r0, r1
 80016f6:	08c9      	lsrs	r1, r1, #3
 80016f8:	eb01 0141 	add.w	r1, r1, r1, lsl #1
 80016fc:	eb00 0041 	add.w	r0, r0, r1, lsl #1
 8001700:	b001      	add	sp, #4
 8001702:	4770      	bx	lr
 8001704:	0000      	movs	r0, r0
	...

08001708 <DS3231_Init>:
DS3231_Init():
D:\#Documents\UVISION\SMART_WAKE_UP/ds3231.c:8
 8001708:	f643 0130 	movw	r1, #14384	; 0x3830
 800170c:	f2c4 0102 	movt	r1, #16386	; 0x4002
D:\#Documents\UVISION\SMART_WAKE_UP/ds3231.c:9
 8001710:	6808      	ldr	r0, [r1, #0]
 8001712:	f040 0002 	orr.w	r0, r0, #2
 8001716:	6008      	str	r0, [r1, #0]
 8001718:	f240 4100 	movw	r1, #1024	; 0x400
 800171c:	f2c4 0102 	movt	r1, #16386	; 0x4002
D:\#Documents\UVISION\SMART_WAKE_UP/ds3231.c:11
 8001720:	6808      	ldr	r0, [r1, #0]
 8001722:	f440 3000 	orr.w	r0, r0, #131072	; 0x20000
 8001726:	6008      	str	r0, [r1, #0]
D:\#Documents\UVISION\SMART_WAKE_UP/ds3231.c:12
 8001728:	6808      	ldr	r0, [r1, #0]
 800172a:	f420 3080 	bic.w	r0, r0, #65536	; 0x10000
 800172e:	6008      	str	r0, [r1, #0]
D:\#Documents\UVISION\SMART_WAKE_UP/ds3231.c:14
 8001730:	6808      	ldr	r0, [r1, #0]
 8001732:	f440 2000 	orr.w	r0, r0, #524288	; 0x80000
 8001736:	6008      	str	r0, [r1, #0]
D:\#Documents\UVISION\SMART_WAKE_UP/ds3231.c:15
 8001738:	6808      	ldr	r0, [r1, #0]
 800173a:	f420 2080 	bic.w	r0, r0, #262144	; 0x40000
 800173e:	6008      	str	r0, [r1, #0]
 8001740:	f240 4104 	movw	r1, #1028	; 0x404
 8001744:	f2c4 0102 	movt	r1, #16386	; 0x4002
D:\#Documents\UVISION\SMART_WAKE_UP/ds3231.c:17
 8001748:	6808      	ldr	r0, [r1, #0]
 800174a:	f440 7080 	orr.w	r0, r0, #256	; 0x100
 800174e:	6008      	str	r0, [r1, #0]
D:\#Documents\UVISION\SMART_WAKE_UP/ds3231.c:18
 8001750:	6808      	ldr	r0, [r1, #0]
 8001752:	f440 7000 	orr.w	r0, r0, #512	; 0x200
 8001756:	6008      	str	r0, [r1, #0]
 8001758:	f240 4124 	movw	r1, #1060	; 0x424
 800175c:	f2c4 0102 	movt	r1, #16386	; 0x4002
D:\#Documents\UVISION\SMART_WAKE_UP/ds3231.c:20
 8001760:	6808      	ldr	r0, [r1, #0]
 8001762:	f040 0044 	orr.w	r0, r0, #68	; 0x44
 8001766:	6008      	str	r0, [r1, #0]
 8001768:	f643 0140 	movw	r1, #14400	; 0x3840
 800176c:	f2c4 0102 	movt	r1, #16386	; 0x4002
D:\#Documents\UVISION\SMART_WAKE_UP/ds3231.c:22
 8001770:	6808      	ldr	r0, [r1, #0]
 8001772:	f440 1000 	orr.w	r0, r0, #2097152	; 0x200000
 8001776:	6008      	str	r0, [r1, #0]
 8001778:	f245 4100 	movw	r1, #21504	; 0x5400
 800177c:	f2c4 0100 	movt	r1, #16384	; 0x4000
D:\#Documents\UVISION\SMART_WAKE_UP/ds3231.c:23
 8001780:	6808      	ldr	r0, [r1, #0]
 8001782:	f020 0001 	bic.w	r0, r0, #1
 8001786:	6008      	str	r0, [r1, #0]
 8001788:	f245 4110 	movw	r1, #21520	; 0x5410
 800178c:	f2c4 0100 	movt	r1, #16384	; 0x4000
 8001790:	f24c 10c1 	movw	r0, #49601	; 0xc1c1
D:\#Documents\UVISION\SMART_WAKE_UP/ds3231.c:24
 8001794:	6008      	str	r0, [r1, #0]
D:\#Documents\UVISION\SMART_WAKE_UP/ds3231.c:25
 8001796:	4770      	bx	lr

08001798 <DS3231_Read>:
DS3231_Read():
D:\#Documents\UVISION\SMART_WAKE_UP/ds3231.c:35
 8001798:	b086      	sub	sp, #24
 800179a:	f88d 0017 	strb.w	r0, [sp, #23]
 800179e:	f88d 1016 	strb.w	r1, [sp, #22]
 80017a2:	9204      	str	r2, [sp, #16]
 80017a4:	f88d 300f 	strb.w	r3, [sp, #15]
D:\#Documents\UVISION\SMART_WAKE_UP/ds3231.c:36
 80017a8:	f243 4186 	movw	r1, #13446	; 0x3486
 80017ac:	f2c2 0102 	movt	r1, #8194	; 0x2002
 80017b0:	2000      	movs	r0, #0
 80017b2:	7008      	strb	r0, [r1, #0]
 80017b4:	f245 4200 	movw	r2, #21504	; 0x5400
 80017b8:	f2c4 0200 	movt	r2, #16384	; 0x4000
D:\#Documents\UVISION\SMART_WAKE_UP/ds3231.c:39
 80017bc:	6811      	ldr	r1, [r2, #0]
 80017be:	f041 0101 	orr.w	r1, r1, #1
 80017c2:	6011      	str	r1, [r2, #0]
 80017c4:	f245 4204 	movw	r2, #21508	; 0x5404
 80017c8:	f2c4 0200 	movt	r2, #16384	; 0x4000
D:\#Documents\UVISION\SMART_WAKE_UP/ds3231.c:42
 80017cc:	9202      	str	r2, [sp, #8]
 80017ce:	6010      	str	r0, [r2, #0]
D:\#Documents\UVISION\SMART_WAKE_UP/ds3231.c:43
 80017d0:	f89d 1017 	ldrb.w	r1, [sp, #23]
 80017d4:	0049      	lsls	r1, r1, #1
 80017d6:	6011      	str	r1, [r2, #0]
D:\#Documents\UVISION\SMART_WAKE_UP/ds3231.c:45
 80017d8:	6811      	ldr	r1, [r2, #0]
 80017da:	f421 6100 	bic.w	r1, r1, #2048	; 0x800
 80017de:	6011      	str	r1, [r2, #0]
D:\#Documents\UVISION\SMART_WAKE_UP/ds3231.c:46
 80017e0:	6811      	ldr	r1, [r2, #0]
 80017e2:	f441 3180 	orr.w	r1, r1, #65536	; 0x10000
 80017e6:	6011      	str	r1, [r2, #0]
D:\#Documents\UVISION\SMART_WAKE_UP/ds3231.c:47
 80017e8:	6811      	ldr	r1, [r2, #0]
 80017ea:	f421 6180 	bic.w	r1, r1, #1024	; 0x400
 80017ee:	6011      	str	r1, [r2, #0]
D:\#Documents\UVISION\SMART_WAKE_UP/ds3231.c:48
 80017f0:	6811      	ldr	r1, [r2, #0]
 80017f2:	f021 7100 	bic.w	r1, r1, #33554432	; 0x2000000
 80017f6:	6011      	str	r1, [r2, #0]
D:\#Documents\UVISION\SMART_WAKE_UP/ds3231.c:49
 80017f8:	6811      	ldr	r1, [r2, #0]
 80017fa:	f441 5100 	orr.w	r1, r1, #8192	; 0x2000
 80017fe:	6011      	str	r1, [r2, #0]
D:\#Documents\UVISION\SMART_WAKE_UP/ds3231.c:52
 8001800:	f8ad 000c 	strh.w	r0, [sp, #12]
D:\#Documents\UVISION\SMART_WAKE_UP/ds3231.c:53
 8001804:	e7ff      	b.n	8001806 <DS3231_Read+0x6e>
 8001806:	f245 4018 	movw	r0, #21528	; 0x5418
 800180a:	f2c4 0000 	movt	r0, #16384	; 0x4000
 800180e:	6801      	ldr	r1, [r0, #0]
 8001810:	2000      	movs	r0, #0
 8001812:	0649      	lsls	r1, r1, #25
 8001814:	2900      	cmp	r1, #0
 8001816:	9001      	str	r0, [sp, #4]
 8001818:	d409      	bmi.n	800182e <DS3231_Read+0x96>
 800181a:	e7ff      	b.n	800181c <DS3231_Read+0x84>
 800181c:	f8bd 100c 	ldrh.w	r1, [sp, #12]
 8001820:	2000      	movs	r0, #0
 8001822:	f5b1 7f96 	cmp.w	r1, #300	; 0x12c
 8001826:	bfb8      	it	lt
 8001828:	2001      	movlt	r0, #1
 800182a:	9001      	str	r0, [sp, #4]
 800182c:	e7ff      	b.n	800182e <DS3231_Read+0x96>
 800182e:	9801      	ldr	r0, [sp, #4]
 8001830:	07c0      	lsls	r0, r0, #31
 8001832:	b1b0      	cbz	r0, 8001862 <DS3231_Read+0xca>
 8001834:	e7ff      	b.n	8001836 <DS3231_Read+0x9e>
 8001836:	f245 4018 	movw	r0, #21528	; 0x5418
 800183a:	f2c4 0000 	movt	r0, #16384	; 0x4000
D:\#Documents\UVISION\SMART_WAKE_UP/ds3231.c:54
 800183e:	6800      	ldr	r0, [r0, #0]
 8001840:	07c0      	lsls	r0, r0, #31
 8001842:	b140      	cbz	r0, 8001856 <DS3231_Read+0xbe>
 8001844:	e7ff      	b.n	8001846 <DS3231_Read+0xae>
D:\#Documents\UVISION\SMART_WAKE_UP/ds3231.c:55
 8001846:	f89d 0016 	ldrb.w	r0, [sp, #22]
 800184a:	f245 4128 	movw	r1, #21544	; 0x5428
 800184e:	f2c4 0100 	movt	r1, #16384	; 0x4000
 8001852:	6008      	str	r0, [r1, #0]
 8001854:	e7ff      	b.n	8001856 <DS3231_Read+0xbe>
D:\#Documents\UVISION\SMART_WAKE_UP/ds3231.c:56
 8001856:	f8bd 000c 	ldrh.w	r0, [sp, #12]
 800185a:	3001      	adds	r0, #1
 800185c:	f8ad 000c 	strh.w	r0, [sp, #12]
D:\#Documents\UVISION\SMART_WAKE_UP/ds3231.c:53
 8001860:	e7d1      	b.n	8001806 <DS3231_Read+0x6e>
D:\#Documents\UVISION\SMART_WAKE_UP/ds3231.c:59
 8001862:	f8bd 000c 	ldrh.w	r0, [sp, #12]
 8001866:	f5b0 7f91 	cmp.w	r0, #290	; 0x122
 800186a:	db07      	blt.n	800187c <DS3231_Read+0xe4>
 800186c:	e7ff      	b.n	800186e <DS3231_Read+0xd6>
D:\#Documents\UVISION\SMART_WAKE_UP/ds3231.c:60
 800186e:	f243 4186 	movw	r1, #13446	; 0x3486
 8001872:	f2c2 0102 	movt	r1, #8194	; 0x2002
 8001876:	2001      	movs	r0, #1
 8001878:	7008      	strb	r0, [r1, #0]
 800187a:	e04f      	b.n	800191c <DS3231_Read+0x184>
 800187c:	f245 4100 	movw	r1, #21504	; 0x5400
 8001880:	f2c4 0100 	movt	r1, #16384	; 0x4000
D:\#Documents\UVISION\SMART_WAKE_UP/ds3231.c:63
 8001884:	6808      	ldr	r0, [r1, #0]
 8001886:	f020 0001 	bic.w	r0, r0, #1
 800188a:	6008      	str	r0, [r1, #0]
D:\#Documents\UVISION\SMART_WAKE_UP/ds3231.c:68
 800188c:	6808      	ldr	r0, [r1, #0]
 800188e:	f040 0001 	orr.w	r0, r0, #1
 8001892:	6008      	str	r0, [r1, #0]
 8001894:	f245 4104 	movw	r1, #21508	; 0x5404
 8001898:	f2c4 0100 	movt	r1, #16384	; 0x4000
 800189c:	9100      	str	r1, [sp, #0]
 800189e:	2000      	movs	r0, #0
D:\#Documents\UVISION\SMART_WAKE_UP/ds3231.c:70
 80018a0:	6008      	str	r0, [r1, #0]
D:\#Documents\UVISION\SMART_WAKE_UP/ds3231.c:71
 80018a2:	f89d 0017 	ldrb.w	r0, [sp, #23]
 80018a6:	0040      	lsls	r0, r0, #1
 80018a8:	6008      	str	r0, [r1, #0]
D:\#Documents\UVISION\SMART_WAKE_UP/ds3231.c:72
 80018aa:	6808      	ldr	r0, [r1, #0]
 80018ac:	f440 6080 	orr.w	r0, r0, #1024	; 0x400
 80018b0:	6008      	str	r0, [r1, #0]
D:\#Documents\UVISION\SMART_WAKE_UP/ds3231.c:73
 80018b2:	f89d 200f 	ldrb.w	r2, [sp, #15]
 80018b6:	6808      	ldr	r0, [r1, #0]
 80018b8:	ea40 4002 	orr.w	r0, r0, r2, lsl #16
 80018bc:	6008      	str	r0, [r1, #0]
D:\#Documents\UVISION\SMART_WAKE_UP/ds3231.c:74
 80018be:	6808      	ldr	r0, [r1, #0]
 80018c0:	f040 7000 	orr.w	r0, r0, #33554432	; 0x2000000
 80018c4:	6008      	str	r0, [r1, #0]
D:\#Documents\UVISION\SMART_WAKE_UP/ds3231.c:75
 80018c6:	6808      	ldr	r0, [r1, #0]
 80018c8:	f440 5000 	orr.w	r0, r0, #8192	; 0x2000
 80018cc:	6008      	str	r0, [r1, #0]
D:\#Documents\UVISION\SMART_WAKE_UP/ds3231.c:78
 80018ce:	e7ff      	b.n	80018d0 <DS3231_Read+0x138>
 80018d0:	f245 4018 	movw	r0, #21528	; 0x5418
 80018d4:	f2c4 0000 	movt	r0, #16384	; 0x4000
 80018d8:	6800      	ldr	r0, [r0, #0]
 80018da:	0680      	lsls	r0, r0, #26
 80018dc:	2800      	cmp	r0, #0
 80018de:	d414      	bmi.n	800190a <DS3231_Read+0x172>
 80018e0:	e7ff      	b.n	80018e2 <DS3231_Read+0x14a>
 80018e2:	f245 4018 	movw	r0, #21528	; 0x5418
 80018e6:	f2c4 0000 	movt	r0, #16384	; 0x4000
D:\#Documents\UVISION\SMART_WAKE_UP/ds3231.c:79
 80018ea:	6800      	ldr	r0, [r0, #0]
 80018ec:	0740      	lsls	r0, r0, #29
 80018ee:	2800      	cmp	r0, #0
 80018f0:	d50a      	bpl.n	8001908 <DS3231_Read+0x170>
 80018f2:	e7ff      	b.n	80018f4 <DS3231_Read+0x15c>
 80018f4:	f245 4024 	movw	r0, #21540	; 0x5424
 80018f8:	f2c4 0000 	movt	r0, #16384	; 0x4000
D:\#Documents\UVISION\SMART_WAKE_UP/ds3231.c:80
 80018fc:	6800      	ldr	r0, [r0, #0]
 80018fe:	9904      	ldr	r1, [sp, #16]
 8001900:	1c4a      	adds	r2, r1, #1
 8001902:	9204      	str	r2, [sp, #16]
 8001904:	7008      	strb	r0, [r1, #0]
 8001906:	e7ff      	b.n	8001908 <DS3231_Read+0x170>
D:\#Documents\UVISION\SMART_WAKE_UP/ds3231.c:78
 8001908:	e7e2      	b.n	80018d0 <DS3231_Read+0x138>
 800190a:	f245 4100 	movw	r1, #21504	; 0x5400
 800190e:	f2c4 0100 	movt	r1, #16384	; 0x4000
D:\#Documents\UVISION\SMART_WAKE_UP/ds3231.c:83
 8001912:	6808      	ldr	r0, [r1, #0]
 8001914:	f020 0001 	bic.w	r0, r0, #1
 8001918:	6008      	str	r0, [r1, #0]
 800191a:	e7ff      	b.n	800191c <DS3231_Read+0x184>
D:\#Documents\UVISION\SMART_WAKE_UP/ds3231.c:85
 800191c:	b006      	add	sp, #24
 800191e:	4770      	bx	lr

08001920 <DS3231_WriteMemory>:
DS3231_WriteMemory():
D:\#Documents\UVISION\SMART_WAKE_UP/ds3231.c:89
 8001920:	b086      	sub	sp, #24
 8001922:	f88d 0017 	strb.w	r0, [sp, #23]
 8001926:	f88d 1016 	strb.w	r1, [sp, #22]
 800192a:	9204      	str	r2, [sp, #16]
 800192c:	f88d 300f 	strb.w	r3, [sp, #15]
 8001930:	f245 4100 	movw	r1, #21504	; 0x5400
 8001934:	f2c4 0100 	movt	r1, #16384	; 0x4000
D:\#Documents\UVISION\SMART_WAKE_UP/ds3231.c:91
 8001938:	6808      	ldr	r0, [r1, #0]
 800193a:	f040 0001 	orr.w	r0, r0, #1
 800193e:	6008      	str	r0, [r1, #0]
 8001940:	f245 4204 	movw	r2, #21508	; 0x5404
 8001944:	f2c4 0200 	movt	r2, #16384	; 0x4000
 8001948:	9201      	str	r2, [sp, #4]
 800194a:	2000      	movs	r0, #0
D:\#Documents\UVISION\SMART_WAKE_UP/ds3231.c:92
 800194c:	6010      	str	r0, [r2, #0]
D:\#Documents\UVISION\SMART_WAKE_UP/ds3231.c:93
 800194e:	f89d 1017 	ldrb.w	r1, [sp, #23]
 8001952:	0049      	lsls	r1, r1, #1
 8001954:	6011      	str	r1, [r2, #0]
D:\#Documents\UVISION\SMART_WAKE_UP/ds3231.c:94
 8001956:	6811      	ldr	r1, [r2, #0]
 8001958:	f421 6100 	bic.w	r1, r1, #2048	; 0x800
 800195c:	6011      	str	r1, [r2, #0]
D:\#Documents\UVISION\SMART_WAKE_UP/ds3231.c:95
 800195e:	f89d 100f 	ldrb.w	r1, [sp, #15]
 8001962:	1c4b      	adds	r3, r1, #1
 8001964:	6811      	ldr	r1, [r2, #0]
 8001966:	ea41 4103 	orr.w	r1, r1, r3, lsl #16
 800196a:	6011      	str	r1, [r2, #0]
D:\#Documents\UVISION\SMART_WAKE_UP/ds3231.c:96
 800196c:	6811      	ldr	r1, [r2, #0]
 800196e:	f421 6180 	bic.w	r1, r1, #1024	; 0x400
 8001972:	6011      	str	r1, [r2, #0]
D:\#Documents\UVISION\SMART_WAKE_UP/ds3231.c:97
 8001974:	6811      	ldr	r1, [r2, #0]
 8001976:	f041 7100 	orr.w	r1, r1, #33554432	; 0x2000000
 800197a:	6011      	str	r1, [r2, #0]
D:\#Documents\UVISION\SMART_WAKE_UP/ds3231.c:98
 800197c:	6811      	ldr	r1, [r2, #0]
 800197e:	f441 5100 	orr.w	r1, r1, #8192	; 0x2000
 8001982:	6011      	str	r1, [r2, #0]
D:\#Documents\UVISION\SMART_WAKE_UP/ds3231.c:101
 8001984:	9002      	str	r0, [sp, #8]
D:\#Documents\UVISION\SMART_WAKE_UP/ds3231.c:102
 8001986:	e7ff      	b.n	8001988 <DS3231_WriteMemory+0x68>
 8001988:	f245 4018 	movw	r0, #21528	; 0x5418
 800198c:	f2c4 0000 	movt	r0, #16384	; 0x4000
 8001990:	6800      	ldr	r0, [r0, #0]
 8001992:	0680      	lsls	r0, r0, #26
 8001994:	2800      	cmp	r0, #0
 8001996:	d421      	bmi.n	80019dc <DS3231_WriteMemory+0xbc>
 8001998:	e7ff      	b.n	800199a <DS3231_WriteMemory+0x7a>
 800199a:	f245 4018 	movw	r0, #21528	; 0x5418
 800199e:	f2c4 0000 	movt	r0, #16384	; 0x4000
D:\#Documents\UVISION\SMART_WAKE_UP/ds3231.c:103
 80019a2:	6800      	ldr	r0, [r0, #0]
 80019a4:	07c0      	lsls	r0, r0, #31
 80019a6:	b1c0      	cbz	r0, 80019da <DS3231_WriteMemory+0xba>
 80019a8:	e7ff      	b.n	80019aa <DS3231_WriteMemory+0x8a>
D:\#Documents\UVISION\SMART_WAKE_UP/ds3231.c:104
 80019aa:	9802      	ldr	r0, [sp, #8]
 80019ac:	b920      	cbnz	r0, 80019b8 <DS3231_WriteMemory+0x98>
 80019ae:	e7ff      	b.n	80019b0 <DS3231_WriteMemory+0x90>
 80019b0:	f89d 0016 	ldrb.w	r0, [sp, #22]
 80019b4:	9000      	str	r0, [sp, #0]
 80019b6:	e006      	b.n	80019c6 <DS3231_WriteMemory+0xa6>
 80019b8:	9904      	ldr	r1, [sp, #16]
 80019ba:	9802      	ldr	r0, [sp, #8]
 80019bc:	4408      	add	r0, r1
 80019be:	f810 0c01 	ldrb.w	r0, [r0, #-1]
 80019c2:	9000      	str	r0, [sp, #0]
 80019c4:	e7ff      	b.n	80019c6 <DS3231_WriteMemory+0xa6>
 80019c6:	9800      	ldr	r0, [sp, #0]
 80019c8:	f245 4128 	movw	r1, #21544	; 0x5428
 80019cc:	f2c4 0100 	movt	r1, #16384	; 0x4000
 80019d0:	6008      	str	r0, [r1, #0]
D:\#Documents\UVISION\SMART_WAKE_UP/ds3231.c:105
 80019d2:	9802      	ldr	r0, [sp, #8]
 80019d4:	3001      	adds	r0, #1
 80019d6:	9002      	str	r0, [sp, #8]
D:\#Documents\UVISION\SMART_WAKE_UP/ds3231.c:106
 80019d8:	e7ff      	b.n	80019da <DS3231_WriteMemory+0xba>
D:\#Documents\UVISION\SMART_WAKE_UP/ds3231.c:102
 80019da:	e7d5      	b.n	8001988 <DS3231_WriteMemory+0x68>
 80019dc:	f245 4100 	movw	r1, #21504	; 0x5400
 80019e0:	f2c4 0100 	movt	r1, #16384	; 0x4000
D:\#Documents\UVISION\SMART_WAKE_UP/ds3231.c:110
 80019e4:	6808      	ldr	r0, [r1, #0]
 80019e6:	f020 0001 	bic.w	r0, r0, #1
 80019ea:	6008      	str	r0, [r1, #0]
D:\#Documents\UVISION\SMART_WAKE_UP/ds3231.c:111
 80019ec:	b006      	add	sp, #24
 80019ee:	4770      	bx	lr

080019f0 <EXTI15_10_IRQHandler>:
EXTI15_10_IRQHandler():
D:\#Documents\UVISION\SMART_WAKE_UP/buttons.c:99
 80019f0:	f643 4014 	movw	r0, #15380	; 0x3c14
 80019f4:	f2c4 0001 	movt	r0, #16385	; 0x4001
D:\#Documents\UVISION\SMART_WAKE_UP/buttons.c:100
 80019f8:	6800      	ldr	r0, [r0, #0]
 80019fa:	0500      	lsls	r0, r0, #20
 80019fc:	2800      	cmp	r0, #0
 80019fe:	d514      	bpl.n	8001a2a <EXTI15_10_IRQHandler+0x3a>
 8001a00:	e7ff      	b.n	8001a02 <EXTI15_10_IRQHandler+0x12>
 8001a02:	2124      	movs	r1, #36	; 0x24
 8001a04:	f2c4 0100 	movt	r1, #16384	; 0x4000
 8001a08:	2000      	movs	r0, #0
D:\#Documents\UVISION\SMART_WAKE_UP/buttons.c:102
 8001a0a:	6008      	str	r0, [r1, #0]
 8001a0c:	f643 4114 	movw	r1, #15380	; 0x3c14
 8001a10:	f2c4 0101 	movt	r1, #16385	; 0x4001
D:\#Documents\UVISION\SMART_WAKE_UP/buttons.c:103
 8001a14:	6808      	ldr	r0, [r1, #0]
 8001a16:	f440 6000 	orr.w	r0, r0, #2048	; 0x800
 8001a1a:	6008      	str	r0, [r1, #0]
D:\#Documents\UVISION\SMART_WAKE_UP/buttons.c:104
 8001a1c:	f243 4184 	movw	r1, #13444	; 0x3484
 8001a20:	f2c2 0102 	movt	r1, #8194	; 0x2002
 8001a24:	2001      	movs	r0, #1
 8001a26:	7008      	strb	r0, [r1, #0]
D:\#Documents\UVISION\SMART_WAKE_UP/buttons.c:105
 8001a28:	e7ff      	b.n	8001a2a <EXTI15_10_IRQHandler+0x3a>
D:\#Documents\UVISION\SMART_WAKE_UP/buttons.c:106
 8001a2a:	4770      	bx	lr
 8001a2c:	0000      	movs	r0, r0
	...

08001a30 <EXTI2_IRQHandler>:
EXTI2_IRQHandler():
D:\#Documents\UVISION\SMART_WAKE_UP/buttons.c:110
 8001a30:	f643 4014 	movw	r0, #15380	; 0x3c14
 8001a34:	f2c4 0001 	movt	r0, #16385	; 0x4001
D:\#Documents\UVISION\SMART_WAKE_UP/buttons.c:111
 8001a38:	6800      	ldr	r0, [r0, #0]
 8001a3a:	0740      	lsls	r0, r0, #29
 8001a3c:	2800      	cmp	r0, #0
 8001a3e:	d514      	bpl.n	8001a6a <EXTI2_IRQHandler+0x3a>
 8001a40:	e7ff      	b.n	8001a42 <EXTI2_IRQHandler+0x12>
 8001a42:	2124      	movs	r1, #36	; 0x24
 8001a44:	f2c4 0100 	movt	r1, #16384	; 0x4000
 8001a48:	2000      	movs	r0, #0
D:\#Documents\UVISION\SMART_WAKE_UP/buttons.c:113
 8001a4a:	6008      	str	r0, [r1, #0]
 8001a4c:	f643 4114 	movw	r1, #15380	; 0x3c14
 8001a50:	f2c4 0101 	movt	r1, #16385	; 0x4001
D:\#Documents\UVISION\SMART_WAKE_UP/buttons.c:114
 8001a54:	6808      	ldr	r0, [r1, #0]
 8001a56:	f040 0004 	orr.w	r0, r0, #4
 8001a5a:	6008      	str	r0, [r1, #0]
D:\#Documents\UVISION\SMART_WAKE_UP/buttons.c:115
 8001a5c:	f243 4180 	movw	r1, #13440	; 0x3480
 8001a60:	f2c2 0102 	movt	r1, #8194	; 0x2002
 8001a64:	2001      	movs	r0, #1
 8001a66:	7008      	strb	r0, [r1, #0]
D:\#Documents\UVISION\SMART_WAKE_UP/buttons.c:116
 8001a68:	e7ff      	b.n	8001a6a <EXTI2_IRQHandler+0x3a>
D:\#Documents\UVISION\SMART_WAKE_UP/buttons.c:117
 8001a6a:	4770      	bx	lr
 8001a6c:	0000      	movs	r0, r0
	...

08001a70 <EXTI3_IRQHandler>:
EXTI3_IRQHandler():
D:\#Documents\UVISION\SMART_WAKE_UP/buttons.c:131
 8001a70:	f643 4014 	movw	r0, #15380	; 0x3c14
 8001a74:	f2c4 0001 	movt	r0, #16385	; 0x4001
D:\#Documents\UVISION\SMART_WAKE_UP/buttons.c:132
 8001a78:	6800      	ldr	r0, [r0, #0]
 8001a7a:	0700      	lsls	r0, r0, #28
 8001a7c:	2800      	cmp	r0, #0
 8001a7e:	d50f      	bpl.n	8001aa0 <EXTI3_IRQHandler+0x30>
 8001a80:	e7ff      	b.n	8001a82 <EXTI3_IRQHandler+0x12>
 8001a82:	f643 4114 	movw	r1, #15380	; 0x3c14
 8001a86:	f2c4 0101 	movt	r1, #16385	; 0x4001
D:\#Documents\UVISION\SMART_WAKE_UP/buttons.c:134
 8001a8a:	6808      	ldr	r0, [r1, #0]
 8001a8c:	f040 0008 	orr.w	r0, r0, #8
 8001a90:	6008      	str	r0, [r1, #0]
D:\#Documents\UVISION\SMART_WAKE_UP/buttons.c:135
 8001a92:	f243 4181 	movw	r1, #13441	; 0x3481
 8001a96:	f2c2 0102 	movt	r1, #8194	; 0x2002
 8001a9a:	2001      	movs	r0, #1
 8001a9c:	7008      	strb	r0, [r1, #0]
D:\#Documents\UVISION\SMART_WAKE_UP/buttons.c:136
 8001a9e:	e7ff      	b.n	8001aa0 <EXTI3_IRQHandler+0x30>
D:\#Documents\UVISION\SMART_WAKE_UP/buttons.c:137
 8001aa0:	4770      	bx	lr
 8001aa2:	0000      	movs	r0, r0
 8001aa4:	0000      	movs	r0, r0
	...

08001aa8 <EXTI4_IRQHandler>:
EXTI4_IRQHandler():
D:\#Documents\UVISION\SMART_WAKE_UP/buttons.c:121
 8001aa8:	f643 4014 	movw	r0, #15380	; 0x3c14
 8001aac:	f2c4 0001 	movt	r0, #16385	; 0x4001
D:\#Documents\UVISION\SMART_WAKE_UP/buttons.c:122
 8001ab0:	6800      	ldr	r0, [r0, #0]
 8001ab2:	06c0      	lsls	r0, r0, #27
 8001ab4:	2800      	cmp	r0, #0
 8001ab6:	d50f      	bpl.n	8001ad8 <EXTI4_IRQHandler+0x30>
 8001ab8:	e7ff      	b.n	8001aba <EXTI4_IRQHandler+0x12>
 8001aba:	f643 4114 	movw	r1, #15380	; 0x3c14
 8001abe:	f2c4 0101 	movt	r1, #16385	; 0x4001
D:\#Documents\UVISION\SMART_WAKE_UP/buttons.c:124
 8001ac2:	6808      	ldr	r0, [r1, #0]
 8001ac4:	f040 0010 	orr.w	r0, r0, #16
 8001ac8:	6008      	str	r0, [r1, #0]
D:\#Documents\UVISION\SMART_WAKE_UP/buttons.c:125
 8001aca:	f243 4182 	movw	r1, #13442	; 0x3482
 8001ace:	f2c2 0102 	movt	r1, #8194	; 0x2002
 8001ad2:	2001      	movs	r0, #1
 8001ad4:	7008      	strb	r0, [r1, #0]
D:\#Documents\UVISION\SMART_WAKE_UP/buttons.c:126
 8001ad6:	e7ff      	b.n	8001ad8 <EXTI4_IRQHandler+0x30>
D:\#Documents\UVISION\SMART_WAKE_UP/buttons.c:127
 8001ad8:	4770      	bx	lr
 8001ada:	0000      	movs	r0, r0
 8001adc:	0000      	movs	r0, r0
	...

08001ae0 <GPIO_DigitalWrite>:
GPIO_DigitalWrite():
D:\#Documents\UVISION\SMART_WAKE_UP/gpio.c:34
 8001ae0:	b082      	sub	sp, #8
 8001ae2:	9001      	str	r0, [sp, #4]
 8001ae4:	f8ad 1002 	strh.w	r1, [sp, #2]
 8001ae8:	f88d 2001 	strb.w	r2, [sp, #1]
D:\#Documents\UVISION\SMART_WAKE_UP/gpio.c:35
 8001aec:	f89d 0001 	ldrb.w	r0, [sp, #1]
 8001af0:	2801      	cmp	r0, #1
 8001af2:	d107      	bne.n	8001b04 <GPIO_DigitalWrite+0x24>
 8001af4:	e7ff      	b.n	8001af6 <GPIO_DigitalWrite+0x16>
 8001af6:	f8bd 1002 	ldrh.w	r1, [sp, #2]
 8001afa:	2001      	movs	r0, #1
 8001afc:	4088      	lsls	r0, r1
 8001afe:	9901      	ldr	r1, [sp, #4]
 8001b00:	6188      	str	r0, [r1, #24]
 8001b02:	e00d      	b.n	8001b20 <GPIO_DigitalWrite+0x40>
D:\#Documents\UVISION\SMART_WAKE_UP/gpio.c:36
 8001b04:	f89d 0001 	ldrb.w	r0, [sp, #1]
 8001b08:	b948      	cbnz	r0, 8001b1e <GPIO_DigitalWrite+0x3e>
 8001b0a:	e7ff      	b.n	8001b0c <GPIO_DigitalWrite+0x2c>
 8001b0c:	f8bd 0002 	ldrh.w	r0, [sp, #2]
 8001b10:	f100 0110 	add.w	r1, r0, #16
 8001b14:	2001      	movs	r0, #1
 8001b16:	4088      	lsls	r0, r1
 8001b18:	9901      	ldr	r1, [sp, #4]
 8001b1a:	6188      	str	r0, [r1, #24]
 8001b1c:	e7ff      	b.n	8001b1e <GPIO_DigitalWrite+0x3e>
 8001b1e:	e7ff      	b.n	8001b20 <GPIO_DigitalWrite+0x40>
D:\#Documents\UVISION\SMART_WAKE_UP/gpio.c:37
 8001b20:	b002      	add	sp, #8
 8001b22:	4770      	bx	lr
 8001b24:	0000      	movs	r0, r0
	...

08001b28 <GPIO_PinMode>:
GPIO_PinMode():
D:\#Documents\UVISION\SMART_WAKE_UP/gpio.c:4
 8001b28:	b082      	sub	sp, #8
 8001b2a:	9001      	str	r0, [sp, #4]
 8001b2c:	f8ad 1002 	strh.w	r1, [sp, #2]
 8001b30:	f88d 2001 	strb.w	r2, [sp, #1]
D:\#Documents\UVISION\SMART_WAKE_UP/gpio.c:6
 8001b34:	9801      	ldr	r0, [sp, #4]
 8001b36:	2100      	movs	r1, #0
 8001b38:	f2c4 0102 	movt	r1, #16386	; 0x4002
 8001b3c:	4288      	cmp	r0, r1
 8001b3e:	d109      	bne.n	8001b54 <GPIO_PinMode+0x2c>
 8001b40:	e7ff      	b.n	8001b42 <GPIO_PinMode+0x1a>
 8001b42:	f643 0130 	movw	r1, #14384	; 0x3830
 8001b46:	f2c4 0102 	movt	r1, #16386	; 0x4002
 8001b4a:	6808      	ldr	r0, [r1, #0]
 8001b4c:	f040 0001 	orr.w	r0, r0, #1
 8001b50:	6008      	str	r0, [r1, #0]
 8001b52:	e0a2      	b.n	8001c9a <GPIO_PinMode+0x172>
D:\#Documents\UVISION\SMART_WAKE_UP/gpio.c:7
 8001b54:	9801      	ldr	r0, [sp, #4]
 8001b56:	f240 4100 	movw	r1, #1024	; 0x400
 8001b5a:	f2c4 0102 	movt	r1, #16386	; 0x4002
 8001b5e:	4288      	cmp	r0, r1
 8001b60:	d109      	bne.n	8001b76 <GPIO_PinMode+0x4e>
 8001b62:	e7ff      	b.n	8001b64 <GPIO_PinMode+0x3c>
 8001b64:	f643 0130 	movw	r1, #14384	; 0x3830
 8001b68:	f2c4 0102 	movt	r1, #16386	; 0x4002
 8001b6c:	6808      	ldr	r0, [r1, #0]
 8001b6e:	f040 0002 	orr.w	r0, r0, #2
 8001b72:	6008      	str	r0, [r1, #0]
 8001b74:	e090      	b.n	8001c98 <GPIO_PinMode+0x170>
D:\#Documents\UVISION\SMART_WAKE_UP/gpio.c:8
 8001b76:	9801      	ldr	r0, [sp, #4]
 8001b78:	f640 0100 	movw	r1, #2048	; 0x800
 8001b7c:	f2c4 0102 	movt	r1, #16386	; 0x4002
 8001b80:	4288      	cmp	r0, r1
 8001b82:	d109      	bne.n	8001b98 <GPIO_PinMode+0x70>
 8001b84:	e7ff      	b.n	8001b86 <GPIO_PinMode+0x5e>
 8001b86:	f643 0130 	movw	r1, #14384	; 0x3830
 8001b8a:	f2c4 0102 	movt	r1, #16386	; 0x4002
 8001b8e:	6808      	ldr	r0, [r1, #0]
 8001b90:	f040 0004 	orr.w	r0, r0, #4
 8001b94:	6008      	str	r0, [r1, #0]
 8001b96:	e07e      	b.n	8001c96 <GPIO_PinMode+0x16e>
D:\#Documents\UVISION\SMART_WAKE_UP/gpio.c:9
 8001b98:	9801      	ldr	r0, [sp, #4]
 8001b9a:	f640 4100 	movw	r1, #3072	; 0xc00
 8001b9e:	f2c4 0102 	movt	r1, #16386	; 0x4002
 8001ba2:	4288      	cmp	r0, r1
 8001ba4:	d109      	bne.n	8001bba <GPIO_PinMode+0x92>
 8001ba6:	e7ff      	b.n	8001ba8 <GPIO_PinMode+0x80>
 8001ba8:	f643 0130 	movw	r1, #14384	; 0x3830
 8001bac:	f2c4 0102 	movt	r1, #16386	; 0x4002
 8001bb0:	6808      	ldr	r0, [r1, #0]
 8001bb2:	f040 0008 	orr.w	r0, r0, #8
 8001bb6:	6008      	str	r0, [r1, #0]
 8001bb8:	e06c      	b.n	8001c94 <GPIO_PinMode+0x16c>
D:\#Documents\UVISION\SMART_WAKE_UP/gpio.c:10
 8001bba:	9801      	ldr	r0, [sp, #4]
 8001bbc:	f241 0100 	movw	r1, #4096	; 0x1000
 8001bc0:	f2c4 0102 	movt	r1, #16386	; 0x4002
 8001bc4:	4288      	cmp	r0, r1
 8001bc6:	d109      	bne.n	8001bdc <GPIO_PinMode+0xb4>
 8001bc8:	e7ff      	b.n	8001bca <GPIO_PinMode+0xa2>
 8001bca:	f643 0130 	movw	r1, #14384	; 0x3830
 8001bce:	f2c4 0102 	movt	r1, #16386	; 0x4002
 8001bd2:	6808      	ldr	r0, [r1, #0]
 8001bd4:	f040 0010 	orr.w	r0, r0, #16
 8001bd8:	6008      	str	r0, [r1, #0]
 8001bda:	e05a      	b.n	8001c92 <GPIO_PinMode+0x16a>
D:\#Documents\UVISION\SMART_WAKE_UP/gpio.c:11
 8001bdc:	9801      	ldr	r0, [sp, #4]
 8001bde:	f241 4100 	movw	r1, #5120	; 0x1400
 8001be2:	f2c4 0102 	movt	r1, #16386	; 0x4002
 8001be6:	4288      	cmp	r0, r1
 8001be8:	d109      	bne.n	8001bfe <GPIO_PinMode+0xd6>
 8001bea:	e7ff      	b.n	8001bec <GPIO_PinMode+0xc4>
 8001bec:	f643 0130 	movw	r1, #14384	; 0x3830
 8001bf0:	f2c4 0102 	movt	r1, #16386	; 0x4002
 8001bf4:	6808      	ldr	r0, [r1, #0]
 8001bf6:	f040 0020 	orr.w	r0, r0, #32
 8001bfa:	6008      	str	r0, [r1, #0]
 8001bfc:	e048      	b.n	8001c90 <GPIO_PinMode+0x168>
D:\#Documents\UVISION\SMART_WAKE_UP/gpio.c:12
 8001bfe:	9801      	ldr	r0, [sp, #4]
 8001c00:	f641 0100 	movw	r1, #6144	; 0x1800
 8001c04:	f2c4 0102 	movt	r1, #16386	; 0x4002
 8001c08:	4288      	cmp	r0, r1
 8001c0a:	d109      	bne.n	8001c20 <GPIO_PinMode+0xf8>
 8001c0c:	e7ff      	b.n	8001c0e <GPIO_PinMode+0xe6>
 8001c0e:	f643 0130 	movw	r1, #14384	; 0x3830
 8001c12:	f2c4 0102 	movt	r1, #16386	; 0x4002
 8001c16:	6808      	ldr	r0, [r1, #0]
 8001c18:	f040 0040 	orr.w	r0, r0, #64	; 0x40
 8001c1c:	6008      	str	r0, [r1, #0]
 8001c1e:	e036      	b.n	8001c8e <GPIO_PinMode+0x166>
D:\#Documents\UVISION\SMART_WAKE_UP/gpio.c:13
 8001c20:	9801      	ldr	r0, [sp, #4]
 8001c22:	f641 4100 	movw	r1, #7168	; 0x1c00
 8001c26:	f2c4 0102 	movt	r1, #16386	; 0x4002
 8001c2a:	4288      	cmp	r0, r1
 8001c2c:	d109      	bne.n	8001c42 <GPIO_PinMode+0x11a>
 8001c2e:	e7ff      	b.n	8001c30 <GPIO_PinMode+0x108>
 8001c30:	f643 0130 	movw	r1, #14384	; 0x3830
 8001c34:	f2c4 0102 	movt	r1, #16386	; 0x4002
 8001c38:	6808      	ldr	r0, [r1, #0]
 8001c3a:	f040 0080 	orr.w	r0, r0, #128	; 0x80
 8001c3e:	6008      	str	r0, [r1, #0]
 8001c40:	e024      	b.n	8001c8c <GPIO_PinMode+0x164>
D:\#Documents\UVISION\SMART_WAKE_UP/gpio.c:14
 8001c42:	9801      	ldr	r0, [sp, #4]
 8001c44:	f242 0100 	movw	r1, #8192	; 0x2000
 8001c48:	f2c4 0102 	movt	r1, #16386	; 0x4002
 8001c4c:	4288      	cmp	r0, r1
 8001c4e:	d109      	bne.n	8001c64 <GPIO_PinMode+0x13c>
 8001c50:	e7ff      	b.n	8001c52 <GPIO_PinMode+0x12a>
 8001c52:	f643 0130 	movw	r1, #14384	; 0x3830
 8001c56:	f2c4 0102 	movt	r1, #16386	; 0x4002
 8001c5a:	6808      	ldr	r0, [r1, #0]
 8001c5c:	f440 7080 	orr.w	r0, r0, #256	; 0x100
 8001c60:	6008      	str	r0, [r1, #0]
 8001c62:	e012      	b.n	8001c8a <GPIO_PinMode+0x162>
D:\#Documents\UVISION\SMART_WAKE_UP/gpio.c:15
 8001c64:	9801      	ldr	r0, [sp, #4]
 8001c66:	f642 0100 	movw	r1, #10240	; 0x2800
 8001c6a:	f2c4 0102 	movt	r1, #16386	; 0x4002
 8001c6e:	4288      	cmp	r0, r1
 8001c70:	d109      	bne.n	8001c86 <GPIO_PinMode+0x15e>
 8001c72:	e7ff      	b.n	8001c74 <GPIO_PinMode+0x14c>
 8001c74:	f643 0130 	movw	r1, #14384	; 0x3830
 8001c78:	f2c4 0102 	movt	r1, #16386	; 0x4002
 8001c7c:	6808      	ldr	r0, [r1, #0]
 8001c7e:	f440 6080 	orr.w	r0, r0, #1024	; 0x400
 8001c82:	6008      	str	r0, [r1, #0]
 8001c84:	e000      	b.n	8001c88 <GPIO_PinMode+0x160>
D:\#Documents\UVISION\SMART_WAKE_UP/gpio.c:16
 8001c86:	e039      	b.n	8001cfc <GPIO_PinMode+0x1d4>
 8001c88:	e7ff      	b.n	8001c8a <GPIO_PinMode+0x162>
 8001c8a:	e7ff      	b.n	8001c8c <GPIO_PinMode+0x164>
 8001c8c:	e7ff      	b.n	8001c8e <GPIO_PinMode+0x166>
 8001c8e:	e7ff      	b.n	8001c90 <GPIO_PinMode+0x168>
 8001c90:	e7ff      	b.n	8001c92 <GPIO_PinMode+0x16a>
 8001c92:	e7ff      	b.n	8001c94 <GPIO_PinMode+0x16c>
 8001c94:	e7ff      	b.n	8001c96 <GPIO_PinMode+0x16e>
 8001c96:	e7ff      	b.n	8001c98 <GPIO_PinMode+0x170>
 8001c98:	e7ff      	b.n	8001c9a <GPIO_PinMode+0x172>
D:\#Documents\UVISION\SMART_WAKE_UP/gpio.c:18
 8001c9a:	f8bd 0002 	ldrh.w	r0, [sp, #2]
 8001c9e:	2810      	cmp	r0, #16
 8001ca0:	db01      	blt.n	8001ca6 <GPIO_PinMode+0x17e>
 8001ca2:	e7ff      	b.n	8001ca4 <GPIO_PinMode+0x17c>
 8001ca4:	e02a      	b.n	8001cfc <GPIO_PinMode+0x1d4>
D:\#Documents\UVISION\SMART_WAKE_UP/gpio.c:21
 8001ca6:	f89d 0001 	ldrb.w	r0, [sp, #1]
 8001caa:	b958      	cbnz	r0, 8001cc4 <GPIO_PinMode+0x19c>
 8001cac:	e7ff      	b.n	8001cae <GPIO_PinMode+0x186>
D:\#Documents\UVISION\SMART_WAKE_UP/gpio.c:23
 8001cae:	f8bd 0002 	ldrh.w	r0, [sp, #2]
 8001cb2:	0041      	lsls	r1, r0, #1
 8001cb4:	2003      	movs	r0, #3
 8001cb6:	fa00 f201 	lsl.w	r2, r0, r1
 8001cba:	9901      	ldr	r1, [sp, #4]
 8001cbc:	6808      	ldr	r0, [r1, #0]
 8001cbe:	4390      	bics	r0, r2
 8001cc0:	6008      	str	r0, [r1, #0]
D:\#Documents\UVISION\SMART_WAKE_UP/gpio.c:24
 8001cc2:	e01b      	b.n	8001cfc <GPIO_PinMode+0x1d4>
D:\#Documents\UVISION\SMART_WAKE_UP/gpio.c:25
 8001cc4:	f89d 0001 	ldrb.w	r0, [sp, #1]
 8001cc8:	2801      	cmp	r0, #1
 8001cca:	d115      	bne.n	8001cf8 <GPIO_PinMode+0x1d0>
 8001ccc:	e7ff      	b.n	8001cce <GPIO_PinMode+0x1a6>
D:\#Documents\UVISION\SMART_WAKE_UP/gpio.c:27
 8001cce:	f8bd 0002 	ldrh.w	r0, [sp, #2]
 8001cd2:	0041      	lsls	r1, r0, #1
 8001cd4:	2003      	movs	r0, #3
 8001cd6:	fa00 f201 	lsl.w	r2, r0, r1
 8001cda:	9901      	ldr	r1, [sp, #4]
 8001cdc:	6808      	ldr	r0, [r1, #0]
 8001cde:	4390      	bics	r0, r2
 8001ce0:	6008      	str	r0, [r1, #0]
D:\#Documents\UVISION\SMART_WAKE_UP/gpio.c:28
 8001ce2:	f8bd 0002 	ldrh.w	r0, [sp, #2]
 8001ce6:	0041      	lsls	r1, r0, #1
 8001ce8:	2001      	movs	r0, #1
 8001cea:	fa00 f201 	lsl.w	r2, r0, r1
 8001cee:	9901      	ldr	r1, [sp, #4]
 8001cf0:	6808      	ldr	r0, [r1, #0]
 8001cf2:	4310      	orrs	r0, r2
 8001cf4:	6008      	str	r0, [r1, #0]
D:\#Documents\UVISION\SMART_WAKE_UP/gpio.c:29
 8001cf6:	e000      	b.n	8001cfa <GPIO_PinMode+0x1d2>
D:\#Documents\UVISION\SMART_WAKE_UP/gpio.c:30
 8001cf8:	e000      	b.n	8001cfc <GPIO_PinMode+0x1d4>
 8001cfa:	e7ff      	b.n	8001cfc <GPIO_PinMode+0x1d4>
D:\#Documents\UVISION\SMART_WAKE_UP/gpio.c:31
 8001cfc:	b002      	add	sp, #8
 8001cfe:	4770      	bx	lr

08001d00 <MAIN_DisplayDate>:
MAIN_DisplayDate():
D:\#Documents\UVISION\SMART_WAKE_UP/main.c:64
 8001d00:	b5b0      	push	{r4, r5, r7, lr}
 8001d02:	b094      	sub	sp, #80	; 0x50
 8001d04:	2100      	movs	r1, #0
D:\#Documents\UVISION\SMART_WAKE_UP/main.c:65
 8001d06:	9110      	str	r1, [sp, #64]	; 0x40
 8001d08:	f8cd 104b 	str.w	r1, [sp, #75]	; 0x4b
 8001d0c:	9112      	str	r1, [sp, #72]	; 0x48
 8001d0e:	2068      	movs	r0, #104	; 0x68
 8001d10:	aa12      	add	r2, sp, #72	; 0x48
 8001d12:	2307      	movs	r3, #7
D:\#Documents\UVISION\SMART_WAKE_UP/main.c:66
 8001d14:	9309      	str	r3, [sp, #36]	; 0x24
 8001d16:	f7ff fd3f 	bl	8001798 <DS3231_Read>
D:\#Documents\UVISION\SMART_WAKE_UP/main.c:67
 8001d1a:	f89d 0048 	ldrb.w	r0, [sp, #72]	; 0x48
 8001d1e:	f000 007f 	and.w	r0, r0, #127	; 0x7f
 8001d22:	f7ff fcd1 	bl	80016c8 <DS3231_BCD_DEC>
 8001d26:	f243 4189 	movw	r1, #13449	; 0x3489
 8001d2a:	f2c2 0102 	movt	r1, #8194	; 0x2002
 8001d2e:	9108      	str	r1, [sp, #32]
 8001d30:	7008      	strb	r0, [r1, #0]
D:\#Documents\UVISION\SMART_WAKE_UP/main.c:68
 8001d32:	f89d 0049 	ldrb.w	r0, [sp, #73]	; 0x49
 8001d36:	f7ff fcc7 	bl	80016c8 <DS3231_BCD_DEC>
 8001d3a:	f243 4188 	movw	r1, #13448	; 0x3488
 8001d3e:	f2c2 0102 	movt	r1, #8194	; 0x2002
 8001d42:	9107      	str	r1, [sp, #28]
 8001d44:	7008      	strb	r0, [r1, #0]
D:\#Documents\UVISION\SMART_WAKE_UP/main.c:69
 8001d46:	f89d 004a 	ldrb.w	r0, [sp, #74]	; 0x4a
 8001d4a:	f000 003f 	and.w	r0, r0, #63	; 0x3f
 8001d4e:	f7ff fcbb 	bl	80016c8 <DS3231_BCD_DEC>
 8001d52:	f243 4187 	movw	r1, #13447	; 0x3487
 8001d56:	f2c2 0102 	movt	r1, #8194	; 0x2002
 8001d5a:	9106      	str	r1, [sp, #24]
 8001d5c:	7008      	strb	r0, [r1, #0]
D:\#Documents\UVISION\SMART_WAKE_UP/main.c:70
 8001d5e:	f89d 004b 	ldrb.w	r0, [sp, #75]	; 0x4b
 8001d62:	f7ff fcb1 	bl	80016c8 <DS3231_BCD_DEC>
 8001d66:	f243 31c9 	movw	r1, #13257	; 0x33c9
 8001d6a:	f2c2 0102 	movt	r1, #8194	; 0x2002
 8001d6e:	910a      	str	r1, [sp, #40]	; 0x28
 8001d70:	7008      	strb	r0, [r1, #0]
D:\#Documents\UVISION\SMART_WAKE_UP/main.c:71
 8001d72:	f89d 004c 	ldrb.w	r0, [sp, #76]	; 0x4c
 8001d76:	f7ff fca7 	bl	80016c8 <DS3231_BCD_DEC>
 8001d7a:	f243 31c8 	movw	r1, #13256	; 0x33c8
 8001d7e:	f2c2 0102 	movt	r1, #8194	; 0x2002
 8001d82:	910e      	str	r1, [sp, #56]	; 0x38
 8001d84:	7008      	strb	r0, [r1, #0]
D:\#Documents\UVISION\SMART_WAKE_UP/main.c:72
 8001d86:	f89d 004d 	ldrb.w	r0, [sp, #77]	; 0x4d
 8001d8a:	f7ff fc9d 	bl	80016c8 <DS3231_BCD_DEC>
 8001d8e:	f243 31ca 	movw	r1, #13258	; 0x33ca
 8001d92:	f2c2 0102 	movt	r1, #8194	; 0x2002
 8001d96:	910b      	str	r1, [sp, #44]	; 0x2c
 8001d98:	7008      	strb	r0, [r1, #0]
D:\#Documents\UVISION\SMART_WAKE_UP/main.c:73
 8001d9a:	f89d 004e 	ldrb.w	r0, [sp, #78]	; 0x4e
 8001d9e:	f7ff fc93 	bl	80016c8 <DS3231_BCD_DEC>
 8001da2:	f243 418a 	movw	r1, #13450	; 0x348a
 8001da6:	f2c2 0102 	movt	r1, #8194	; 0x2002
 8001daa:	910c      	str	r1, [sp, #48]	; 0x30
 8001dac:	7008      	strb	r0, [r1, #0]
D:\#Documents\UVISION\SMART_WAKE_UP/main.c:74
 8001dae:	f89d 004d 	ldrb.w	r0, [sp, #77]	; 0x4d
 8001db2:	f000 0080 	and.w	r0, r0, #128	; 0x80
 8001db6:	f7ff fc87 	bl	80016c8 <DS3231_BCD_DEC>
 8001dba:	9a10      	ldr	r2, [sp, #64]	; 0x40
 8001dbc:	f243 4485 	movw	r4, #13445	; 0x3485
 8001dc0:	f2c2 0402 	movt	r4, #8194	; 0x2002
 8001dc4:	7020      	strb	r0, [r4, #0]
D:\#Documents\UVISION\SMART_WAKE_UP/main.c:76
 8001dc6:	f643 50df 	movw	r0, #15839	; 0x3ddf
 8001dca:	f6c0 0000 	movt	r0, #2048	; 0x800
 8001dce:	4669      	mov	r1, sp
 8001dd0:	6008      	str	r0, [r1, #0]
 8001dd2:	f240 0300 	movw	r3, #0
 8001dd6:	f2c2 0302 	movt	r3, #8194	; 0x2002
 8001dda:	930d      	str	r3, [sp, #52]	; 0x34
 8001ddc:	2001      	movs	r0, #1
 8001dde:	900f      	str	r0, [sp, #60]	; 0x3c
 8001de0:	4611      	mov	r1, r2
 8001de2:	f000 faad 	bl	8002340 <SH1106_FontPrint>
 8001de6:	9a06      	ldr	r2, [sp, #24]
 8001de8:	f8dd c01c 	ldr.w	ip, [sp, #28]
 8001dec:	9b08      	ldr	r3, [sp, #32]
 8001dee:	9909      	ldr	r1, [sp, #36]	; 0x24
 8001df0:	980f      	ldr	r0, [sp, #60]	; 0x3c
D:\#Documents\UVISION\SMART_WAKE_UP/main.c:77
 8001df2:	f992 2000 	ldrsb.w	r2, [r2]
 8001df6:	f99c c000 	ldrsb.w	ip, [ip]
 8001dfa:	f993 e000 	ldrsb.w	lr, [r3]
 8001dfe:	466b      	mov	r3, sp
 8001e00:	f8c3 e00c 	str.w	lr, [r3, #12]
 8001e04:	f8c3 c008 	str.w	ip, [r3, #8]
 8001e08:	605a      	str	r2, [r3, #4]
 8001e0a:	f643 623e 	movw	r2, #15934	; 0x3e3e
 8001e0e:	f6c0 0200 	movt	r2, #2048	; 0x800
 8001e12:	601a      	str	r2, [r3, #0]
 8001e14:	f640 1364 	movw	r3, #2404	; 0x964
 8001e18:	f2c2 0302 	movt	r3, #8194	; 0x2002
 8001e1c:	220d      	movs	r2, #13
 8001e1e:	f000 fa8f 	bl	8002340 <SH1106_FontPrint>
 8001e22:	9a0a      	ldr	r2, [sp, #40]	; 0x28
 8001e24:	9b0d      	ldr	r3, [sp, #52]	; 0x34
 8001e26:	980f      	ldr	r0, [sp, #60]	; 0x3c
 8001e28:	9910      	ldr	r1, [sp, #64]	; 0x40
D:\#Documents\UVISION\SMART_WAKE_UP/main.c:78
 8001e2a:	f992 c000 	ldrsb.w	ip, [r2]
 8001e2e:	f243 32cc 	movw	r2, #13260	; 0x33cc
 8001e32:	f2c2 0202 	movt	r2, #8194	; 0x2002
 8001e36:	f852 202c 	ldr.w	r2, [r2, ip, lsl #2]
 8001e3a:	46ec      	mov	ip, sp
 8001e3c:	f8cc 2004 	str.w	r2, [ip, #4]
 8001e40:	f643 52d8 	movw	r2, #15832	; 0x3dd8
 8001e44:	f6c0 0200 	movt	r2, #2048	; 0x800
 8001e48:	f8cc 2000 	str.w	r2, [ip]
 8001e4c:	2227      	movs	r2, #39	; 0x27
 8001e4e:	f000 fa77 	bl	8002340 <SH1106_FontPrint>
 8001e52:	9a0b      	ldr	r2, [sp, #44]	; 0x2c
 8001e54:	f8dd c030 	ldr.w	ip, [sp, #48]	; 0x30
 8001e58:	9b0d      	ldr	r3, [sp, #52]	; 0x34
 8001e5a:	980f      	ldr	r0, [sp, #60]	; 0x3c
 8001e5c:	9910      	ldr	r1, [sp, #64]	; 0x40
 8001e5e:	f8dd e038 	ldr.w	lr, [sp, #56]	; 0x38
D:\#Documents\UVISION\SMART_WAKE_UP/main.c:79
 8001e62:	f992 5000 	ldrsb.w	r5, [r2]
 8001e66:	f243 32ec 	movw	r2, #13292	; 0x33ec
 8001e6a:	f2c2 0202 	movt	r2, #8194	; 0x2002
 8001e6e:	f852 2025 	ldr.w	r2, [r2, r5, lsl #2]
 8001e72:	f99e e000 	ldrsb.w	lr, [lr]
 8001e76:	f994 4000 	ldrsb.w	r4, [r4]
 8001e7a:	f99c 5000 	ldrsb.w	r5, [ip]
 8001e7e:	46ec      	mov	ip, sp
 8001e80:	f8cc 5010 	str.w	r5, [ip, #16]
 8001e84:	f8cc 400c 	str.w	r4, [ip, #12]
 8001e88:	f8cc e008 	str.w	lr, [ip, #8]
 8001e8c:	f8cc 2004 	str.w	r2, [ip, #4]
 8001e90:	f643 624d 	movw	r2, #15949	; 0x3e4d
 8001e94:	f6c0 0200 	movt	r2, #2048	; 0x800
 8001e98:	f8cc 2000 	str.w	r2, [ip]
 8001e9c:	2234      	movs	r2, #52	; 0x34
 8001e9e:	f000 fa4f 	bl	8002340 <SH1106_FontPrint>
 8001ea2:	980f      	ldr	r0, [sp, #60]	; 0x3c
 8001ea4:	9910      	ldr	r1, [sp, #64]	; 0x40
D:\#Documents\UVISION\SMART_WAKE_UP/main.c:80
 8001ea6:	466b      	mov	r3, sp
 8001ea8:	2225      	movs	r2, #37	; 0x25
 8001eaa:	601a      	str	r2, [r3, #0]
 8001eac:	2380      	movs	r3, #128	; 0x80
 8001eae:	9311      	str	r3, [sp, #68]	; 0x44
 8001eb0:	f000 f9ae 	bl	8002210 <SH1106_DrawLine>
 8001eb4:	980f      	ldr	r0, [sp, #60]	; 0x3c
 8001eb6:	9910      	ldr	r1, [sp, #64]	; 0x40
 8001eb8:	9b11      	ldr	r3, [sp, #68]	; 0x44
D:\#Documents\UVISION\SMART_WAKE_UP/main.c:81
 8001eba:	46ec      	mov	ip, sp
 8001ebc:	220c      	movs	r2, #12
 8001ebe:	f8cc 2000 	str.w	r2, [ip]
 8001ec2:	f000 f9a5 	bl	8002210 <SH1106_DrawLine>
D:\#Documents\UVISION\SMART_WAKE_UP/main.c:82
 8001ec6:	b014      	add	sp, #80	; 0x50
 8001ec8:	bdb0      	pop	{r4, r5, r7, pc}
 8001eca:	0000      	movs	r0, r0
 8001ecc:	0000      	movs	r0, r0
	...

08001ed0 <MAIN_Initialization>:
MAIN_Initialization():
D:\#Documents\UVISION\SMART_WAKE_UP/main.c:227
 8001ed0:	b580      	push	{r7, lr}
 8001ed2:	b084      	sub	sp, #16
D:\#Documents\UVISION\SMART_WAKE_UP/main.c:228
 8001ed4:	f643 019c 	movw	r1, #14492	; 0x389c
 8001ed8:	f2c2 0102 	movt	r1, #8194	; 0x2002
 8001edc:	2000      	movs	r0, #0
 8001ede:	6008      	str	r0, [r1, #0]
D:\#Documents\UVISION\SMART_WAKE_UP/main.c:230
 8001ee0:	f643 00a1 	movw	r0, #14497	; 0x38a1
 8001ee4:	f2c2 0002 	movt	r0, #8194	; 0x2002
 8001ee8:	7800      	ldrb	r0, [r0, #0]
 8001eea:	2800      	cmp	r0, #0
 8001eec:	d04e      	beq.n	8001f8c <MAIN_Initialization+0xbc>
 8001eee:	e7ff      	b.n	8001ef0 <MAIN_Initialization+0x20>
D:\#Documents\UVISION\SMART_WAKE_UP/main.c:232
 8001ef0:	f243 4089 	movw	r0, #13449	; 0x3489
 8001ef4:	f2c2 0002 	movt	r0, #8194	; 0x2002
 8001ef8:	7800      	ldrb	r0, [r0, #0]
 8001efa:	f7ff fbf1 	bl	80016e0 <DS3231_DEC_BCD>
 8001efe:	f88d 0009 	strb.w	r0, [sp, #9]
 8001f02:	f243 4088 	movw	r0, #13448	; 0x3488
 8001f06:	f2c2 0002 	movt	r0, #8194	; 0x2002
 8001f0a:	7800      	ldrb	r0, [r0, #0]
 8001f0c:	f7ff fbe8 	bl	80016e0 <DS3231_DEC_BCD>
 8001f10:	f88d 000a 	strb.w	r0, [sp, #10]
 8001f14:	f243 4087 	movw	r0, #13447	; 0x3487
 8001f18:	f2c2 0002 	movt	r0, #8194	; 0x2002
 8001f1c:	7800      	ldrb	r0, [r0, #0]
 8001f1e:	f7ff fbdf 	bl	80016e0 <DS3231_DEC_BCD>
 8001f22:	f88d 000b 	strb.w	r0, [sp, #11]
 8001f26:	f243 30c9 	movw	r0, #13257	; 0x33c9
 8001f2a:	f2c2 0002 	movt	r0, #8194	; 0x2002
 8001f2e:	7800      	ldrb	r0, [r0, #0]
 8001f30:	f7ff fbd6 	bl	80016e0 <DS3231_DEC_BCD>
 8001f34:	f88d 000c 	strb.w	r0, [sp, #12]
 8001f38:	f243 30c8 	movw	r0, #13256	; 0x33c8
 8001f3c:	f2c2 0002 	movt	r0, #8194	; 0x2002
 8001f40:	7800      	ldrb	r0, [r0, #0]
 8001f42:	f7ff fbcd 	bl	80016e0 <DS3231_DEC_BCD>
 8001f46:	f88d 000d 	strb.w	r0, [sp, #13]
 8001f4a:	f243 30ca 	movw	r0, #13258	; 0x33ca
 8001f4e:	f2c2 0002 	movt	r0, #8194	; 0x2002
 8001f52:	7800      	ldrb	r0, [r0, #0]
 8001f54:	f7ff fbc4 	bl	80016e0 <DS3231_DEC_BCD>
 8001f58:	f88d 000e 	strb.w	r0, [sp, #14]
 8001f5c:	f243 408a 	movw	r0, #13450	; 0x348a
 8001f60:	f2c2 0002 	movt	r0, #8194	; 0x2002
 8001f64:	7800      	ldrb	r0, [r0, #0]
 8001f66:	f7ff fbbb 	bl	80016e0 <DS3231_DEC_BCD>
 8001f6a:	f88d 000f 	strb.w	r0, [sp, #15]
 8001f6e:	2068      	movs	r0, #104	; 0x68
 8001f70:	2100      	movs	r1, #0
 8001f72:	9101      	str	r1, [sp, #4]
 8001f74:	f10d 0209 	add.w	r2, sp, #9
 8001f78:	2307      	movs	r3, #7
D:\#Documents\UVISION\SMART_WAKE_UP/main.c:233
 8001f7a:	f7ff fcd1 	bl	8001920 <DS3231_WriteMemory>
 8001f7e:	9801      	ldr	r0, [sp, #4]
D:\#Documents\UVISION\SMART_WAKE_UP/main.c:234
 8001f80:	f643 01a1 	movw	r1, #14497	; 0x38a1
 8001f84:	f2c2 0102 	movt	r1, #8194	; 0x2002
 8001f88:	7008      	strb	r0, [r1, #0]
D:\#Documents\UVISION\SMART_WAKE_UP/main.c:235
 8001f8a:	e7ff      	b.n	8001f8c <MAIN_Initialization+0xbc>
D:\#Documents\UVISION\SMART_WAKE_UP/main.c:236
 8001f8c:	b004      	add	sp, #16
 8001f8e:	bd80      	pop	{r7, pc}

08001f90 <MAIN_Settings>:
MAIN_Settings():
D:\#Documents\UVISION\SMART_WAKE_UP/main.c:183
 8001f90:	b580      	push	{r7, lr}
 8001f92:	b082      	sub	sp, #8
D:\#Documents\UVISION\SMART_WAKE_UP/main.c:184
 8001f94:	f643 01a1 	movw	r1, #14497	; 0x38a1
 8001f98:	f2c2 0102 	movt	r1, #8194	; 0x2002
 8001f9c:	2001      	movs	r0, #1
 8001f9e:	7008      	strb	r0, [r1, #0]
D:\#Documents\UVISION\SMART_WAKE_UP/main.c:186
 8001fa0:	f243 4082 	movw	r0, #13442	; 0x3482
 8001fa4:	f2c2 0002 	movt	r0, #8194	; 0x2002
 8001fa8:	7800      	ldrb	r0, [r0, #0]
 8001faa:	b170      	cbz	r0, 8001fca <MAIN_Settings+0x3a>
 8001fac:	e7ff      	b.n	8001fae <MAIN_Settings+0x1e>
D:\#Documents\UVISION\SMART_WAKE_UP/main.c:188
 8001fae:	f643 019c 	movw	r1, #14492	; 0x389c
 8001fb2:	f2c2 0102 	movt	r1, #8194	; 0x2002
 8001fb6:	6808      	ldr	r0, [r1, #0]
 8001fb8:	3001      	adds	r0, #1
 8001fba:	6008      	str	r0, [r1, #0]
D:\#Documents\UVISION\SMART_WAKE_UP/main.c:189
 8001fbc:	f243 4182 	movw	r1, #13442	; 0x3482
 8001fc0:	f2c2 0102 	movt	r1, #8194	; 0x2002
 8001fc4:	2000      	movs	r0, #0
 8001fc6:	7008      	strb	r0, [r1, #0]
D:\#Documents\UVISION\SMART_WAKE_UP/main.c:190
 8001fc8:	e7ff      	b.n	8001fca <MAIN_Settings+0x3a>
D:\#Documents\UVISION\SMART_WAKE_UP/main.c:191
 8001fca:	f243 4081 	movw	r0, #13441	; 0x3481
 8001fce:	f2c2 0002 	movt	r0, #8194	; 0x2002
 8001fd2:	7800      	ldrb	r0, [r0, #0]
 8001fd4:	b170      	cbz	r0, 8001ff4 <MAIN_Settings+0x64>
 8001fd6:	e7ff      	b.n	8001fd8 <MAIN_Settings+0x48>
D:\#Documents\UVISION\SMART_WAKE_UP/main.c:193
 8001fd8:	f643 019c 	movw	r1, #14492	; 0x389c
 8001fdc:	f2c2 0102 	movt	r1, #8194	; 0x2002
 8001fe0:	6808      	ldr	r0, [r1, #0]
 8001fe2:	3801      	subs	r0, #1
 8001fe4:	6008      	str	r0, [r1, #0]
D:\#Documents\UVISION\SMART_WAKE_UP/main.c:194
 8001fe6:	f243 4181 	movw	r1, #13441	; 0x3481
 8001fea:	f2c2 0102 	movt	r1, #8194	; 0x2002
 8001fee:	2000      	movs	r0, #0
 8001ff0:	7008      	strb	r0, [r1, #0]
D:\#Documents\UVISION\SMART_WAKE_UP/main.c:195
 8001ff2:	e7ff      	b.n	8001ff4 <MAIN_Settings+0x64>
D:\#Documents\UVISION\SMART_WAKE_UP/main.c:197
 8001ff4:	f643 009c 	movw	r0, #14492	; 0x389c
 8001ff8:	f2c2 0002 	movt	r0, #8194	; 0x2002
 8001ffc:	6800      	ldr	r0, [r0, #0]
 8001ffe:	2807      	cmp	r0, #7
 8002000:	db07      	blt.n	8002012 <MAIN_Settings+0x82>
 8002002:	e7ff      	b.n	8002004 <MAIN_Settings+0x74>
 8002004:	f643 019c 	movw	r1, #14492	; 0x389c
 8002008:	f2c2 0102 	movt	r1, #8194	; 0x2002
 800200c:	2000      	movs	r0, #0
 800200e:	6008      	str	r0, [r1, #0]
 8002010:	e7ff      	b.n	8002012 <MAIN_Settings+0x82>
D:\#Documents\UVISION\SMART_WAKE_UP/main.c:198
 8002012:	f643 009c 	movw	r0, #14492	; 0x389c
 8002016:	f2c2 0002 	movt	r0, #8194	; 0x2002
 800201a:	6800      	ldr	r0, [r0, #0]
 800201c:	f1b0 3fff 	cmp.w	r0, #4294967295	; 0xffffffff
 8002020:	dc07      	bgt.n	8002032 <MAIN_Settings+0xa2>
 8002022:	e7ff      	b.n	8002024 <MAIN_Settings+0x94>
 8002024:	f643 019c 	movw	r1, #14492	; 0x389c
 8002028:	f2c2 0102 	movt	r1, #8194	; 0x2002
 800202c:	2006      	movs	r0, #6
 800202e:	6008      	str	r0, [r1, #0]
 8002030:	e7ff      	b.n	8002032 <MAIN_Settings+0xa2>
D:\#Documents\UVISION\SMART_WAKE_UP/main.c:200
 8002032:	f643 009c 	movw	r0, #14492	; 0x389c
 8002036:	f2c2 0002 	movt	r0, #8194	; 0x2002
 800203a:	6800      	ldr	r0, [r0, #0]
 800203c:	9001      	str	r0, [sp, #4]
 800203e:	2806      	cmp	r0, #6
 8002040:	d843      	bhi.n	80020ca <MAIN_Settings+0x13a>
 8002042:	9901      	ldr	r1, [sp, #4]
 8002044:	e8df f001 	tbb	[pc, r1]
 8002048:	2b1e1104 	blcs	8786460 <__lcctype_c_end+0x782420>
 800204c:	003e3b38 	eorseq	r3, lr, r8, lsr fp
D:\#Documents\UVISION\SMART_WAKE_UP/main.c:203
 8002050:	f243 4089 	movw	r0, #13449	; 0x3489
 8002054:	f2c2 0002 	movt	r0, #8194	; 0x2002
 8002058:	f643 51f4 	movw	r1, #15860	; 0x3df4
 800205c:	f6c0 0100 	movt	r1, #2048	; 0x800
 8002060:	223b      	movs	r2, #59	; 0x3b
 8002062:	2300      	movs	r3, #0
 8002064:	f000 fd44 	bl	8002af0 <handling>
D:\#Documents\UVISION\SMART_WAKE_UP/main.c:204
 8002068:	e02f      	b.n	80020ca <MAIN_Settings+0x13a>
D:\#Documents\UVISION\SMART_WAKE_UP/main.c:206
 800206a:	f243 4088 	movw	r0, #13448	; 0x3488
 800206e:	f2c2 0002 	movt	r0, #8194	; 0x2002
 8002072:	f643 616d 	movw	r1, #15981	; 0x3e6d
 8002076:	f6c0 0100 	movt	r1, #2048	; 0x800
 800207a:	223b      	movs	r2, #59	; 0x3b
 800207c:	2300      	movs	r3, #0
 800207e:	f000 fd37 	bl	8002af0 <handling>
D:\#Documents\UVISION\SMART_WAKE_UP/main.c:207
 8002082:	e022      	b.n	80020ca <MAIN_Settings+0x13a>
D:\#Documents\UVISION\SMART_WAKE_UP/main.c:209
 8002084:	f243 4087 	movw	r0, #13447	; 0x3487
 8002088:	f2c2 0002 	movt	r0, #8194	; 0x2002
 800208c:	f643 6195 	movw	r1, #16021	; 0x3e95
 8002090:	f6c0 0100 	movt	r1, #2048	; 0x800
 8002094:	2217      	movs	r2, #23
 8002096:	2300      	movs	r3, #0
 8002098:	f000 fd2a 	bl	8002af0 <handling>
D:\#Documents\UVISION\SMART_WAKE_UP/main.c:210
 800209c:	e015      	b.n	80020ca <MAIN_Settings+0x13a>
D:\#Documents\UVISION\SMART_WAKE_UP/main.c:212
 800209e:	f243 30c9 	movw	r0, #13257	; 0x33c9
 80020a2:	f2c2 0002 	movt	r0, #8194	; 0x2002
 80020a6:	f643 51ef 	movw	r1, #15855	; 0x3def
 80020aa:	f6c0 0100 	movt	r1, #2048	; 0x800
 80020ae:	2207      	movs	r2, #7
 80020b0:	2301      	movs	r3, #1
 80020b2:	f000 fd1d 	bl	8002af0 <handling>
D:\#Documents\UVISION\SMART_WAKE_UP/main.c:213
 80020b6:	e008      	b.n	80020ca <MAIN_Settings+0x13a>
D:\#Documents\UVISION\SMART_WAKE_UP/main.c:215
 80020b8:	f000 fd72 	bl	8002ba0 <handlingDay>
D:\#Documents\UVISION\SMART_WAKE_UP/main.c:216
 80020bc:	e005      	b.n	80020ca <MAIN_Settings+0x13a>
D:\#Documents\UVISION\SMART_WAKE_UP/main.c:218
 80020be:	f000 ff9b 	bl	8002ff8 <handlingMonth>
D:\#Documents\UVISION\SMART_WAKE_UP/main.c:219
 80020c2:	e002      	b.n	80020ca <MAIN_Settings+0x13a>
D:\#Documents\UVISION\SMART_WAKE_UP/main.c:221
 80020c4:	f001 f8b4 	bl	8003230 <handlingYear>
D:\#Documents\UVISION\SMART_WAKE_UP/main.c:222
 80020c8:	e7ff      	b.n	80020ca <MAIN_Settings+0x13a>
D:\#Documents\UVISION\SMART_WAKE_UP/main.c:224
 80020ca:	b002      	add	sp, #8
 80020cc:	bd80      	pop	{r7, pc}
	...

080020d0 <SH1106_ClearBuffer>:
SH1106_ClearBuffer():
 80020d0:	b081      	sub	sp, #4
 80020d2:	2000      	movs	r0, #0
 80020d4:	9000      	str	r0, [sp, #0]
 80020d6:	e7ff      	b.n	80020d8 <SH1106_ClearBuffer+0x8>
 80020d8:	9800      	ldr	r0, [sp, #0]
 80020da:	f5b0 6f80 	cmp.w	r0, #1024	; 0x400
 80020de:	da0c      	bge.n	80020fa <SH1106_ClearBuffer+0x2a>
 80020e0:	e7ff      	b.n	80020e2 <SH1106_ClearBuffer+0x12>
 80020e2:	9a00      	ldr	r2, [sp, #0]
 80020e4:	f243 418b 	movw	r1, #13451	; 0x348b
 80020e8:	f2c2 0102 	movt	r1, #8194	; 0x2002
 80020ec:	2000      	movs	r0, #0
 80020ee:	5488      	strb	r0, [r1, r2]
 80020f0:	e7ff      	b.n	80020f2 <SH1106_ClearBuffer+0x22>
 80020f2:	9800      	ldr	r0, [sp, #0]
 80020f4:	3001      	adds	r0, #1
 80020f6:	9000      	str	r0, [sp, #0]
 80020f8:	e7ee      	b.n	80020d8 <SH1106_ClearBuffer+0x8>
 80020fa:	b001      	add	sp, #4
 80020fc:	4770      	bx	lr
	...

08002100 <SH1106_DrawCharacter>:
SH1106_DrawCharacter():
D:\#Documents\UVISION\SMART_WAKE_UP/sh1106.c:243
 8002100:	b5b0      	push	{r4, r5, r7, lr}
 8002102:	b08c      	sub	sp, #48	; 0x30
 8002104:	4694      	mov	ip, r2
 8002106:	468e      	mov	lr, r1
 8002108:	4604      	mov	r4, r0
 800210a:	9812      	ldr	r0, [sp, #72]	; 0x48
 800210c:	9911      	ldr	r1, [sp, #68]	; 0x44
 800210e:	9a10      	ldr	r2, [sp, #64]	; 0x40
 8002110:	f88d 402f 	strb.w	r4, [sp, #47]	; 0x2f
 8002114:	f8ad e02c 	strh.w	lr, [sp, #44]	; 0x2c
 8002118:	f8ad c02a 	strh.w	ip, [sp, #42]	; 0x2a
 800211c:	9309      	str	r3, [sp, #36]	; 0x24
 800211e:	f88d 2023 	strb.w	r2, [sp, #35]	; 0x23
 8002122:	f88d 1022 	strb.w	r1, [sp, #34]	; 0x22
 8002126:	f88d 0021 	strb.w	r0, [sp, #33]	; 0x21
D:\#Documents\UVISION\SMART_WAKE_UP/sh1106.c:244
 800212a:	f89d 0022 	ldrb.w	r0, [sp, #34]	; 0x22
 800212e:	f89d 1023 	ldrb.w	r1, [sp, #35]	; 0x23
 8002132:	2204      	movs	r2, #4
 8002134:	fb10 2001 	smlabb	r0, r0, r1, r2
 8002138:	f8ad 001e 	strh.w	r0, [sp, #30]
D:\#Documents\UVISION\SMART_WAKE_UP/sh1106.c:245
 800213c:	9809      	ldr	r0, [sp, #36]	; 0x24
 800213e:	f8bd 101e 	ldrh.w	r1, [sp, #30]
 8002142:	5c40      	ldrb	r0, [r0, r1]
 8002144:	f88d 001d 	strb.w	r0, [sp, #29]
 8002148:	2000      	movs	r0, #0
D:\#Documents\UVISION\SMART_WAKE_UP/sh1106.c:247
 800214a:	9006      	str	r0, [sp, #24]
 800214c:	e7ff      	b.n	800214e <SH1106_DrawCharacter+0x4e>
 800214e:	9806      	ldr	r0, [sp, #24]
 8002150:	f89d 101d 	ldrb.w	r1, [sp, #29]
 8002154:	4288      	cmp	r0, r1
 8002156:	da58      	bge.n	800220a <SH1106_DrawCharacter+0x10a>
 8002158:	e7ff      	b.n	800215a <SH1106_DrawCharacter+0x5a>
 800215a:	2000      	movs	r0, #0
D:\#Documents\UVISION\SMART_WAKE_UP/sh1106.c:249
 800215c:	9005      	str	r0, [sp, #20]
 800215e:	e7ff      	b.n	8002160 <SH1106_DrawCharacter+0x60>
 8002160:	9805      	ldr	r0, [sp, #20]
 8002162:	f89d 1021 	ldrb.w	r1, [sp, #33]	; 0x21
 8002166:	4288      	cmp	r0, r1
 8002168:	da4a      	bge.n	8002200 <SH1106_DrawCharacter+0x100>
 800216a:	e7ff      	b.n	800216c <SH1106_DrawCharacter+0x6c>
D:\#Documents\UVISION\SMART_WAKE_UP/sh1106.c:251
 800216c:	f89d 0022 	ldrb.w	r0, [sp, #34]	; 0x22
 8002170:	f89d 1023 	ldrb.w	r1, [sp, #35]	; 0x23
 8002174:	9a05      	ldr	r2, [sp, #20]
 8002176:	fb10 2201 	smlabb	r2, r0, r1, r2
 800217a:	f89d 0021 	ldrb.w	r0, [sp, #33]	; 0x21
 800217e:	9906      	ldr	r1, [sp, #24]
 8002180:	fb00 2001 	mla	r0, r0, r1, r2
 8002184:	3005      	adds	r0, #5
 8002186:	f8ad 0012 	strh.w	r0, [sp, #18]
D:\#Documents\UVISION\SMART_WAKE_UP/sh1106.c:252
 800218a:	9809      	ldr	r0, [sp, #36]	; 0x24
 800218c:	f8bd 1012 	ldrh.w	r1, [sp, #18]
 8002190:	5c40      	ldrb	r0, [r0, r1]
 8002192:	f88d 0011 	strb.w	r0, [sp, #17]
 8002196:	2000      	movs	r0, #0
D:\#Documents\UVISION\SMART_WAKE_UP/sh1106.c:253
 8002198:	9003      	str	r0, [sp, #12]
 800219a:	e7ff      	b.n	800219c <SH1106_DrawCharacter+0x9c>
 800219c:	9803      	ldr	r0, [sp, #12]
 800219e:	2807      	cmp	r0, #7
 80021a0:	dc29      	bgt.n	80021f6 <SH1106_DrawCharacter+0xf6>
 80021a2:	e7ff      	b.n	80021a4 <SH1106_DrawCharacter+0xa4>
D:\#Documents\UVISION\SMART_WAKE_UP/sh1106.c:255
 80021a4:	f89d 0011 	ldrb.w	r0, [sp, #17]
 80021a8:	9903      	ldr	r1, [sp, #12]
 80021aa:	40c8      	lsrs	r0, r1
 80021ac:	f000 0001 	and.w	r0, r0, #1
 80021b0:	f88d 000b 	strb.w	r0, [sp, #11]
D:\#Documents\UVISION\SMART_WAKE_UP/sh1106.c:256
 80021b4:	f8bd 002c 	ldrh.w	r0, [sp, #44]	; 0x2c
 80021b8:	9906      	ldr	r1, [sp, #24]
 80021ba:	4408      	add	r0, r1
 80021bc:	f8ad 0008 	strh.w	r0, [sp, #8]
D:\#Documents\UVISION\SMART_WAKE_UP/sh1106.c:257
 80021c0:	f8bd 002a 	ldrh.w	r0, [sp, #42]	; 0x2a
 80021c4:	9903      	ldr	r1, [sp, #12]
 80021c6:	9a05      	ldr	r2, [sp, #20]
 80021c8:	eb01 01c2 	add.w	r1, r1, r2, lsl #3
 80021cc:	4408      	add	r0, r1
 80021ce:	f8ad 0006 	strh.w	r0, [sp, #6]
D:\#Documents\UVISION\SMART_WAKE_UP/sh1106.c:258
 80021d2:	f89d 000b 	ldrb.w	r0, [sp, #11]
 80021d6:	b148      	cbz	r0, 80021ec <SH1106_DrawCharacter+0xec>
 80021d8:	e7ff      	b.n	80021da <SH1106_DrawCharacter+0xda>
 80021da:	f89d 002f 	ldrb.w	r0, [sp, #47]	; 0x2f
 80021de:	f9bd 1008 	ldrsh.w	r1, [sp, #8]
 80021e2:	f9bd 2006 	ldrsh.w	r2, [sp, #6]
 80021e6:	f000 fa1f 	bl	8002628 <SH1106_SetPixel>
 80021ea:	e7ff      	b.n	80021ec <SH1106_DrawCharacter+0xec>
D:\#Documents\UVISION\SMART_WAKE_UP/sh1106.c:259
 80021ec:	e7ff      	b.n	80021ee <SH1106_DrawCharacter+0xee>
D:\#Documents\UVISION\SMART_WAKE_UP/sh1106.c:253
 80021ee:	9803      	ldr	r0, [sp, #12]
 80021f0:	3001      	adds	r0, #1
 80021f2:	9003      	str	r0, [sp, #12]
 80021f4:	e7d2      	b.n	800219c <SH1106_DrawCharacter+0x9c>
D:\#Documents\UVISION\SMART_WAKE_UP/sh1106.c:260
 80021f6:	e7ff      	b.n	80021f8 <SH1106_DrawCharacter+0xf8>
D:\#Documents\UVISION\SMART_WAKE_UP/sh1106.c:249
 80021f8:	9805      	ldr	r0, [sp, #20]
 80021fa:	3001      	adds	r0, #1
 80021fc:	9005      	str	r0, [sp, #20]
 80021fe:	e7af      	b.n	8002160 <SH1106_DrawCharacter+0x60>
D:\#Documents\UVISION\SMART_WAKE_UP/sh1106.c:261
 8002200:	e7ff      	b.n	8002202 <SH1106_DrawCharacter+0x102>
D:\#Documents\UVISION\SMART_WAKE_UP/sh1106.c:247
 8002202:	9806      	ldr	r0, [sp, #24]
 8002204:	3001      	adds	r0, #1
 8002206:	9006      	str	r0, [sp, #24]
 8002208:	e7a1      	b.n	800214e <SH1106_DrawCharacter+0x4e>
D:\#Documents\UVISION\SMART_WAKE_UP/sh1106.c:262
 800220a:	b00c      	add	sp, #48	; 0x30
 800220c:	bdb0      	pop	{r4, r5, r7, pc}
	...

08002210 <SH1106_DrawLine>:
SH1106_DrawLine():
D:\#Documents\UVISION\SMART_WAKE_UP/sh1106.c:315
 8002210:	b580      	push	{r7, lr}
 8002212:	b08c      	sub	sp, #48	; 0x30
 8002214:	4684      	mov	ip, r0
 8002216:	980e      	ldr	r0, [sp, #56]	; 0x38
 8002218:	f88d c02f 	strb.w	ip, [sp, #47]	; 0x2f
 800221c:	f88d 102e 	strb.w	r1, [sp, #46]	; 0x2e
 8002220:	f88d 202d 	strb.w	r2, [sp, #45]	; 0x2d
 8002224:	f88d 302c 	strb.w	r3, [sp, #44]	; 0x2c
 8002228:	f88d 002b 	strb.w	r0, [sp, #43]	; 0x2b
D:\#Documents\UVISION\SMART_WAKE_UP/sh1106.c:316
 800222c:	f89d 002c 	ldrb.w	r0, [sp, #44]	; 0x2c
 8002230:	f89d 102e 	ldrb.w	r1, [sp, #46]	; 0x2e
 8002234:	4288      	cmp	r0, r1
 8002236:	db07      	blt.n	8002248 <SH1106_DrawLine+0x38>
 8002238:	e7ff      	b.n	800223a <SH1106_DrawLine+0x2a>
 800223a:	f89d 002c 	ldrb.w	r0, [sp, #44]	; 0x2c
 800223e:	f89d 102e 	ldrb.w	r1, [sp, #46]	; 0x2e
 8002242:	1a40      	subs	r0, r0, r1
 8002244:	9003      	str	r0, [sp, #12]
 8002246:	e006      	b.n	8002256 <SH1106_DrawLine+0x46>
 8002248:	f89d 002e 	ldrb.w	r0, [sp, #46]	; 0x2e
 800224c:	f89d 102c 	ldrb.w	r1, [sp, #44]	; 0x2c
 8002250:	1a40      	subs	r0, r0, r1
 8002252:	9003      	str	r0, [sp, #12]
 8002254:	e7ff      	b.n	8002256 <SH1106_DrawLine+0x46>
 8002256:	9803      	ldr	r0, [sp, #12]
 8002258:	9009      	str	r0, [sp, #36]	; 0x24
D:\#Documents\UVISION\SMART_WAKE_UP/sh1106.c:317
 800225a:	f89d 002b 	ldrb.w	r0, [sp, #43]	; 0x2b
 800225e:	f89d 102d 	ldrb.w	r1, [sp, #45]	; 0x2d
 8002262:	4288      	cmp	r0, r1
 8002264:	db07      	blt.n	8002276 <SH1106_DrawLine+0x66>
 8002266:	e7ff      	b.n	8002268 <SH1106_DrawLine+0x58>
 8002268:	f89d 002b 	ldrb.w	r0, [sp, #43]	; 0x2b
 800226c:	f89d 102d 	ldrb.w	r1, [sp, #45]	; 0x2d
 8002270:	1a40      	subs	r0, r0, r1
 8002272:	9002      	str	r0, [sp, #8]
 8002274:	e006      	b.n	8002284 <SH1106_DrawLine+0x74>
 8002276:	f89d 002d 	ldrb.w	r0, [sp, #45]	; 0x2d
 800227a:	f89d 102b 	ldrb.w	r1, [sp, #43]	; 0x2b
 800227e:	1a40      	subs	r0, r0, r1
 8002280:	9002      	str	r0, [sp, #8]
 8002282:	e7ff      	b.n	8002284 <SH1106_DrawLine+0x74>
 8002284:	9802      	ldr	r0, [sp, #8]
 8002286:	9008      	str	r0, [sp, #32]
D:\#Documents\UVISION\SMART_WAKE_UP/sh1106.c:318
 8002288:	f89d 102e 	ldrb.w	r1, [sp, #46]	; 0x2e
 800228c:	f89d 202c 	ldrb.w	r2, [sp, #44]	; 0x2c
 8002290:	f04f 30ff 	mov.w	r0, #4294967295	; 0xffffffff
 8002294:	4291      	cmp	r1, r2
 8002296:	4601      	mov	r1, r0
 8002298:	bfb8      	it	lt
 800229a:	2101      	movlt	r1, #1
 800229c:	9107      	str	r1, [sp, #28]
D:\#Documents\UVISION\SMART_WAKE_UP/sh1106.c:319
 800229e:	f89d 102d 	ldrb.w	r1, [sp, #45]	; 0x2d
 80022a2:	f89d 202b 	ldrb.w	r2, [sp, #43]	; 0x2b
 80022a6:	4291      	cmp	r1, r2
 80022a8:	bfb8      	it	lt
 80022aa:	2001      	movlt	r0, #1
 80022ac:	9006      	str	r0, [sp, #24]
D:\#Documents\UVISION\SMART_WAKE_UP/sh1106.c:320
 80022ae:	9809      	ldr	r0, [sp, #36]	; 0x24
 80022b0:	9908      	ldr	r1, [sp, #32]
 80022b2:	1a40      	subs	r0, r0, r1
 80022b4:	9005      	str	r0, [sp, #20]
D:\#Documents\UVISION\SMART_WAKE_UP/sh1106.c:322
 80022b6:	e7ff      	b.n	80022b8 <SH1106_DrawLine+0xa8>
 80022b8:	f89d 102e 	ldrb.w	r1, [sp, #46]	; 0x2e
 80022bc:	f89d 202c 	ldrb.w	r2, [sp, #44]	; 0x2c
 80022c0:	2001      	movs	r0, #1
 80022c2:	4291      	cmp	r1, r2
 80022c4:	9001      	str	r0, [sp, #4]
 80022c6:	d109      	bne.n	80022dc <SH1106_DrawLine+0xcc>
 80022c8:	e7ff      	b.n	80022ca <SH1106_DrawLine+0xba>
 80022ca:	f89d 002d 	ldrb.w	r0, [sp, #45]	; 0x2d
 80022ce:	f89d 102b 	ldrb.w	r1, [sp, #43]	; 0x2b
 80022d2:	1a40      	subs	r0, r0, r1
 80022d4:	bf18      	it	ne
 80022d6:	2001      	movne	r0, #1
 80022d8:	9001      	str	r0, [sp, #4]
 80022da:	e7ff      	b.n	80022dc <SH1106_DrawLine+0xcc>
 80022dc:	9801      	ldr	r0, [sp, #4]
 80022de:	07c0      	lsls	r0, r0, #31
 80022e0:	b360      	cbz	r0, 800233c <SH1106_DrawLine+0x12c>
 80022e2:	e7ff      	b.n	80022e4 <SH1106_DrawLine+0xd4>
D:\#Documents\UVISION\SMART_WAKE_UP/sh1106.c:324
 80022e4:	f89d 002f 	ldrb.w	r0, [sp, #47]	; 0x2f
 80022e8:	f89d 102e 	ldrb.w	r1, [sp, #46]	; 0x2e
 80022ec:	f89d 202d 	ldrb.w	r2, [sp, #45]	; 0x2d
 80022f0:	f000 f99a 	bl	8002628 <SH1106_SetPixel>
D:\#Documents\UVISION\SMART_WAKE_UP/sh1106.c:326
 80022f4:	9805      	ldr	r0, [sp, #20]
 80022f6:	0040      	lsls	r0, r0, #1
 80022f8:	9004      	str	r0, [sp, #16]
D:\#Documents\UVISION\SMART_WAKE_UP/sh1106.c:328
 80022fa:	9804      	ldr	r0, [sp, #16]
 80022fc:	9908      	ldr	r1, [sp, #32]
 80022fe:	4288      	cmp	r0, r1
 8002300:	db0b      	blt.n	800231a <SH1106_DrawLine+0x10a>
 8002302:	e7ff      	b.n	8002304 <SH1106_DrawLine+0xf4>
D:\#Documents\UVISION\SMART_WAKE_UP/sh1106.c:330
 8002304:	9908      	ldr	r1, [sp, #32]
 8002306:	9805      	ldr	r0, [sp, #20]
 8002308:	4408      	add	r0, r1
 800230a:	9005      	str	r0, [sp, #20]
D:\#Documents\UVISION\SMART_WAKE_UP/sh1106.c:331
 800230c:	9907      	ldr	r1, [sp, #28]
 800230e:	f89d 002e 	ldrb.w	r0, [sp, #46]	; 0x2e
 8002312:	4408      	add	r0, r1
 8002314:	f88d 002e 	strb.w	r0, [sp, #46]	; 0x2e
D:\#Documents\UVISION\SMART_WAKE_UP/sh1106.c:332
 8002318:	e7ff      	b.n	800231a <SH1106_DrawLine+0x10a>
D:\#Documents\UVISION\SMART_WAKE_UP/sh1106.c:334
 800231a:	9804      	ldr	r0, [sp, #16]
 800231c:	9909      	ldr	r1, [sp, #36]	; 0x24
 800231e:	4288      	cmp	r0, r1
 8002320:	dc0b      	bgt.n	800233a <SH1106_DrawLine+0x12a>
 8002322:	e7ff      	b.n	8002324 <SH1106_DrawLine+0x114>
D:\#Documents\UVISION\SMART_WAKE_UP/sh1106.c:336
 8002324:	9909      	ldr	r1, [sp, #36]	; 0x24
 8002326:	9805      	ldr	r0, [sp, #20]
 8002328:	4408      	add	r0, r1
 800232a:	9005      	str	r0, [sp, #20]
D:\#Documents\UVISION\SMART_WAKE_UP/sh1106.c:337
 800232c:	9906      	ldr	r1, [sp, #24]
 800232e:	f89d 002d 	ldrb.w	r0, [sp, #45]	; 0x2d
 8002332:	4408      	add	r0, r1
 8002334:	f88d 002d 	strb.w	r0, [sp, #45]	; 0x2d
D:\#Documents\UVISION\SMART_WAKE_UP/sh1106.c:338
 8002338:	e7ff      	b.n	800233a <SH1106_DrawLine+0x12a>
D:\#Documents\UVISION\SMART_WAKE_UP/sh1106.c:322
 800233a:	e7bd      	b.n	80022b8 <SH1106_DrawLine+0xa8>
D:\#Documents\UVISION\SMART_WAKE_UP/sh1106.c:340
 800233c:	b00c      	add	sp, #48	; 0x30
 800233e:	bd80      	pop	{r7, pc}

08002340 <SH1106_FontPrint>:
SH1106_FontPrint():
D:\#Documents\UVISION\SMART_WAKE_UP/sh1106.c:276
 8002340:	b5b0      	push	{r4, r5, r7, lr}
 8002342:	b09a      	sub	sp, #104	; 0x68
 8002344:	f8dd c078 	ldr.w	ip, [sp, #120]	; 0x78
 8002348:	f88d 0067 	strb.w	r0, [sp, #103]	; 0x67
 800234c:	f8ad 1064 	strh.w	r1, [sp, #100]	; 0x64
 8002350:	f8ad 2062 	strh.w	r2, [sp, #98]	; 0x62
 8002354:	9317      	str	r3, [sp, #92]	; 0x5c
D:\#Documents\UVISION\SMART_WAKE_UP/sh1106.c:277
 8002356:	9817      	ldr	r0, [sp, #92]	; 0x5c
 8002358:	7800      	ldrb	r0, [r0, #0]
 800235a:	f88d 005b 	strb.w	r0, [sp, #91]	; 0x5b
D:\#Documents\UVISION\SMART_WAKE_UP/sh1106.c:278
 800235e:	9817      	ldr	r0, [sp, #92]	; 0x5c
 8002360:	7840      	ldrb	r0, [r0, #1]
 8002362:	f88d 005a 	strb.w	r0, [sp, #90]	; 0x5a
D:\#Documents\UVISION\SMART_WAKE_UP/sh1106.c:279
 8002366:	9817      	ldr	r0, [sp, #92]	; 0x5c
 8002368:	7880      	ldrb	r0, [r0, #2]
 800236a:	f88d 0059 	strb.w	r0, [sp, #89]	; 0x59
D:\#Documents\UVISION\SMART_WAKE_UP/sh1106.c:280
 800236e:	9817      	ldr	r0, [sp, #92]	; 0x5c
 8002370:	78c0      	ldrb	r0, [r0, #3]
 8002372:	f88d 0058 	strb.w	r0, [sp, #88]	; 0x58
 8002376:	a81f      	add	r0, sp, #124	; 0x7c
D:\#Documents\UVISION\SMART_WAKE_UP/sh1106.c:283
 8002378:	9015      	str	r0, [sp, #84]	; 0x54
D:\#Documents\UVISION\SMART_WAKE_UP/sh1106.c:285
 800237a:	991e      	ldr	r1, [sp, #120]	; 0x78
 800237c:	9a15      	ldr	r2, [sp, #84]	; 0x54
 800237e:	f10d 0022 	add.w	r0, sp, #34	; 0x22
 8002382:	9004      	str	r0, [sp, #16]
 8002384:	f7fe f822 	bl	80003cc <vsprintf>
D:\#Documents\UVISION\SMART_WAKE_UP/sh1106.c:288
 8002388:	9804      	ldr	r0, [sp, #16]
 800238a:	9007      	str	r0, [sp, #28]
D:\#Documents\UVISION\SMART_WAKE_UP/sh1106.c:290
 800238c:	e7ff      	b.n	800238e <SH1106_FontPrint+0x4e>
 800238e:	9807      	ldr	r0, [sp, #28]
 8002390:	7801      	ldrb	r1, [r0, #0]
 8002392:	2000      	movs	r0, #0
 8002394:	9003      	str	r0, [sp, #12]
 8002396:	b179      	cbz	r1, 80023b8 <SH1106_FontPrint+0x78>
 8002398:	e7ff      	b.n	800239a <SH1106_FontPrint+0x5a>
 800239a:	f9bd 1064 	ldrsh.w	r1, [sp, #100]	; 0x64
 800239e:	2000      	movs	r0, #0
 80023a0:	297f      	cmp	r1, #127	; 0x7f
 80023a2:	9003      	str	r0, [sp, #12]
 80023a4:	dc08      	bgt.n	80023b8 <SH1106_FontPrint+0x78>
 80023a6:	e7ff      	b.n	80023a8 <SH1106_FontPrint+0x68>
 80023a8:	f9bd 1062 	ldrsh.w	r1, [sp, #98]	; 0x62
 80023ac:	2000      	movs	r0, #0
 80023ae:	2940      	cmp	r1, #64	; 0x40
 80023b0:	bfb8      	it	lt
 80023b2:	2001      	movlt	r0, #1
 80023b4:	9003      	str	r0, [sp, #12]
 80023b6:	e7ff      	b.n	80023b8 <SH1106_FontPrint+0x78>
 80023b8:	9803      	ldr	r0, [sp, #12]
 80023ba:	07c0      	lsls	r0, r0, #31
 80023bc:	2800      	cmp	r0, #0
 80023be:	d04e      	beq.n	800245e <SH1106_FontPrint+0x11e>
 80023c0:	e7ff      	b.n	80023c2 <SH1106_FontPrint+0x82>
D:\#Documents\UVISION\SMART_WAKE_UP/sh1106.c:292
 80023c2:	9807      	ldr	r0, [sp, #28]
 80023c4:	7800      	ldrb	r0, [r0, #0]
 80023c6:	f88d 001b 	strb.w	r0, [sp, #27]
D:\#Documents\UVISION\SMART_WAKE_UP/sh1106.c:293
 80023ca:	f89d 001b 	ldrb.w	r0, [sp, #27]
 80023ce:	281f      	cmp	r0, #31
 80023d0:	db05      	blt.n	80023de <SH1106_FontPrint+0x9e>
 80023d2:	e7ff      	b.n	80023d4 <SH1106_FontPrint+0x94>
 80023d4:	f89d 001b 	ldrb.w	r0, [sp, #27]
 80023d8:	2880      	cmp	r0, #128	; 0x80
 80023da:	db01      	blt.n	80023e0 <SH1106_FontPrint+0xa0>
 80023dc:	e7ff      	b.n	80023de <SH1106_FontPrint+0x9e>
 80023de:	e03e      	b.n	800245e <SH1106_FontPrint+0x11e>
D:\#Documents\UVISION\SMART_WAKE_UP/sh1106.c:295
 80023e0:	f89d 001b 	ldrb.w	r0, [sp, #27]
 80023e4:	3820      	subs	r0, #32
 80023e6:	f88d 001a 	strb.w	r0, [sp, #26]
D:\#Documents\UVISION\SMART_WAKE_UP/sh1106.c:297
 80023ea:	f89d 001a 	ldrb.w	r0, [sp, #26]
 80023ee:	f89d 105b 	ldrb.w	r1, [sp, #91]	; 0x5b
 80023f2:	2204      	movs	r2, #4
 80023f4:	fb10 2001 	smlabb	r0, r0, r1, r2
 80023f8:	f8ad 0018 	strh.w	r0, [sp, #24]
D:\#Documents\UVISION\SMART_WAKE_UP/sh1106.c:298
 80023fc:	9817      	ldr	r0, [sp, #92]	; 0x5c
 80023fe:	f8bd 1018 	ldrh.w	r1, [sp, #24]
 8002402:	5c40      	ldrb	r0, [r0, r1]
 8002404:	f88d 0017 	strb.w	r0, [sp, #23]
D:\#Documents\UVISION\SMART_WAKE_UP/sh1106.c:300
 8002408:	f89d 0067 	ldrb.w	r0, [sp, #103]	; 0x67
 800240c:	f9bd 1064 	ldrsh.w	r1, [sp, #100]	; 0x64
 8002410:	f9bd 2062 	ldrsh.w	r2, [sp, #98]	; 0x62
 8002414:	9b17      	ldr	r3, [sp, #92]	; 0x5c
 8002416:	f89d c05b 	ldrb.w	ip, [sp, #91]	; 0x5b
 800241a:	f89d 401a 	ldrb.w	r4, [sp, #26]
 800241e:	f89d 5058 	ldrb.w	r5, [sp, #88]	; 0x58
 8002422:	46ee      	mov	lr, sp
 8002424:	f8ce 5008 	str.w	r5, [lr, #8]
 8002428:	f8ce 4004 	str.w	r4, [lr, #4]
 800242c:	f8ce c000 	str.w	ip, [lr]
 8002430:	f7ff fe66 	bl	8002100 <SH1106_DrawCharacter>
D:\#Documents\UVISION\SMART_WAKE_UP/sh1106.c:302
 8002434:	f89d 0017 	ldrb.w	r0, [sp, #23]
 8002438:	f89d 105a 	ldrb.w	r1, [sp, #90]	; 0x5a
 800243c:	f64c 42cd 	movw	r2, #52429	; 0xcccd
 8002440:	f6cc 42cc 	movt	r2, #52428	; 0xcccc
 8002444:	fba1 2102 	umull	r2, r1, r1, r2
 8002448:	eb00 01d1 	add.w	r1, r0, r1, lsr #3
 800244c:	f8bd 0064 	ldrh.w	r0, [sp, #100]	; 0x64
 8002450:	4408      	add	r0, r1
 8002452:	f8ad 0064 	strh.w	r0, [sp, #100]	; 0x64
D:\#Documents\UVISION\SMART_WAKE_UP/sh1106.c:303
 8002456:	9807      	ldr	r0, [sp, #28]
 8002458:	3001      	adds	r0, #1
 800245a:	9007      	str	r0, [sp, #28]
D:\#Documents\UVISION\SMART_WAKE_UP/sh1106.c:290
 800245c:	e797      	b.n	800238e <SH1106_FontPrint+0x4e>
D:\#Documents\UVISION\SMART_WAKE_UP/sh1106.c:305
 800245e:	b01a      	add	sp, #104	; 0x68
 8002460:	bdb0      	pop	{r4, r5, r7, pc}
 8002462:	0000      	movs	r0, r0
 8002464:	0000      	movs	r0, r0
	...

08002468 <SH1106_Init>:
SH1106_Init():
D:\#Documents\UVISION\SMART_WAKE_UP/sh1106.c:490
 8002468:	b580      	push	{r7, lr}
 800246a:	b082      	sub	sp, #8
D:\#Documents\UVISION\SMART_WAKE_UP/sh1106.c:491
 800246c:	f000 f934 	bl	80026d8 <SH1106_SpiInit>
 8002470:	20c8      	movs	r0, #200	; 0xc8
D:\#Documents\UVISION\SMART_WAKE_UP/sh1106.c:492
 8002472:	9000      	str	r0, [sp, #0]
 8002474:	f000 fa50 	bl	8002918 <TIM_Wait>
D:\#Documents\UVISION\SMART_WAKE_UP/sh1106.c:493
 8002478:	f000 f83e 	bl	80024f8 <SH1106_Reset>
 800247c:	20ae      	movs	r0, #174	; 0xae
D:\#Documents\UVISION\SMART_WAKE_UP/sh1106.c:494
 800247e:	f000 f88b 	bl	8002598 <SH1106_SendCmd>
 8002482:	20d5      	movs	r0, #213	; 0xd5
 8002484:	2180      	movs	r1, #128	; 0x80
D:\#Documents\UVISION\SMART_WAKE_UP/sh1106.c:495
 8002486:	f000 f8bf 	bl	8002608 <SH1106_SendDoubleCmd>
 800248a:	20a8      	movs	r0, #168	; 0xa8
 800248c:	213f      	movs	r1, #63	; 0x3f
D:\#Documents\UVISION\SMART_WAKE_UP/sh1106.c:496
 800248e:	f000 f8bb 	bl	8002608 <SH1106_SendDoubleCmd>
 8002492:	20d3      	movs	r0, #211	; 0xd3
 8002494:	2100      	movs	r1, #0
D:\#Documents\UVISION\SMART_WAKE_UP/sh1106.c:497
 8002496:	f000 f8b7 	bl	8002608 <SH1106_SendDoubleCmd>
 800249a:	2040      	movs	r0, #64	; 0x40
D:\#Documents\UVISION\SMART_WAKE_UP/sh1106.c:498
 800249c:	9001      	str	r0, [sp, #4]
 800249e:	f000 f87b 	bl	8002598 <SH1106_SendCmd>
 80024a2:	20ad      	movs	r0, #173	; 0xad
 80024a4:	218b      	movs	r1, #139	; 0x8b
D:\#Documents\UVISION\SMART_WAKE_UP/sh1106.c:499
 80024a6:	f000 f8af 	bl	8002608 <SH1106_SendDoubleCmd>
 80024aa:	20a1      	movs	r0, #161	; 0xa1
D:\#Documents\UVISION\SMART_WAKE_UP/sh1106.c:500
 80024ac:	f000 f874 	bl	8002598 <SH1106_SendCmd>
 80024b0:	9800      	ldr	r0, [sp, #0]
D:\#Documents\UVISION\SMART_WAKE_UP/sh1106.c:501
 80024b2:	f000 f871 	bl	8002598 <SH1106_SendCmd>
 80024b6:	20da      	movs	r0, #218	; 0xda
 80024b8:	2112      	movs	r1, #18
D:\#Documents\UVISION\SMART_WAKE_UP/sh1106.c:502
 80024ba:	f000 f8a5 	bl	8002608 <SH1106_SendDoubleCmd>
 80024be:	2081      	movs	r0, #129	; 0x81
 80024c0:	21ff      	movs	r1, #255	; 0xff
D:\#Documents\UVISION\SMART_WAKE_UP/sh1106.c:503
 80024c2:	f000 f8a1 	bl	8002608 <SH1106_SendDoubleCmd>
 80024c6:	20d9      	movs	r0, #217	; 0xd9
 80024c8:	211f      	movs	r1, #31
D:\#Documents\UVISION\SMART_WAKE_UP/sh1106.c:504
 80024ca:	f000 f89d 	bl	8002608 <SH1106_SendDoubleCmd>
 80024ce:	9801      	ldr	r0, [sp, #4]
 80024d0:	2133      	movs	r1, #51	; 0x33
D:\#Documents\UVISION\SMART_WAKE_UP/sh1106.c:505
 80024d2:	f000 f899 	bl	8002608 <SH1106_SendDoubleCmd>
 80024d6:	20a6      	movs	r0, #166	; 0xa6
D:\#Documents\UVISION\SMART_WAKE_UP/sh1106.c:506
 80024d8:	f000 f85e 	bl	8002598 <SH1106_SendCmd>
 80024dc:	20a4      	movs	r0, #164	; 0xa4
D:\#Documents\UVISION\SMART_WAKE_UP/sh1106.c:507
 80024de:	f000 f85b 	bl	8002598 <SH1106_SendCmd>
 80024e2:	200a      	movs	r0, #10
D:\#Documents\UVISION\SMART_WAKE_UP/sh1106.c:508
 80024e4:	f000 fa18 	bl	8002918 <TIM_Wait>
 80024e8:	20af      	movs	r0, #175	; 0xaf
D:\#Documents\UVISION\SMART_WAKE_UP/sh1106.c:509
 80024ea:	f000 f855 	bl	8002598 <SH1106_SendCmd>
D:\#Documents\UVISION\SMART_WAKE_UP/sh1106.c:510
 80024ee:	b002      	add	sp, #8
 80024f0:	bd80      	pop	{r7, pc}
 80024f2:	0000      	movs	r0, r0
 80024f4:	0000      	movs	r0, r0
	...

080024f8 <SH1106_Reset>:
SH1106_Reset():
D:\#Documents\UVISION\SMART_WAKE_UP/sh1106.c:209
 80024f8:	b580      	push	{r7, lr}
 80024fa:	b084      	sub	sp, #16
 80024fc:	f640 0118 	movw	r1, #2072	; 0x818
 8002500:	f2c4 0102 	movt	r1, #16386	; 0x4002
 8002504:	9102      	str	r1, [sp, #8]
 8002506:	2002      	movs	r0, #2
D:\#Documents\UVISION\SMART_WAKE_UP/sh1106.c:210
 8002508:	9003      	str	r0, [sp, #12]
 800250a:	6008      	str	r0, [r1, #0]
 800250c:	2064      	movs	r0, #100	; 0x64
D:\#Documents\UVISION\SMART_WAKE_UP/sh1106.c:211
 800250e:	9001      	str	r0, [sp, #4]
 8002510:	f000 fa02 	bl	8002918 <TIM_Wait>
 8002514:	9801      	ldr	r0, [sp, #4]
 8002516:	9a02      	ldr	r2, [sp, #8]
 8002518:	f44f 3100 	mov.w	r1, #131072	; 0x20000
D:\#Documents\UVISION\SMART_WAKE_UP/sh1106.c:212
 800251c:	6011      	str	r1, [r2, #0]
D:\#Documents\UVISION\SMART_WAKE_UP/sh1106.c:213
 800251e:	f000 f9fb 	bl	8002918 <TIM_Wait>
 8002522:	9902      	ldr	r1, [sp, #8]
 8002524:	9803      	ldr	r0, [sp, #12]
D:\#Documents\UVISION\SMART_WAKE_UP/sh1106.c:214
 8002526:	6008      	str	r0, [r1, #0]
D:\#Documents\UVISION\SMART_WAKE_UP/sh1106.c:215
 8002528:	b004      	add	sp, #16
 800252a:	bd80      	pop	{r7, pc}
 800252c:	0000      	movs	r0, r0
	...

08002530 <SH1106_SendBuffer>:
SH1106_SendBuffer():
D:\#Documents\UVISION\SMART_WAKE_UP/sh1106.c:188
 8002530:	b580      	push	{r7, lr}
 8002532:	b082      	sub	sp, #8
 8002534:	2000      	movs	r0, #0
D:\#Documents\UVISION\SMART_WAKE_UP/sh1106.c:189
 8002536:	9001      	str	r0, [sp, #4]
 8002538:	e7ff      	b.n	800253a <SH1106_SendBuffer+0xa>
 800253a:	9801      	ldr	r0, [sp, #4]
 800253c:	2807      	cmp	r0, #7
 800253e:	dc27      	bgt.n	8002590 <SH1106_SendBuffer+0x60>
 8002540:	e7ff      	b.n	8002542 <SH1106_SendBuffer+0x12>
D:\#Documents\UVISION\SMART_WAKE_UP/sh1106.c:191
 8002542:	9801      	ldr	r0, [sp, #4]
 8002544:	30b0      	adds	r0, #176	; 0xb0
 8002546:	b2c0      	uxtb	r0, r0
 8002548:	f000 f826 	bl	8002598 <SH1106_SendCmd>
 800254c:	2002      	movs	r0, #2
D:\#Documents\UVISION\SMART_WAKE_UP/sh1106.c:192
 800254e:	f000 f823 	bl	8002598 <SH1106_SendCmd>
 8002552:	2010      	movs	r0, #16
D:\#Documents\UVISION\SMART_WAKE_UP/sh1106.c:193
 8002554:	f000 f820 	bl	8002598 <SH1106_SendCmd>
 8002558:	2000      	movs	r0, #0
D:\#Documents\UVISION\SMART_WAKE_UP/sh1106.c:194
 800255a:	9000      	str	r0, [sp, #0]
 800255c:	e7ff      	b.n	800255e <SH1106_SendBuffer+0x2e>
 800255e:	9800      	ldr	r0, [sp, #0]
 8002560:	287f      	cmp	r0, #127	; 0x7f
 8002562:	dc10      	bgt.n	8002586 <SH1106_SendBuffer+0x56>
 8002564:	e7ff      	b.n	8002566 <SH1106_SendBuffer+0x36>
D:\#Documents\UVISION\SMART_WAKE_UP/sh1106.c:196
 8002566:	9901      	ldr	r1, [sp, #4]
 8002568:	9800      	ldr	r0, [sp, #0]
 800256a:	eb00 11c1 	add.w	r1, r0, r1, lsl #7
 800256e:	f243 408b 	movw	r0, #13451	; 0x348b
 8002572:	f2c2 0002 	movt	r0, #8194	; 0x2002
 8002576:	5c40      	ldrb	r0, [r0, r1]
 8002578:	f000 f82a 	bl	80025d0 <SH1106_SendData>
D:\#Documents\UVISION\SMART_WAKE_UP/sh1106.c:197
 800257c:	e7ff      	b.n	800257e <SH1106_SendBuffer+0x4e>
D:\#Documents\UVISION\SMART_WAKE_UP/sh1106.c:194
 800257e:	9800      	ldr	r0, [sp, #0]
 8002580:	3001      	adds	r0, #1
 8002582:	9000      	str	r0, [sp, #0]
 8002584:	e7eb      	b.n	800255e <SH1106_SendBuffer+0x2e>
D:\#Documents\UVISION\SMART_WAKE_UP/sh1106.c:198
 8002586:	e7ff      	b.n	8002588 <SH1106_SendBuffer+0x58>
D:\#Documents\UVISION\SMART_WAKE_UP/sh1106.c:189
 8002588:	9801      	ldr	r0, [sp, #4]
 800258a:	3001      	adds	r0, #1
 800258c:	9001      	str	r0, [sp, #4]
 800258e:	e7d4      	b.n	800253a <SH1106_SendBuffer+0xa>
D:\#Documents\UVISION\SMART_WAKE_UP/sh1106.c:199
 8002590:	b002      	add	sp, #8
 8002592:	bd80      	pop	{r7, pc}
 8002594:	0000      	movs	r0, r0
	...

08002598 <SH1106_SendCmd>:
SH1106_SendCmd():
D:\#Documents\UVISION\SMART_WAKE_UP/sh1106.c:145
 8002598:	b580      	push	{r7, lr}
 800259a:	b082      	sub	sp, #8
 800259c:	f88d 0007 	strb.w	r0, [sp, #7]
 80025a0:	2118      	movs	r1, #24
 80025a2:	f2c4 0102 	movt	r1, #16386	; 0x4002
 80025a6:	f44f 3080 	mov.w	r0, #65536	; 0x10000
D:\#Documents\UVISION\SMART_WAKE_UP/sh1106.c:146
 80025aa:	6008      	str	r0, [r1, #0]
 80025ac:	f640 0118 	movw	r1, #2072	; 0x818
 80025b0:	f2c4 0102 	movt	r1, #16386	; 0x4002
D:\#Documents\UVISION\SMART_WAKE_UP/sh1106.c:147
 80025b4:	9100      	str	r1, [sp, #0]
 80025b6:	6008      	str	r0, [r1, #0]
D:\#Documents\UVISION\SMART_WAKE_UP/sh1106.c:148
 80025b8:	f89d 0007 	ldrb.w	r0, [sp, #7]
 80025bc:	f000 f900 	bl	80027c0 <SH1106_Spi_Transmit>
 80025c0:	9900      	ldr	r1, [sp, #0]
 80025c2:	2001      	movs	r0, #1
D:\#Documents\UVISION\SMART_WAKE_UP/sh1106.c:149
 80025c4:	6008      	str	r0, [r1, #0]
D:\#Documents\UVISION\SMART_WAKE_UP/sh1106.c:150
 80025c6:	b002      	add	sp, #8
 80025c8:	bd80      	pop	{r7, pc}
 80025ca:	0000      	movs	r0, r0
 80025cc:	0000      	movs	r0, r0
	...

080025d0 <SH1106_SendData>:
SH1106_SendData():
D:\#Documents\UVISION\SMART_WAKE_UP/sh1106.c:173
 80025d0:	b580      	push	{r7, lr}
 80025d2:	b084      	sub	sp, #16
 80025d4:	f88d 000f 	strb.w	r0, [sp, #15]
 80025d8:	2118      	movs	r1, #24
 80025da:	f2c4 0102 	movt	r1, #16386	; 0x4002
 80025de:	2001      	movs	r0, #1
D:\#Documents\UVISION\SMART_WAKE_UP/sh1106.c:174
 80025e0:	9002      	str	r0, [sp, #8]
 80025e2:	6008      	str	r0, [r1, #0]
 80025e4:	f640 0118 	movw	r1, #2072	; 0x818
 80025e8:	f2c4 0102 	movt	r1, #16386	; 0x4002
 80025ec:	9101      	str	r1, [sp, #4]
 80025ee:	f44f 3080 	mov.w	r0, #65536	; 0x10000
D:\#Documents\UVISION\SMART_WAKE_UP/sh1106.c:175
 80025f2:	6008      	str	r0, [r1, #0]
D:\#Documents\UVISION\SMART_WAKE_UP/sh1106.c:176
 80025f4:	f89d 000f 	ldrb.w	r0, [sp, #15]
 80025f8:	f000 f8e2 	bl	80027c0 <SH1106_Spi_Transmit>
 80025fc:	9901      	ldr	r1, [sp, #4]
 80025fe:	9802      	ldr	r0, [sp, #8]
D:\#Documents\UVISION\SMART_WAKE_UP/sh1106.c:177
 8002600:	6008      	str	r0, [r1, #0]
D:\#Documents\UVISION\SMART_WAKE_UP/sh1106.c:178
 8002602:	b004      	add	sp, #16
 8002604:	bd80      	pop	{r7, pc}
	...

08002608 <SH1106_SendDoubleCmd>:
SH1106_SendDoubleCmd():
D:\#Documents\UVISION\SMART_WAKE_UP/sh1106.c:160
 8002608:	b580      	push	{r7, lr}
 800260a:	b082      	sub	sp, #8
 800260c:	f88d 0007 	strb.w	r0, [sp, #7]
 8002610:	f88d 1006 	strb.w	r1, [sp, #6]
D:\#Documents\UVISION\SMART_WAKE_UP/sh1106.c:161
 8002614:	f89d 0007 	ldrb.w	r0, [sp, #7]
 8002618:	f7ff ffbe 	bl	8002598 <SH1106_SendCmd>
D:\#Documents\UVISION\SMART_WAKE_UP/sh1106.c:162
 800261c:	f89d 0006 	ldrb.w	r0, [sp, #6]
 8002620:	f7ff ffba 	bl	8002598 <SH1106_SendCmd>
D:\#Documents\UVISION\SMART_WAKE_UP/sh1106.c:163
 8002624:	b002      	add	sp, #8
 8002626:	bd80      	pop	{r7, pc}

08002628 <SH1106_SetPixel>:
SH1106_SetPixel():
D:\#Documents\UVISION\SMART_WAKE_UP/sh1106.c:225
 8002628:	b083      	sub	sp, #12
 800262a:	f88d 000b 	strb.w	r0, [sp, #11]
 800262e:	f8ad 1008 	strh.w	r1, [sp, #8]
 8002632:	f8ad 2006 	strh.w	r2, [sp, #6]
D:\#Documents\UVISION\SMART_WAKE_UP/sh1106.c:226
 8002636:	f9bd 0008 	ldrsh.w	r0, [sp, #8]
 800263a:	287f      	cmp	r0, #127	; 0x7f
 800263c:	dc10      	bgt.n	8002660 <SH1106_SetPixel+0x38>
 800263e:	e7ff      	b.n	8002640 <SH1106_SetPixel+0x18>
 8002640:	f9bd 0006 	ldrsh.w	r0, [sp, #6]
 8002644:	283f      	cmp	r0, #63	; 0x3f
 8002646:	dc0b      	bgt.n	8002660 <SH1106_SetPixel+0x38>
 8002648:	e7ff      	b.n	800264a <SH1106_SetPixel+0x22>
 800264a:	f9bd 0008 	ldrsh.w	r0, [sp, #8]
 800264e:	2800      	cmp	r0, #0
 8002650:	d406      	bmi.n	8002660 <SH1106_SetPixel+0x38>
 8002652:	e7ff      	b.n	8002654 <SH1106_SetPixel+0x2c>
 8002654:	f9bd 0006 	ldrsh.w	r0, [sp, #6]
 8002658:	f1b0 3fff 	cmp.w	r0, #4294967295	; 0xffffffff
 800265c:	dc01      	bgt.n	8002662 <SH1106_SetPixel+0x3a>
 800265e:	e7ff      	b.n	8002660 <SH1106_SetPixel+0x38>
 8002660:	e037      	b.n	80026d2 <SH1106_SetPixel+0xaa>
D:\#Documents\UVISION\SMART_WAKE_UP/sh1106.c:228
 8002662:	f9bd 0006 	ldrsh.w	r0, [sp, #6]
 8002666:	eb00 7150 	add.w	r1, r0, r0, lsr #29
 800266a:	f06f 0070 	mvn.w	r0, #112	; 0x70
 800266e:	ea00 1001 	and.w	r0, r0, r1, lsl #4
 8002672:	f8bd 1008 	ldrh.w	r1, [sp, #8]
 8002676:	4408      	add	r0, r1
 8002678:	f8ad 0004 	strh.w	r0, [sp, #4]
D:\#Documents\UVISION\SMART_WAKE_UP/sh1106.c:229
 800267c:	f9bd 0006 	ldrsh.w	r0, [sp, #6]
 8002680:	eb00 7150 	add.w	r1, r0, r0, lsr #29
 8002684:	f001 01f8 	and.w	r1, r1, #248	; 0xf8
 8002688:	1a40      	subs	r0, r0, r1
 800268a:	f88d 0003 	strb.w	r0, [sp, #3]
D:\#Documents\UVISION\SMART_WAKE_UP/sh1106.c:231
 800268e:	f89d 000b 	ldrb.w	r0, [sp, #11]
 8002692:	b178      	cbz	r0, 80026b4 <SH1106_SetPixel+0x8c>
 8002694:	e7ff      	b.n	8002696 <SH1106_SetPixel+0x6e>
 8002696:	f89d 1003 	ldrb.w	r1, [sp, #3]
 800269a:	2001      	movs	r0, #1
 800269c:	fa00 f301 	lsl.w	r3, r0, r1
 80026a0:	f8bd 2004 	ldrh.w	r2, [sp, #4]
 80026a4:	f243 418b 	movw	r1, #13451	; 0x348b
 80026a8:	f2c2 0102 	movt	r1, #8194	; 0x2002
 80026ac:	5c88      	ldrb	r0, [r1, r2]
 80026ae:	4318      	orrs	r0, r3
 80026b0:	5488      	strb	r0, [r1, r2]
 80026b2:	e00e      	b.n	80026d2 <SH1106_SetPixel+0xaa>
D:\#Documents\UVISION\SMART_WAKE_UP/sh1106.c:232
 80026b4:	f89d 1003 	ldrb.w	r1, [sp, #3]
 80026b8:	2001      	movs	r0, #1
 80026ba:	fa00 f301 	lsl.w	r3, r0, r1
 80026be:	f8bd 2004 	ldrh.w	r2, [sp, #4]
 80026c2:	f243 418b 	movw	r1, #13451	; 0x348b
 80026c6:	f2c2 0102 	movt	r1, #8194	; 0x2002
 80026ca:	5c88      	ldrb	r0, [r1, r2]
 80026cc:	4398      	bics	r0, r3
 80026ce:	5488      	strb	r0, [r1, r2]
 80026d0:	e7ff      	b.n	80026d2 <SH1106_SetPixel+0xaa>
D:\#Documents\UVISION\SMART_WAKE_UP/sh1106.c:233
 80026d2:	b003      	add	sp, #12
 80026d4:	4770      	bx	lr
	...

080026d8 <SH1106_SpiInit>:
SH1106_SpiInit():
D:\#Documents\UVISION\SMART_WAKE_UP/sh1106.c:58
 80026d8:	f643 0130 	movw	r1, #14384	; 0x3830
 80026dc:	f2c4 0102 	movt	r1, #16386	; 0x4002
D:\#Documents\UVISION\SMART_WAKE_UP/sh1106.c:59
 80026e0:	6808      	ldr	r0, [r1, #0]
 80026e2:	f040 0001 	orr.w	r0, r0, #1
 80026e6:	6008      	str	r0, [r1, #0]
D:\#Documents\UVISION\SMART_WAKE_UP/sh1106.c:60
 80026e8:	6808      	ldr	r0, [r1, #0]
 80026ea:	f040 0004 	orr.w	r0, r0, #4
 80026ee:	6008      	str	r0, [r1, #0]
 80026f0:	2100      	movs	r1, #0
 80026f2:	f2c4 0102 	movt	r1, #16386	; 0x4002
D:\#Documents\UVISION\SMART_WAKE_UP/sh1106.c:63
 80026f6:	6808      	ldr	r0, [r1, #0]
 80026f8:	f040 0001 	orr.w	r0, r0, #1
 80026fc:	6008      	str	r0, [r1, #0]
D:\#Documents\UVISION\SMART_WAKE_UP/sh1106.c:64
 80026fe:	6808      	ldr	r0, [r1, #0]
 8002700:	f020 0002 	bic.w	r0, r0, #2
 8002704:	6008      	str	r0, [r1, #0]
 8002706:	f640 0200 	movw	r2, #2048	; 0x800
 800270a:	f2c4 0202 	movt	r2, #16386	; 0x4002
D:\#Documents\UVISION\SMART_WAKE_UP/sh1106.c:67
 800270e:	6810      	ldr	r0, [r2, #0]
 8002710:	f040 0001 	orr.w	r0, r0, #1
 8002714:	6010      	str	r0, [r2, #0]
D:\#Documents\UVISION\SMART_WAKE_UP/sh1106.c:68
 8002716:	6810      	ldr	r0, [r2, #0]
 8002718:	f020 0002 	bic.w	r0, r0, #2
 800271c:	6010      	str	r0, [r2, #0]
D:\#Documents\UVISION\SMART_WAKE_UP/sh1106.c:71
 800271e:	6810      	ldr	r0, [r2, #0]
 8002720:	f040 0004 	orr.w	r0, r0, #4
 8002724:	6010      	str	r0, [r2, #0]
D:\#Documents\UVISION\SMART_WAKE_UP/sh1106.c:72
 8002726:	6810      	ldr	r0, [r2, #0]
 8002728:	f020 0008 	bic.w	r0, r0, #8
 800272c:	6010      	str	r0, [r2, #0]
D:\#Documents\UVISION\SMART_WAKE_UP/sh1106.c:75
 800272e:	6808      	ldr	r0, [r1, #0]
 8002730:	f440 6000 	orr.w	r0, r0, #2048	; 0x800
 8002734:	6008      	str	r0, [r1, #0]
D:\#Documents\UVISION\SMART_WAKE_UP/sh1106.c:76
 8002736:	6808      	ldr	r0, [r1, #0]
 8002738:	f420 6080 	bic.w	r0, r0, #1024	; 0x400
 800273c:	6008      	str	r0, [r1, #0]
D:\#Documents\UVISION\SMART_WAKE_UP/sh1106.c:79
 800273e:	6808      	ldr	r0, [r1, #0]
 8002740:	f440 4000 	orr.w	r0, r0, #32768	; 0x8000
 8002744:	6008      	str	r0, [r1, #0]
D:\#Documents\UVISION\SMART_WAKE_UP/sh1106.c:80
 8002746:	6808      	ldr	r0, [r1, #0]
 8002748:	f420 4080 	bic.w	r0, r0, #16384	; 0x4000
 800274c:	6008      	str	r0, [r1, #0]
 800274e:	2120      	movs	r1, #32
 8002750:	f2c4 0102 	movt	r1, #16386	; 0x4002
D:\#Documents\UVISION\SMART_WAKE_UP/sh1106.c:82
 8002754:	6808      	ldr	r0, [r1, #0]
 8002756:	f440 00a0 	orr.w	r0, r0, #5242880	; 0x500000
 800275a:	6008      	str	r0, [r1, #0]
D:\#Documents\UVISION\SMART_WAKE_UP/sh1106.c:83
 800275c:	6808      	ldr	r0, [r1, #0]
 800275e:	f040 40a0 	orr.w	r0, r0, #1342177280	; 0x50000000
 8002762:	6008      	str	r0, [r1, #0]
 8002764:	f643 0144 	movw	r1, #14404	; 0x3844
 8002768:	f2c4 0102 	movt	r1, #16386	; 0x4002
D:\#Documents\UVISION\SMART_WAKE_UP/sh1106.c:86
 800276c:	6808      	ldr	r0, [r1, #0]
 800276e:	f440 5080 	orr.w	r0, r0, #4096	; 0x1000
 8002772:	6008      	str	r0, [r1, #0]
 8002774:	f243 0100 	movw	r1, #12288	; 0x3000
 8002778:	f2c4 0101 	movt	r1, #16385	; 0x4001
D:\#Documents\UVISION\SMART_WAKE_UP/sh1106.c:89
 800277c:	6808      	ldr	r0, [r1, #0]
 800277e:	f020 0080 	bic.w	r0, r0, #128	; 0x80
 8002782:	6008      	str	r0, [r1, #0]
D:\#Documents\UVISION\SMART_WAKE_UP/sh1106.c:92
 8002784:	6808      	ldr	r0, [r1, #0]
 8002786:	f040 0004 	orr.w	r0, r0, #4
 800278a:	6008      	str	r0, [r1, #0]
D:\#Documents\UVISION\SMART_WAKE_UP/sh1106.c:96
 800278c:	6808      	ldr	r0, [r1, #0]
 800278e:	f440 7000 	orr.w	r0, r0, #512	; 0x200
 8002792:	6008      	str	r0, [r1, #0]
D:\#Documents\UVISION\SMART_WAKE_UP/sh1106.c:97
 8002794:	6808      	ldr	r0, [r1, #0]
 8002796:	f440 7080 	orr.w	r0, r0, #256	; 0x100
 800279a:	6008      	str	r0, [r1, #0]
D:\#Documents\UVISION\SMART_WAKE_UP/sh1106.c:100
 800279c:	6808      	ldr	r0, [r1, #0]
 800279e:	f020 0001 	bic.w	r0, r0, #1
 80027a2:	6008      	str	r0, [r1, #0]
D:\#Documents\UVISION\SMART_WAKE_UP/sh1106.c:101
 80027a4:	6808      	ldr	r0, [r1, #0]
 80027a6:	f020 0002 	bic.w	r0, r0, #2
 80027aa:	6008      	str	r0, [r1, #0]
D:\#Documents\UVISION\SMART_WAKE_UP/sh1106.c:104
 80027ac:	6808      	ldr	r0, [r1, #0]
 80027ae:	f040 0010 	orr.w	r0, r0, #16
 80027b2:	6008      	str	r0, [r1, #0]
D:\#Documents\UVISION\SMART_WAKE_UP/sh1106.c:107
 80027b4:	6808      	ldr	r0, [r1, #0]
 80027b6:	f040 0040 	orr.w	r0, r0, #64	; 0x40
 80027ba:	6008      	str	r0, [r1, #0]
D:\#Documents\UVISION\SMART_WAKE_UP/sh1106.c:108
 80027bc:	4770      	bx	lr
	...

080027c0 <SH1106_Spi_Transmit>:
SH1106_Spi_Transmit():
D:\#Documents\UVISION\SMART_WAKE_UP/sh1106.c:118
 80027c0:	b081      	sub	sp, #4
 80027c2:	f88d 0003 	strb.w	r0, [sp, #3]
D:\#Documents\UVISION\SMART_WAKE_UP/sh1106.c:120
 80027c6:	e7ff      	b.n	80027c8 <SH1106_Spi_Transmit+0x8>
 80027c8:	f243 0008 	movw	r0, #12296	; 0x3008
 80027cc:	f2c4 0001 	movt	r0, #16385	; 0x4001
 80027d0:	6800      	ldr	r0, [r0, #0]
 80027d2:	0780      	lsls	r0, r0, #30
 80027d4:	2800      	cmp	r0, #0
 80027d6:	d401      	bmi.n	80027dc <SH1106_Spi_Transmit+0x1c>
 80027d8:	e7ff      	b.n	80027da <SH1106_Spi_Transmit+0x1a>
 80027da:	e7f5      	b.n	80027c8 <SH1106_Spi_Transmit+0x8>
D:\#Documents\UVISION\SMART_WAKE_UP/sh1106.c:123
 80027dc:	f89d 0003 	ldrb.w	r0, [sp, #3]
 80027e0:	f243 010c 	movw	r1, #12300	; 0x300c
 80027e4:	f2c4 0101 	movt	r1, #16385	; 0x4001
 80027e8:	7008      	strb	r0, [r1, #0]
D:\#Documents\UVISION\SMART_WAKE_UP/sh1106.c:126
 80027ea:	e7ff      	b.n	80027ec <SH1106_Spi_Transmit+0x2c>
 80027ec:	f243 0008 	movw	r0, #12296	; 0x3008
 80027f0:	f2c4 0001 	movt	r0, #16385	; 0x4001
 80027f4:	6800      	ldr	r0, [r0, #0]
 80027f6:	0780      	lsls	r0, r0, #30
 80027f8:	2800      	cmp	r0, #0
 80027fa:	d401      	bmi.n	8002800 <SH1106_Spi_Transmit+0x40>
 80027fc:	e7ff      	b.n	80027fe <SH1106_Spi_Transmit+0x3e>
 80027fe:	e7f5      	b.n	80027ec <SH1106_Spi_Transmit+0x2c>
D:\#Documents\UVISION\SMART_WAKE_UP/sh1106.c:130
 8002800:	e7ff      	b.n	8002802 <SH1106_Spi_Transmit+0x42>
 8002802:	f243 0008 	movw	r0, #12296	; 0x3008
 8002806:	f2c4 0001 	movt	r0, #16385	; 0x4001
 800280a:	6800      	ldr	r0, [r0, #0]
 800280c:	0600      	lsls	r0, r0, #24
 800280e:	2800      	cmp	r0, #0
 8002810:	d501      	bpl.n	8002816 <SH1106_Spi_Transmit+0x56>
 8002812:	e7ff      	b.n	8002814 <SH1106_Spi_Transmit+0x54>
 8002814:	e7f5      	b.n	8002802 <SH1106_Spi_Transmit+0x42>
 8002816:	f243 000c 	movw	r0, #12300	; 0x300c
 800281a:	f2c4 0001 	movt	r0, #16385	; 0x4001
D:\#Documents\UVISION\SMART_WAKE_UP/sh1106.c:133
 800281e:	6800      	ldr	r0, [r0, #0]
 8002820:	f243 0008 	movw	r0, #12296	; 0x3008
 8002824:	f2c4 0001 	movt	r0, #16385	; 0x4001
D:\#Documents\UVISION\SMART_WAKE_UP/sh1106.c:134
 8002828:	6800      	ldr	r0, [r0, #0]
D:\#Documents\UVISION\SMART_WAKE_UP/sh1106.c:135
 800282a:	b001      	add	sp, #4
 800282c:	4770      	bx	lr
	...

08002830 <SystemInit>:
SystemInit():
D:\#Documents\UVISION\SMART_WAKE_UP/RTE/Device/STM32F767ZITx/system_stm32f7xx.c:152
 8002830:	f64e 5188 	movw	r1, #60808	; 0xed88
 8002834:	f2ce 0100 	movt	r1, #57344	; 0xe000
D:\#Documents\UVISION\SMART_WAKE_UP/RTE/Device/STM32F767ZITx/system_stm32f7xx.c:155
 8002838:	6808      	ldr	r0, [r1, #0]
 800283a:	f440 0070 	orr.w	r0, r0, #15728640	; 0xf00000
 800283e:	6008      	str	r0, [r1, #0]
D:\#Documents\UVISION\SMART_WAKE_UP/RTE/Device/STM32F767ZITx/system_stm32f7xx.c:162
 8002840:	4770      	bx	lr
 8002842:	0000      	movs	r0, r0
 8002844:	0000      	movs	r0, r0
	...

08002848 <TIM2_IRQHandler>:
TIM2_IRQHandler():
D:\#Documents\UVISION\SMART_WAKE_UP/buttons.c:147
 8002848:	2010      	movs	r0, #16
 800284a:	f2c4 0000 	movt	r0, #16384	; 0x4000
D:\#Documents\UVISION\SMART_WAKE_UP/buttons.c:148
 800284e:	6800      	ldr	r0, [r0, #0]
 8002850:	07c0      	lsls	r0, r0, #31
 8002852:	2800      	cmp	r0, #0
 8002854:	d05c      	beq.n	8002910 <TIM2_IRQHandler+0xc8>
 8002856:	e7ff      	b.n	8002858 <TIM2_IRQHandler+0x10>
 8002858:	2110      	movs	r1, #16
 800285a:	f2c4 0100 	movt	r1, #16384	; 0x4000
D:\#Documents\UVISION\SMART_WAKE_UP/buttons.c:150
 800285e:	6808      	ldr	r0, [r1, #0]
 8002860:	f020 0001 	bic.w	r0, r0, #1
 8002864:	6008      	str	r0, [r1, #0]
 8002866:	f640 4010 	movw	r0, #3088	; 0xc10
 800286a:	f2c4 0002 	movt	r0, #16386	; 0x4002
D:\#Documents\UVISION\SMART_WAKE_UP/buttons.c:152
 800286e:	6800      	ldr	r0, [r0, #0]
 8002870:	0500      	lsls	r0, r0, #20
 8002872:	2800      	cmp	r0, #0
 8002874:	d515      	bpl.n	80028a2 <TIM2_IRQHandler+0x5a>
 8002876:	e7ff      	b.n	8002878 <TIM2_IRQHandler+0x30>
 8002878:	f241 0010 	movw	r0, #4112	; 0x1010
 800287c:	f2c4 0002 	movt	r0, #16386	; 0x4002
 8002880:	6800      	ldr	r0, [r0, #0]
 8002882:	0740      	lsls	r0, r0, #29
 8002884:	2800      	cmp	r0, #0
 8002886:	d40c      	bmi.n	80028a2 <TIM2_IRQHandler+0x5a>
 8002888:	e7ff      	b.n	800288a <TIM2_IRQHandler+0x42>
D:\#Documents\UVISION\SMART_WAKE_UP/buttons.c:155
 800288a:	f243 4184 	movw	r1, #13444	; 0x3484
 800288e:	f2c2 0102 	movt	r1, #8194	; 0x2002
 8002892:	2001      	movs	r0, #1
 8002894:	7008      	strb	r0, [r1, #0]
 8002896:	212c      	movs	r1, #44	; 0x2c
 8002898:	f2c4 0100 	movt	r1, #16384	; 0x4000
 800289c:	2063      	movs	r0, #99	; 0x63
D:\#Documents\UVISION\SMART_WAKE_UP/buttons.c:156
 800289e:	6008      	str	r0, [r1, #0]
D:\#Documents\UVISION\SMART_WAKE_UP/buttons.c:157
 80028a0:	e030      	b.n	8002904 <TIM2_IRQHandler+0xbc>
 80028a2:	f241 0010 	movw	r0, #4112	; 0x1010
 80028a6:	f2c4 0002 	movt	r0, #16386	; 0x4002
D:\#Documents\UVISION\SMART_WAKE_UP/buttons.c:158
 80028aa:	6800      	ldr	r0, [r0, #0]
 80028ac:	0740      	lsls	r0, r0, #29
 80028ae:	2800      	cmp	r0, #0
 80028b0:	d515      	bpl.n	80028de <TIM2_IRQHandler+0x96>
 80028b2:	e7ff      	b.n	80028b4 <TIM2_IRQHandler+0x6c>
 80028b4:	f640 4010 	movw	r0, #3088	; 0xc10
 80028b8:	f2c4 0002 	movt	r0, #16386	; 0x4002
 80028bc:	6800      	ldr	r0, [r0, #0]
 80028be:	0500      	lsls	r0, r0, #20
 80028c0:	2800      	cmp	r0, #0
 80028c2:	d40c      	bmi.n	80028de <TIM2_IRQHandler+0x96>
 80028c4:	e7ff      	b.n	80028c6 <TIM2_IRQHandler+0x7e>
D:\#Documents\UVISION\SMART_WAKE_UP/buttons.c:161
 80028c6:	f243 4180 	movw	r1, #13440	; 0x3480
 80028ca:	f2c2 0102 	movt	r1, #8194	; 0x2002
 80028ce:	2001      	movs	r0, #1
 80028d0:	7008      	strb	r0, [r1, #0]
 80028d2:	212c      	movs	r1, #44	; 0x2c
 80028d4:	f2c4 0100 	movt	r1, #16384	; 0x4000
 80028d8:	2063      	movs	r0, #99	; 0x63
D:\#Documents\UVISION\SMART_WAKE_UP/buttons.c:162
 80028da:	6008      	str	r0, [r1, #0]
D:\#Documents\UVISION\SMART_WAKE_UP/buttons.c:163
 80028dc:	e011      	b.n	8002902 <TIM2_IRQHandler+0xba>
 80028de:	212c      	movs	r1, #44	; 0x2c
 80028e0:	f2c4 0100 	movt	r1, #16384	; 0x4000
 80028e4:	f240 30e7 	movw	r0, #999	; 0x3e7
D:\#Documents\UVISION\SMART_WAKE_UP/buttons.c:167
 80028e8:	6008      	str	r0, [r1, #0]
D:\#Documents\UVISION\SMART_WAKE_UP/buttons.c:168
 80028ea:	f243 4184 	movw	r1, #13444	; 0x3484
 80028ee:	f2c2 0102 	movt	r1, #8194	; 0x2002
 80028f2:	2000      	movs	r0, #0
 80028f4:	7008      	strb	r0, [r1, #0]
D:\#Documents\UVISION\SMART_WAKE_UP/buttons.c:169
 80028f6:	f243 4180 	movw	r1, #13440	; 0x3480
 80028fa:	f2c2 0102 	movt	r1, #8194	; 0x2002
 80028fe:	7008      	strb	r0, [r1, #0]
 8002900:	e7ff      	b.n	8002902 <TIM2_IRQHandler+0xba>
 8002902:	e7ff      	b.n	8002904 <TIM2_IRQHandler+0xbc>
 8002904:	2124      	movs	r1, #36	; 0x24
 8002906:	f2c4 0100 	movt	r1, #16384	; 0x4000
 800290a:	2000      	movs	r0, #0
D:\#Documents\UVISION\SMART_WAKE_UP/buttons.c:171
 800290c:	6008      	str	r0, [r1, #0]
D:\#Documents\UVISION\SMART_WAKE_UP/buttons.c:172
 800290e:	e7ff      	b.n	8002910 <TIM2_IRQHandler+0xc8>
D:\#Documents\UVISION\SMART_WAKE_UP/buttons.c:173
 8002910:	4770      	bx	lr
 8002912:	0000      	movs	r0, r0
 8002914:	0000      	movs	r0, r0
	...

08002918 <TIM_Wait>:
TIM_Wait():
D:\#Documents\UVISION\SMART_WAKE_UP/tim.c:13
 8002918:	b082      	sub	sp, #8
 800291a:	9001      	str	r0, [sp, #4]
 800291c:	f24e 0114 	movw	r1, #57364	; 0xe014
 8002920:	f2ce 0100 	movt	r1, #57344	; 0xe000
 8002924:	f643 607f 	movw	r0, #15999	; 0x3e7f
D:\#Documents\UVISION\SMART_WAKE_UP/tim.c:14
 8002928:	6008      	str	r0, [r1, #0]
 800292a:	f24e 0118 	movw	r1, #57368	; 0xe018
 800292e:	f2ce 0100 	movt	r1, #57344	; 0xe000
 8002932:	2000      	movs	r0, #0
D:\#Documents\UVISION\SMART_WAKE_UP/tim.c:15
 8002934:	6008      	str	r0, [r1, #0]
 8002936:	f24e 0210 	movw	r2, #57360	; 0xe010
 800293a:	f2ce 0200 	movt	r2, #57344	; 0xe000
 800293e:	2105      	movs	r1, #5
D:\#Documents\UVISION\SMART_WAKE_UP/tim.c:16
 8002940:	6011      	str	r1, [r2, #0]
D:\#Documents\UVISION\SMART_WAKE_UP/tim.c:17
 8002942:	9000      	str	r0, [sp, #0]
 8002944:	e7ff      	b.n	8002946 <TIM_Wait+0x2e>
 8002946:	9800      	ldr	r0, [sp, #0]
 8002948:	9901      	ldr	r1, [sp, #4]
 800294a:	4288      	cmp	r0, r1
 800294c:	d210      	bcs.n	8002970 <TIM_Wait+0x58>
 800294e:	e7ff      	b.n	8002950 <TIM_Wait+0x38>
 8002950:	e7ff      	b.n	8002952 <TIM_Wait+0x3a>
 8002952:	f24e 0010 	movw	r0, #57360	; 0xe010
 8002956:	f2ce 0000 	movt	r0, #57344	; 0xe000
 800295a:	6800      	ldr	r0, [r0, #0]
 800295c:	03c0      	lsls	r0, r0, #15
 800295e:	2800      	cmp	r0, #0
 8002960:	d401      	bmi.n	8002966 <TIM_Wait+0x4e>
 8002962:	e7ff      	b.n	8002964 <TIM_Wait+0x4c>
 8002964:	e7f5      	b.n	8002952 <TIM_Wait+0x3a>
 8002966:	e7ff      	b.n	8002968 <TIM_Wait+0x50>
 8002968:	9800      	ldr	r0, [sp, #0]
 800296a:	3001      	adds	r0, #1
 800296c:	9000      	str	r0, [sp, #0]
 800296e:	e7ea      	b.n	8002946 <TIM_Wait+0x2e>
 8002970:	f24e 0110 	movw	r1, #57360	; 0xe010
 8002974:	f2ce 0100 	movt	r1, #57344	; 0xe000
 8002978:	2000      	movs	r0, #0
D:\#Documents\UVISION\SMART_WAKE_UP/tim.c:18
 800297a:	6008      	str	r0, [r1, #0]
D:\#Documents\UVISION\SMART_WAKE_UP/tim.c:19
 800297c:	b002      	add	sp, #8
 800297e:	4770      	bx	lr

08002980 <USART2_IRQHandler>:
USART2_IRQHandler():
D:\#Documents\UVISION\SMART_WAKE_UP/urm37.c:89
 8002980:	b082      	sub	sp, #8
 8002982:	f244 401c 	movw	r0, #17436	; 0x441c
 8002986:	f2c4 0000 	movt	r0, #16384	; 0x4000
D:\#Documents\UVISION\SMART_WAKE_UP/urm37.c:90
 800298a:	6800      	ldr	r0, [r0, #0]
 800298c:	0680      	lsls	r0, r0, #26
 800298e:	2800      	cmp	r0, #0
 8002990:	d56d      	bpl.n	8002a6e <USART2_IRQHandler+0xee>
 8002992:	e7ff      	b.n	8002994 <USART2_IRQHandler+0x14>
 8002994:	f643 0098 	movw	r0, #14488	; 0x3898
 8002998:	f2c2 0002 	movt	r0, #8194	; 0x2002
 800299c:	6800      	ldr	r0, [r0, #0]
 800299e:	2803      	cmp	r0, #3
 80029a0:	dc65      	bgt.n	8002a6e <USART2_IRQHandler+0xee>
 80029a2:	e7ff      	b.n	80029a4 <USART2_IRQHandler+0x24>
 80029a4:	f244 4024 	movw	r0, #17444	; 0x4424
 80029a8:	f2c4 0000 	movt	r0, #16384	; 0x4000
D:\#Documents\UVISION\SMART_WAKE_UP/urm37.c:92
 80029ac:	6801      	ldr	r1, [r0, #0]
 80029ae:	f643 0098 	movw	r0, #14488	; 0x3898
 80029b2:	f2c2 0002 	movt	r0, #8194	; 0x2002
 80029b6:	6803      	ldr	r3, [r0, #0]
 80029b8:	f643 0293 	movw	r2, #14483	; 0x3893
 80029bc:	f2c2 0202 	movt	r2, #8194	; 0x2002
 80029c0:	54d1      	strb	r1, [r2, r3]
D:\#Documents\UVISION\SMART_WAKE_UP/urm37.c:93
 80029c2:	6801      	ldr	r1, [r0, #0]
 80029c4:	3101      	adds	r1, #1
 80029c6:	6001      	str	r1, [r0, #0]
D:\#Documents\UVISION\SMART_WAKE_UP/urm37.c:95
 80029c8:	6800      	ldr	r0, [r0, #0]
 80029ca:	2804      	cmp	r0, #4
 80029cc:	db4e      	blt.n	8002a6c <USART2_IRQHandler+0xec>
 80029ce:	e7ff      	b.n	80029d0 <USART2_IRQHandler+0x50>
D:\#Documents\UVISION\SMART_WAKE_UP/urm37.c:97
 80029d0:	f643 0093 	movw	r0, #14483	; 0x3893
 80029d4:	f2c2 0002 	movt	r0, #8194	; 0x2002
 80029d8:	7800      	ldrb	r0, [r0, #0]
 80029da:	2811      	cmp	r0, #17
 80029dc:	d118      	bne.n	8002a10 <USART2_IRQHandler+0x90>
 80029de:	e7ff      	b.n	80029e0 <USART2_IRQHandler+0x60>
 80029e0:	2000      	movs	r0, #0
 80029e2:	9001      	str	r0, [sp, #4]
 80029e4:	e7ff      	b.n	80029e6 <USART2_IRQHandler+0x66>
 80029e6:	9801      	ldr	r0, [sp, #4]
 80029e8:	2803      	cmp	r0, #3
 80029ea:	dc10      	bgt.n	8002a0e <USART2_IRQHandler+0x8e>
 80029ec:	e7ff      	b.n	80029ee <USART2_IRQHandler+0x6e>
 80029ee:	9a01      	ldr	r2, [sp, #4]
 80029f0:	f643 0093 	movw	r0, #14483	; 0x3893
 80029f4:	f2c2 0002 	movt	r0, #8194	; 0x2002
 80029f8:	5c80      	ldrb	r0, [r0, r2]
 80029fa:	f643 018f 	movw	r1, #14479	; 0x388f
 80029fe:	f2c2 0102 	movt	r1, #8194	; 0x2002
 8002a02:	5488      	strb	r0, [r1, r2]
 8002a04:	e7ff      	b.n	8002a06 <USART2_IRQHandler+0x86>
 8002a06:	9801      	ldr	r0, [sp, #4]
 8002a08:	3001      	adds	r0, #1
 8002a0a:	9001      	str	r0, [sp, #4]
 8002a0c:	e7eb      	b.n	80029e6 <USART2_IRQHandler+0x66>
 8002a0e:	e020      	b.n	8002a52 <USART2_IRQHandler+0xd2>
D:\#Documents\UVISION\SMART_WAKE_UP/urm37.c:98
 8002a10:	f643 0093 	movw	r0, #14483	; 0x3893
 8002a14:	f2c2 0002 	movt	r0, #8194	; 0x2002
 8002a18:	7800      	ldrb	r0, [r0, #0]
 8002a1a:	2822      	cmp	r0, #34	; 0x22
 8002a1c:	d118      	bne.n	8002a50 <USART2_IRQHandler+0xd0>
 8002a1e:	e7ff      	b.n	8002a20 <USART2_IRQHandler+0xa0>
 8002a20:	2000      	movs	r0, #0
 8002a22:	9000      	str	r0, [sp, #0]
 8002a24:	e7ff      	b.n	8002a26 <USART2_IRQHandler+0xa6>
 8002a26:	9800      	ldr	r0, [sp, #0]
 8002a28:	2803      	cmp	r0, #3
 8002a2a:	dc10      	bgt.n	8002a4e <USART2_IRQHandler+0xce>
 8002a2c:	e7ff      	b.n	8002a2e <USART2_IRQHandler+0xae>
 8002a2e:	9a00      	ldr	r2, [sp, #0]
 8002a30:	f643 0093 	movw	r0, #14483	; 0x3893
 8002a34:	f2c2 0002 	movt	r0, #8194	; 0x2002
 8002a38:	5c80      	ldrb	r0, [r0, r2]
 8002a3a:	f643 018b 	movw	r1, #14475	; 0x388b
 8002a3e:	f2c2 0102 	movt	r1, #8194	; 0x2002
 8002a42:	5488      	strb	r0, [r1, r2]
 8002a44:	e7ff      	b.n	8002a46 <USART2_IRQHandler+0xc6>
 8002a46:	9800      	ldr	r0, [sp, #0]
 8002a48:	3001      	adds	r0, #1
 8002a4a:	9000      	str	r0, [sp, #0]
 8002a4c:	e7eb      	b.n	8002a26 <USART2_IRQHandler+0xa6>
 8002a4e:	e7ff      	b.n	8002a50 <USART2_IRQHandler+0xd0>
 8002a50:	e7ff      	b.n	8002a52 <USART2_IRQHandler+0xd2>
D:\#Documents\UVISION\SMART_WAKE_UP/urm37.c:100
 8002a52:	f243 31cb 	movw	r1, #13259	; 0x33cb
 8002a56:	f2c2 0102 	movt	r1, #8194	; 0x2002
 8002a5a:	2001      	movs	r0, #1
 8002a5c:	7008      	strb	r0, [r1, #0]
D:\#Documents\UVISION\SMART_WAKE_UP/urm37.c:101
 8002a5e:	f643 0198 	movw	r1, #14488	; 0x3898
 8002a62:	f2c2 0102 	movt	r1, #8194	; 0x2002
 8002a66:	2000      	movs	r0, #0
 8002a68:	6008      	str	r0, [r1, #0]
D:\#Documents\UVISION\SMART_WAKE_UP/urm37.c:102
 8002a6a:	e7ff      	b.n	8002a6c <USART2_IRQHandler+0xec>
D:\#Documents\UVISION\SMART_WAKE_UP/urm37.c:103
 8002a6c:	e7ff      	b.n	8002a6e <USART2_IRQHandler+0xee>
D:\#Documents\UVISION\SMART_WAKE_UP/urm37.c:104
 8002a6e:	b002      	add	sp, #8
 8002a70:	4770      	bx	lr
 8002a72:	0000      	movs	r0, r0
 8002a74:	0000      	movs	r0, r0
	...

08002a78 <__NVIC_EnableIRQ>:
__NVIC_EnableIRQ():
D:\#Documents\UVISION\SMART_WAKE_UP/D:/SOFT/uVision/Packs/ARM/CMSIS/5.9.0/CMSIS/Core/Include/core_cm7.h:1912
 8002a78:	b081      	sub	sp, #4
 8002a7a:	f88d 0003 	strb.w	r0, [sp, #3]
D:\#Documents\UVISION\SMART_WAKE_UP/D:/SOFT/uVision/Packs/ARM/CMSIS/5.9.0/CMSIS/Core/Include/core_cm7.h:1913
 8002a7e:	f99d 0003 	ldrsb.w	r0, [sp, #3]
 8002a82:	2800      	cmp	r0, #0
 8002a84:	d40e      	bmi.n	8002aa4 <__NVIC_EnableIRQ+0x2c>
 8002a86:	e7ff      	b.n	8002a88 <__NVIC_EnableIRQ+0x10>
D:\#Documents\UVISION\SMART_WAKE_UP/D:/SOFT/uVision/Packs/ARM/CMSIS/5.9.0/CMSIS/Core/Include/core_cm7.h:1916
 8002a88:	f99d 1003 	ldrsb.w	r1, [sp, #3]
 8002a8c:	f001 021f 	and.w	r2, r1, #31
 8002a90:	2001      	movs	r0, #1
 8002a92:	4090      	lsls	r0, r2
 8002a94:	094a      	lsrs	r2, r1, #5
 8002a96:	f24e 1100 	movw	r1, #57600	; 0xe100
 8002a9a:	f2ce 0100 	movt	r1, #57344	; 0xe000
 8002a9e:	f841 0022 	str.w	r0, [r1, r2, lsl #2]
D:\#Documents\UVISION\SMART_WAKE_UP/D:/SOFT/uVision/Packs/ARM/CMSIS/5.9.0/CMSIS/Core/Include/core_cm7.h:1918
 8002aa2:	e7ff      	b.n	8002aa4 <__NVIC_EnableIRQ+0x2c>
D:\#Documents\UVISION\SMART_WAKE_UP/D:/SOFT/uVision/Packs/ARM/CMSIS/5.9.0/CMSIS/Core/Include/core_cm7.h:1919
 8002aa4:	b001      	add	sp, #4
 8002aa6:	4770      	bx	lr

08002aa8 <__NVIC_SetPriority>:
__NVIC_SetPriority():
D:\#Documents\UVISION\SMART_WAKE_UP/D:/SOFT/uVision/Packs/ARM/CMSIS/5.9.0/CMSIS/Core/Include/core_cm7.h:2042
 8002aa8:	b082      	sub	sp, #8
 8002aaa:	f88d 0007 	strb.w	r0, [sp, #7]
 8002aae:	9100      	str	r1, [sp, #0]
D:\#Documents\UVISION\SMART_WAKE_UP/D:/SOFT/uVision/Packs/ARM/CMSIS/5.9.0/CMSIS/Core/Include/core_cm7.h:2043
 8002ab0:	f99d 0007 	ldrsb.w	r0, [sp, #7]
 8002ab4:	2800      	cmp	r0, #0
 8002ab6:	d40a      	bmi.n	8002ace <__NVIC_SetPriority+0x26>
 8002ab8:	e7ff      	b.n	8002aba <__NVIC_SetPriority+0x12>
D:\#Documents\UVISION\SMART_WAKE_UP/D:/SOFT/uVision/Packs/ARM/CMSIS/5.9.0/CMSIS/Core/Include/core_cm7.h:2045
 8002aba:	9800      	ldr	r0, [sp, #0]
 8002abc:	0100      	lsls	r0, r0, #4
 8002abe:	f99d 1007 	ldrsb.w	r1, [sp, #7]
 8002ac2:	f24e 4200 	movw	r2, #58368	; 0xe400
 8002ac6:	f2ce 0200 	movt	r2, #57344	; 0xe000
 8002aca:	5488      	strb	r0, [r1, r2]
D:\#Documents\UVISION\SMART_WAKE_UP/D:/SOFT/uVision/Packs/ARM/CMSIS/5.9.0/CMSIS/Core/Include/core_cm7.h:2046
 8002acc:	e00b      	b.n	8002ae6 <__NVIC_SetPriority+0x3e>
D:\#Documents\UVISION\SMART_WAKE_UP/D:/SOFT/uVision/Packs/ARM/CMSIS/5.9.0/CMSIS/Core/Include/core_cm7.h:2049
 8002ace:	9800      	ldr	r0, [sp, #0]
 8002ad0:	0100      	lsls	r0, r0, #4
 8002ad2:	f89d 1007 	ldrb.w	r1, [sp, #7]
 8002ad6:	f001 010f 	and.w	r1, r1, #15
 8002ada:	f64e 5214 	movw	r2, #60692	; 0xed14
 8002ade:	f2ce 0200 	movt	r2, #57344	; 0xe000
 8002ae2:	5488      	strb	r0, [r1, r2]
 8002ae4:	e7ff      	b.n	8002ae6 <__NVIC_SetPriority+0x3e>
D:\#Documents\UVISION\SMART_WAKE_UP/D:/SOFT/uVision/Packs/ARM/CMSIS/5.9.0/CMSIS/Core/Include/core_cm7.h:2051
 8002ae6:	b002      	add	sp, #8
 8002ae8:	4770      	bx	lr
 8002aea:	0000      	movs	r0, r0
 8002aec:	0000      	movs	r0, r0
	...

08002af0 <handling>:
handling():
D:\#Documents\UVISION\SMART_WAKE_UP/main.c:85
 8002af0:	b580      	push	{r7, lr}
 8002af2:	b088      	sub	sp, #32
 8002af4:	9007      	str	r0, [sp, #28]
 8002af6:	9106      	str	r1, [sp, #24]
 8002af8:	9205      	str	r2, [sp, #20]
 8002afa:	9304      	str	r3, [sp, #16]
D:\#Documents\UVISION\SMART_WAKE_UP/main.c:86
 8002afc:	f243 4084 	movw	r0, #13444	; 0x3484
 8002b00:	f2c2 0002 	movt	r0, #8194	; 0x2002
 8002b04:	7800      	ldrb	r0, [r0, #0]
 8002b06:	b158      	cbz	r0, 8002b20 <handling+0x30>
 8002b08:	e7ff      	b.n	8002b0a <handling+0x1a>
D:\#Documents\UVISION\SMART_WAKE_UP/main.c:88
 8002b0a:	9907      	ldr	r1, [sp, #28]
 8002b0c:	7808      	ldrb	r0, [r1, #0]
 8002b0e:	3001      	adds	r0, #1
 8002b10:	7008      	strb	r0, [r1, #0]
D:\#Documents\UVISION\SMART_WAKE_UP/main.c:89
 8002b12:	f243 4184 	movw	r1, #13444	; 0x3484
 8002b16:	f2c2 0102 	movt	r1, #8194	; 0x2002
 8002b1a:	2000      	movs	r0, #0
 8002b1c:	7008      	strb	r0, [r1, #0]
D:\#Documents\UVISION\SMART_WAKE_UP/main.c:90
 8002b1e:	e7ff      	b.n	8002b20 <handling+0x30>
D:\#Documents\UVISION\SMART_WAKE_UP/main.c:91
 8002b20:	f243 4080 	movw	r0, #13440	; 0x3480
 8002b24:	f2c2 0002 	movt	r0, #8194	; 0x2002
 8002b28:	7800      	ldrb	r0, [r0, #0]
 8002b2a:	b158      	cbz	r0, 8002b44 <handling+0x54>
 8002b2c:	e7ff      	b.n	8002b2e <handling+0x3e>
D:\#Documents\UVISION\SMART_WAKE_UP/main.c:93
 8002b2e:	9907      	ldr	r1, [sp, #28]
 8002b30:	7808      	ldrb	r0, [r1, #0]
 8002b32:	3801      	subs	r0, #1
 8002b34:	7008      	strb	r0, [r1, #0]
D:\#Documents\UVISION\SMART_WAKE_UP/main.c:94
 8002b36:	f243 4180 	movw	r1, #13440	; 0x3480
 8002b3a:	f2c2 0102 	movt	r1, #8194	; 0x2002
 8002b3e:	2000      	movs	r0, #0
 8002b40:	7008      	strb	r0, [r1, #0]
D:\#Documents\UVISION\SMART_WAKE_UP/main.c:95
 8002b42:	e7ff      	b.n	8002b44 <handling+0x54>
D:\#Documents\UVISION\SMART_WAKE_UP/main.c:97
 8002b44:	9807      	ldr	r0, [sp, #28]
 8002b46:	f990 0000 	ldrsb.w	r0, [r0]
 8002b4a:	9905      	ldr	r1, [sp, #20]
 8002b4c:	4288      	cmp	r0, r1
 8002b4e:	dd04      	ble.n	8002b5a <handling+0x6a>
 8002b50:	e7ff      	b.n	8002b52 <handling+0x62>
 8002b52:	9804      	ldr	r0, [sp, #16]
 8002b54:	9907      	ldr	r1, [sp, #28]
 8002b56:	7008      	strb	r0, [r1, #0]
 8002b58:	e7ff      	b.n	8002b5a <handling+0x6a>
D:\#Documents\UVISION\SMART_WAKE_UP/main.c:98
 8002b5a:	9807      	ldr	r0, [sp, #28]
 8002b5c:	f990 0000 	ldrsb.w	r0, [r0]
 8002b60:	9904      	ldr	r1, [sp, #16]
 8002b62:	4288      	cmp	r0, r1
 8002b64:	da04      	bge.n	8002b70 <handling+0x80>
 8002b66:	e7ff      	b.n	8002b68 <handling+0x78>
 8002b68:	9805      	ldr	r0, [sp, #20]
 8002b6a:	9907      	ldr	r1, [sp, #28]
 8002b6c:	7008      	strb	r0, [r1, #0]
 8002b6e:	e7ff      	b.n	8002b70 <handling+0x80>
D:\#Documents\UVISION\SMART_WAKE_UP/main.c:100
 8002b70:	9806      	ldr	r0, [sp, #24]
 8002b72:	9907      	ldr	r1, [sp, #28]
 8002b74:	f991 2000 	ldrsb.w	r2, [r1]
 8002b78:	4669      	mov	r1, sp
 8002b7a:	608a      	str	r2, [r1, #8]
 8002b7c:	6048      	str	r0, [r1, #4]
 8002b7e:	f643 601d 	movw	r0, #15901	; 0x3e1d
 8002b82:	f6c0 0000 	movt	r0, #2048	; 0x800
 8002b86:	6008      	str	r0, [r1, #0]
 8002b88:	f240 0300 	movw	r3, #0
 8002b8c:	f2c2 0302 	movt	r3, #8194	; 0x2002
 8002b90:	2001      	movs	r0, #1
 8002b92:	2100      	movs	r1, #0
 8002b94:	220d      	movs	r2, #13
 8002b96:	f7ff fbd3 	bl	8002340 <SH1106_FontPrint>
D:\#Documents\UVISION\SMART_WAKE_UP/main.c:101
 8002b9a:	b008      	add	sp, #32
 8002b9c:	bd80      	pop	{r7, pc}
	...

08002ba0 <handlingDay>:
handlingDay():
D:\#Documents\UVISION\SMART_WAKE_UP/main.c:104
 8002ba0:	b580      	push	{r7, lr}
 8002ba2:	b084      	sub	sp, #16
D:\#Documents\UVISION\SMART_WAKE_UP/main.c:105
 8002ba4:	f243 408a 	movw	r0, #13450	; 0x348a
 8002ba8:	f2c2 0002 	movt	r0, #8194	; 0x2002
 8002bac:	f990 0000 	ldrsb.w	r0, [r0]
 8002bb0:	eb00 7190 	add.w	r1, r0, r0, lsr #30
 8002bb4:	f021 0103 	bic.w	r1, r1, #3
 8002bb8:	1a40      	subs	r0, r0, r1
 8002bba:	b9d8      	cbnz	r0, 8002bf4 <handlingDay+0x54>
 8002bbc:	e7ff      	b.n	8002bbe <handlingDay+0x1e>
 8002bbe:	f243 408a 	movw	r0, #13450	; 0x348a
 8002bc2:	f2c2 0002 	movt	r0, #8194	; 0x2002
 8002bc6:	f990 1000 	ldrsb.w	r1, [r0]
 8002bca:	2001      	movs	r0, #1
 8002bcc:	f64b 0350 	movw	r3, #47184	; 0xb850
 8002bd0:	f2c0 531e 	movt	r3, #1310	; 0x51e
 8002bd4:	f645 4229 	movw	r2, #23593	; 0x5c29
 8002bd8:	f2cc 228f 	movt	r2, #49807	; 0xc28f
 8002bdc:	fb01 3102 	mla	r1, r1, r2, r3
 8002be0:	ea4f 01b1 	mov.w	r1, r1, ror #2
 8002be4:	f645 4228 	movw	r2, #23592	; 0x5c28
 8002be8:	f2c0 228f 	movt	r2, #655	; 0x28f
 8002bec:	4291      	cmp	r1, r2
 8002bee:	9002      	str	r0, [sp, #8]
 8002bf0:	d81c      	bhi.n	8002c2c <handlingDay+0x8c>
 8002bf2:	e7ff      	b.n	8002bf4 <handlingDay+0x54>
 8002bf4:	f243 408a 	movw	r0, #13450	; 0x348a
 8002bf8:	f2c2 0002 	movt	r0, #8194	; 0x2002
 8002bfc:	f990 0000 	ldrsb.w	r0, [r0]
 8002c00:	f64b 0250 	movw	r2, #47184	; 0xb850
 8002c04:	f2c0 521e 	movt	r2, #1310	; 0x51e
 8002c08:	f645 4129 	movw	r1, #23593	; 0x5c29
 8002c0c:	f2cc 218f 	movt	r1, #49807	; 0xc28f
 8002c10:	fb00 2001 	mla	r0, r0, r1, r2
 8002c14:	ea4f 1130 	mov.w	r1, r0, ror #4
 8002c18:	f24d 720b 	movw	r2, #55051	; 0xd70b
 8002c1c:	f2c0 02a3 	movt	r2, #163	; 0xa3
 8002c20:	2000      	movs	r0, #0
 8002c22:	4291      	cmp	r1, r2
 8002c24:	bf38      	it	cc
 8002c26:	2001      	movcc	r0, #1
 8002c28:	9002      	str	r0, [sp, #8]
 8002c2a:	e7ff      	b.n	8002c2c <handlingDay+0x8c>
 8002c2c:	9802      	ldr	r0, [sp, #8]
 8002c2e:	f000 0001 	and.w	r0, r0, #1
 8002c32:	f88d 000f 	strb.w	r0, [sp, #15]
D:\#Documents\UVISION\SMART_WAKE_UP/main.c:107
 8002c36:	f243 4084 	movw	r0, #13444	; 0x3484
 8002c3a:	f2c2 0002 	movt	r0, #8194	; 0x2002
 8002c3e:	7800      	ldrb	r0, [r0, #0]
 8002c40:	b170      	cbz	r0, 8002c60 <handlingDay+0xc0>
 8002c42:	e7ff      	b.n	8002c44 <handlingDay+0xa4>
D:\#Documents\UVISION\SMART_WAKE_UP/main.c:109
 8002c44:	f243 31c8 	movw	r1, #13256	; 0x33c8
 8002c48:	f2c2 0102 	movt	r1, #8194	; 0x2002
 8002c4c:	7808      	ldrb	r0, [r1, #0]
 8002c4e:	3001      	adds	r0, #1
 8002c50:	7008      	strb	r0, [r1, #0]
D:\#Documents\UVISION\SMART_WAKE_UP/main.c:110
 8002c52:	f243 4184 	movw	r1, #13444	; 0x3484
 8002c56:	f2c2 0102 	movt	r1, #8194	; 0x2002
 8002c5a:	2000      	movs	r0, #0
 8002c5c:	7008      	strb	r0, [r1, #0]
D:\#Documents\UVISION\SMART_WAKE_UP/main.c:111
 8002c5e:	e7ff      	b.n	8002c60 <handlingDay+0xc0>
D:\#Documents\UVISION\SMART_WAKE_UP/main.c:112
 8002c60:	f243 4080 	movw	r0, #13440	; 0x3480
 8002c64:	f2c2 0002 	movt	r0, #8194	; 0x2002
 8002c68:	7800      	ldrb	r0, [r0, #0]
 8002c6a:	b170      	cbz	r0, 8002c8a <handlingDay+0xea>
 8002c6c:	e7ff      	b.n	8002c6e <handlingDay+0xce>
D:\#Documents\UVISION\SMART_WAKE_UP/main.c:114
 8002c6e:	f243 31c8 	movw	r1, #13256	; 0x33c8
 8002c72:	f2c2 0102 	movt	r1, #8194	; 0x2002
 8002c76:	7808      	ldrb	r0, [r1, #0]
 8002c78:	3801      	subs	r0, #1
 8002c7a:	7008      	strb	r0, [r1, #0]
D:\#Documents\UVISION\SMART_WAKE_UP/main.c:115
 8002c7c:	f243 4180 	movw	r1, #13440	; 0x3480
 8002c80:	f2c2 0102 	movt	r1, #8194	; 0x2002
 8002c84:	2000      	movs	r0, #0
 8002c86:	7008      	strb	r0, [r1, #0]
D:\#Documents\UVISION\SMART_WAKE_UP/main.c:116
 8002c88:	e7ff      	b.n	8002c8a <handlingDay+0xea>
D:\#Documents\UVISION\SMART_WAKE_UP/main.c:118
 8002c8a:	f243 30ca 	movw	r0, #13258	; 0x33ca
 8002c8e:	f2c2 0002 	movt	r0, #8194	; 0x2002
 8002c92:	f990 0000 	ldrsb.w	r0, [r0]
 8002c96:	2804      	cmp	r0, #4
 8002c98:	d01b      	beq.n	8002cd2 <handlingDay+0x132>
 8002c9a:	e7ff      	b.n	8002c9c <handlingDay+0xfc>
 8002c9c:	f243 30ca 	movw	r0, #13258	; 0x33ca
 8002ca0:	f2c2 0002 	movt	r0, #8194	; 0x2002
 8002ca4:	f990 0000 	ldrsb.w	r0, [r0]
 8002ca8:	2806      	cmp	r0, #6
 8002caa:	d012      	beq.n	8002cd2 <handlingDay+0x132>
 8002cac:	e7ff      	b.n	8002cae <handlingDay+0x10e>
 8002cae:	f243 30ca 	movw	r0, #13258	; 0x33ca
 8002cb2:	f2c2 0002 	movt	r0, #8194	; 0x2002
 8002cb6:	f990 0000 	ldrsb.w	r0, [r0]
 8002cba:	2809      	cmp	r0, #9
 8002cbc:	d009      	beq.n	8002cd2 <handlingDay+0x132>
 8002cbe:	e7ff      	b.n	8002cc0 <handlingDay+0x120>
 8002cc0:	f243 30ca 	movw	r0, #13258	; 0x33ca
 8002cc4:	f2c2 0002 	movt	r0, #8194	; 0x2002
 8002cc8:	f990 0000 	ldrsb.w	r0, [r0]
 8002ccc:	280b      	cmp	r0, #11
 8002cce:	d110      	bne.n	8002cf2 <handlingDay+0x152>
 8002cd0:	e7ff      	b.n	8002cd2 <handlingDay+0x132>
 8002cd2:	f243 30c8 	movw	r0, #13256	; 0x33c8
 8002cd6:	f2c2 0002 	movt	r0, #8194	; 0x2002
 8002cda:	f990 0000 	ldrsb.w	r0, [r0]
 8002cde:	281f      	cmp	r0, #31
 8002ce0:	db07      	blt.n	8002cf2 <handlingDay+0x152>
 8002ce2:	e7ff      	b.n	8002ce4 <handlingDay+0x144>
 8002ce4:	f243 31c8 	movw	r1, #13256	; 0x33c8
 8002ce8:	f2c2 0102 	movt	r1, #8194	; 0x2002
 8002cec:	2000      	movs	r0, #0
 8002cee:	7008      	strb	r0, [r1, #0]
 8002cf0:	e7ff      	b.n	8002cf2 <handlingDay+0x152>
D:\#Documents\UVISION\SMART_WAKE_UP/main.c:119
 8002cf2:	f243 30ca 	movw	r0, #13258	; 0x33ca
 8002cf6:	f2c2 0002 	movt	r0, #8194	; 0x2002
 8002cfa:	f990 0000 	ldrsb.w	r0, [r0]
 8002cfe:	2804      	cmp	r0, #4
 8002d00:	d01b      	beq.n	8002d3a <handlingDay+0x19a>
 8002d02:	e7ff      	b.n	8002d04 <handlingDay+0x164>
 8002d04:	f243 30ca 	movw	r0, #13258	; 0x33ca
 8002d08:	f2c2 0002 	movt	r0, #8194	; 0x2002
 8002d0c:	f990 0000 	ldrsb.w	r0, [r0]
 8002d10:	2806      	cmp	r0, #6
 8002d12:	d012      	beq.n	8002d3a <handlingDay+0x19a>
 8002d14:	e7ff      	b.n	8002d16 <handlingDay+0x176>
 8002d16:	f243 30ca 	movw	r0, #13258	; 0x33ca
 8002d1a:	f2c2 0002 	movt	r0, #8194	; 0x2002
 8002d1e:	f990 0000 	ldrsb.w	r0, [r0]
 8002d22:	2809      	cmp	r0, #9
 8002d24:	d009      	beq.n	8002d3a <handlingDay+0x19a>
 8002d26:	e7ff      	b.n	8002d28 <handlingDay+0x188>
 8002d28:	f243 30ca 	movw	r0, #13258	; 0x33ca
 8002d2c:	f2c2 0002 	movt	r0, #8194	; 0x2002
 8002d30:	f990 0000 	ldrsb.w	r0, [r0]
 8002d34:	280b      	cmp	r0, #11
 8002d36:	d111      	bne.n	8002d5c <handlingDay+0x1bc>
 8002d38:	e7ff      	b.n	8002d3a <handlingDay+0x19a>
 8002d3a:	f243 30c8 	movw	r0, #13256	; 0x33c8
 8002d3e:	f2c2 0002 	movt	r0, #8194	; 0x2002
 8002d42:	f990 0000 	ldrsb.w	r0, [r0]
 8002d46:	f1b0 3fff 	cmp.w	r0, #4294967295	; 0xffffffff
 8002d4a:	dc07      	bgt.n	8002d5c <handlingDay+0x1bc>
 8002d4c:	e7ff      	b.n	8002d4e <handlingDay+0x1ae>
 8002d4e:	f243 31c8 	movw	r1, #13256	; 0x33c8
 8002d52:	f2c2 0102 	movt	r1, #8194	; 0x2002
 8002d56:	201e      	movs	r0, #30
 8002d58:	7008      	strb	r0, [r1, #0]
 8002d5a:	e7ff      	b.n	8002d5c <handlingDay+0x1bc>
D:\#Documents\UVISION\SMART_WAKE_UP/main.c:120
 8002d5c:	f243 30ca 	movw	r0, #13258	; 0x33ca
 8002d60:	f2c2 0002 	movt	r0, #8194	; 0x2002
 8002d64:	f990 0000 	ldrsb.w	r0, [r0]
 8002d68:	2801      	cmp	r0, #1
 8002d6a:	d02d      	beq.n	8002dc8 <handlingDay+0x228>
 8002d6c:	e7ff      	b.n	8002d6e <handlingDay+0x1ce>
 8002d6e:	f243 30ca 	movw	r0, #13258	; 0x33ca
 8002d72:	f2c2 0002 	movt	r0, #8194	; 0x2002
 8002d76:	f990 0000 	ldrsb.w	r0, [r0]
 8002d7a:	2803      	cmp	r0, #3
 8002d7c:	d024      	beq.n	8002dc8 <handlingDay+0x228>
 8002d7e:	e7ff      	b.n	8002d80 <handlingDay+0x1e0>
 8002d80:	f243 30ca 	movw	r0, #13258	; 0x33ca
 8002d84:	f2c2 0002 	movt	r0, #8194	; 0x2002
 8002d88:	f990 0000 	ldrsb.w	r0, [r0]
 8002d8c:	2805      	cmp	r0, #5
 8002d8e:	d01b      	beq.n	8002dc8 <handlingDay+0x228>
 8002d90:	e7ff      	b.n	8002d92 <handlingDay+0x1f2>
 8002d92:	f243 30ca 	movw	r0, #13258	; 0x33ca
 8002d96:	f2c2 0002 	movt	r0, #8194	; 0x2002
 8002d9a:	f990 0000 	ldrsb.w	r0, [r0]
 8002d9e:	2807      	cmp	r0, #7
 8002da0:	d012      	beq.n	8002dc8 <handlingDay+0x228>
 8002da2:	e7ff      	b.n	8002da4 <handlingDay+0x204>
 8002da4:	f243 30ca 	movw	r0, #13258	; 0x33ca
 8002da8:	f2c2 0002 	movt	r0, #8194	; 0x2002
 8002dac:	f990 0000 	ldrsb.w	r0, [r0]
 8002db0:	2809      	cmp	r0, #9
 8002db2:	d009      	beq.n	8002dc8 <handlingDay+0x228>
 8002db4:	e7ff      	b.n	8002db6 <handlingDay+0x216>
 8002db6:	f243 30ca 	movw	r0, #13258	; 0x33ca
 8002dba:	f2c2 0002 	movt	r0, #8194	; 0x2002
 8002dbe:	f990 0000 	ldrsb.w	r0, [r0]
 8002dc2:	280b      	cmp	r0, #11
 8002dc4:	d110      	bne.n	8002de8 <handlingDay+0x248>
 8002dc6:	e7ff      	b.n	8002dc8 <handlingDay+0x228>
 8002dc8:	f243 30c8 	movw	r0, #13256	; 0x33c8
 8002dcc:	f2c2 0002 	movt	r0, #8194	; 0x2002
 8002dd0:	f990 0000 	ldrsb.w	r0, [r0]
 8002dd4:	2820      	cmp	r0, #32
 8002dd6:	db07      	blt.n	8002de8 <handlingDay+0x248>
 8002dd8:	e7ff      	b.n	8002dda <handlingDay+0x23a>
 8002dda:	f243 31c8 	movw	r1, #13256	; 0x33c8
 8002dde:	f2c2 0102 	movt	r1, #8194	; 0x2002
 8002de2:	2000      	movs	r0, #0
 8002de4:	7008      	strb	r0, [r1, #0]
 8002de6:	e7ff      	b.n	8002de8 <handlingDay+0x248>
D:\#Documents\UVISION\SMART_WAKE_UP/main.c:121
 8002de8:	f243 30ca 	movw	r0, #13258	; 0x33ca
 8002dec:	f2c2 0002 	movt	r0, #8194	; 0x2002
 8002df0:	f990 0000 	ldrsb.w	r0, [r0]
 8002df4:	2801      	cmp	r0, #1
 8002df6:	d02d      	beq.n	8002e54 <handlingDay+0x2b4>
 8002df8:	e7ff      	b.n	8002dfa <handlingDay+0x25a>
 8002dfa:	f243 30ca 	movw	r0, #13258	; 0x33ca
 8002dfe:	f2c2 0002 	movt	r0, #8194	; 0x2002
 8002e02:	f990 0000 	ldrsb.w	r0, [r0]
 8002e06:	2803      	cmp	r0, #3
 8002e08:	d024      	beq.n	8002e54 <handlingDay+0x2b4>
 8002e0a:	e7ff      	b.n	8002e0c <handlingDay+0x26c>
 8002e0c:	f243 30ca 	movw	r0, #13258	; 0x33ca
 8002e10:	f2c2 0002 	movt	r0, #8194	; 0x2002
 8002e14:	f990 0000 	ldrsb.w	r0, [r0]
 8002e18:	2805      	cmp	r0, #5
 8002e1a:	d01b      	beq.n	8002e54 <handlingDay+0x2b4>
 8002e1c:	e7ff      	b.n	8002e1e <handlingDay+0x27e>
 8002e1e:	f243 30ca 	movw	r0, #13258	; 0x33ca
 8002e22:	f2c2 0002 	movt	r0, #8194	; 0x2002
 8002e26:	f990 0000 	ldrsb.w	r0, [r0]
 8002e2a:	2807      	cmp	r0, #7
 8002e2c:	d012      	beq.n	8002e54 <handlingDay+0x2b4>
 8002e2e:	e7ff      	b.n	8002e30 <handlingDay+0x290>
 8002e30:	f243 30ca 	movw	r0, #13258	; 0x33ca
 8002e34:	f2c2 0002 	movt	r0, #8194	; 0x2002
 8002e38:	f990 0000 	ldrsb.w	r0, [r0]
 8002e3c:	2809      	cmp	r0, #9
 8002e3e:	d009      	beq.n	8002e54 <handlingDay+0x2b4>
 8002e40:	e7ff      	b.n	8002e42 <handlingDay+0x2a2>
 8002e42:	f243 30ca 	movw	r0, #13258	; 0x33ca
 8002e46:	f2c2 0002 	movt	r0, #8194	; 0x2002
 8002e4a:	f990 0000 	ldrsb.w	r0, [r0]
 8002e4e:	280b      	cmp	r0, #11
 8002e50:	d111      	bne.n	8002e76 <handlingDay+0x2d6>
 8002e52:	e7ff      	b.n	8002e54 <handlingDay+0x2b4>
 8002e54:	f243 30c8 	movw	r0, #13256	; 0x33c8
 8002e58:	f2c2 0002 	movt	r0, #8194	; 0x2002
 8002e5c:	f990 0000 	ldrsb.w	r0, [r0]
 8002e60:	f1b0 3fff 	cmp.w	r0, #4294967295	; 0xffffffff
 8002e64:	dc07      	bgt.n	8002e76 <handlingDay+0x2d6>
 8002e66:	e7ff      	b.n	8002e68 <handlingDay+0x2c8>
 8002e68:	f243 31c8 	movw	r1, #13256	; 0x33c8
 8002e6c:	f2c2 0102 	movt	r1, #8194	; 0x2002
 8002e70:	201f      	movs	r0, #31
 8002e72:	7008      	strb	r0, [r1, #0]
 8002e74:	e7ff      	b.n	8002e76 <handlingDay+0x2d6>
D:\#Documents\UVISION\SMART_WAKE_UP/main.c:122
 8002e76:	f243 30ca 	movw	r0, #13258	; 0x33ca
 8002e7a:	f2c2 0002 	movt	r0, #8194	; 0x2002
 8002e7e:	f990 0000 	ldrsb.w	r0, [r0]
 8002e82:	2802      	cmp	r0, #2
 8002e84:	d110      	bne.n	8002ea8 <handlingDay+0x308>
 8002e86:	e7ff      	b.n	8002e88 <handlingDay+0x2e8>
 8002e88:	f243 30c8 	movw	r0, #13256	; 0x33c8
 8002e8c:	f2c2 0002 	movt	r0, #8194	; 0x2002
 8002e90:	f990 0000 	ldrsb.w	r0, [r0]
 8002e94:	281d      	cmp	r0, #29
 8002e96:	db07      	blt.n	8002ea8 <handlingDay+0x308>
 8002e98:	e7ff      	b.n	8002e9a <handlingDay+0x2fa>
 8002e9a:	f243 31c8 	movw	r1, #13256	; 0x33c8
 8002e9e:	f2c2 0102 	movt	r1, #8194	; 0x2002
 8002ea2:	2000      	movs	r0, #0
 8002ea4:	7008      	strb	r0, [r1, #0]
 8002ea6:	e7ff      	b.n	8002ea8 <handlingDay+0x308>
D:\#Documents\UVISION\SMART_WAKE_UP/main.c:123
 8002ea8:	f243 30ca 	movw	r0, #13258	; 0x33ca
 8002eac:	f2c2 0002 	movt	r0, #8194	; 0x2002
 8002eb0:	f990 0000 	ldrsb.w	r0, [r0]
 8002eb4:	2802      	cmp	r0, #2
 8002eb6:	d111      	bne.n	8002edc <handlingDay+0x33c>
 8002eb8:	e7ff      	b.n	8002eba <handlingDay+0x31a>
 8002eba:	f243 30c8 	movw	r0, #13256	; 0x33c8
 8002ebe:	f2c2 0002 	movt	r0, #8194	; 0x2002
 8002ec2:	f990 0000 	ldrsb.w	r0, [r0]
 8002ec6:	f1b0 3fff 	cmp.w	r0, #4294967295	; 0xffffffff
 8002eca:	dc07      	bgt.n	8002edc <handlingDay+0x33c>
 8002ecc:	e7ff      	b.n	8002ece <handlingDay+0x32e>
 8002ece:	f243 31c8 	movw	r1, #13256	; 0x33c8
 8002ed2:	f2c2 0102 	movt	r1, #8194	; 0x2002
 8002ed6:	201c      	movs	r0, #28
 8002ed8:	7008      	strb	r0, [r1, #0]
 8002eda:	e7ff      	b.n	8002edc <handlingDay+0x33c>
D:\#Documents\UVISION\SMART_WAKE_UP/main.c:124
 8002edc:	f243 30ca 	movw	r0, #13258	; 0x33ca
 8002ee0:	f2c2 0002 	movt	r0, #8194	; 0x2002
 8002ee4:	f990 0000 	ldrsb.w	r0, [r0]
 8002ee8:	2802      	cmp	r0, #2
 8002eea:	d114      	bne.n	8002f16 <handlingDay+0x376>
 8002eec:	e7ff      	b.n	8002eee <handlingDay+0x34e>
 8002eee:	f89d 000f 	ldrb.w	r0, [sp, #15]
 8002ef2:	b180      	cbz	r0, 8002f16 <handlingDay+0x376>
 8002ef4:	e7ff      	b.n	8002ef6 <handlingDay+0x356>
 8002ef6:	f243 30c8 	movw	r0, #13256	; 0x33c8
 8002efa:	f2c2 0002 	movt	r0, #8194	; 0x2002
 8002efe:	f990 0000 	ldrsb.w	r0, [r0]
 8002f02:	281e      	cmp	r0, #30
 8002f04:	db07      	blt.n	8002f16 <handlingDay+0x376>
 8002f06:	e7ff      	b.n	8002f08 <handlingDay+0x368>
 8002f08:	f243 31c8 	movw	r1, #13256	; 0x33c8
 8002f0c:	f2c2 0102 	movt	r1, #8194	; 0x2002
 8002f10:	2000      	movs	r0, #0
 8002f12:	7008      	strb	r0, [r1, #0]
 8002f14:	e7ff      	b.n	8002f16 <handlingDay+0x376>
D:\#Documents\UVISION\SMART_WAKE_UP/main.c:125
 8002f16:	f243 30ca 	movw	r0, #13258	; 0x33ca
 8002f1a:	f2c2 0002 	movt	r0, #8194	; 0x2002
 8002f1e:	f990 0000 	ldrsb.w	r0, [r0]
 8002f22:	2802      	cmp	r0, #2
 8002f24:	d114      	bne.n	8002f50 <handlingDay+0x3b0>
 8002f26:	e7ff      	b.n	8002f28 <handlingDay+0x388>
 8002f28:	f89d 000f 	ldrb.w	r0, [sp, #15]
 8002f2c:	b980      	cbnz	r0, 8002f50 <handlingDay+0x3b0>
 8002f2e:	e7ff      	b.n	8002f30 <handlingDay+0x390>
 8002f30:	f243 30c8 	movw	r0, #13256	; 0x33c8
 8002f34:	f2c2 0002 	movt	r0, #8194	; 0x2002
 8002f38:	f990 0000 	ldrsb.w	r0, [r0]
 8002f3c:	281d      	cmp	r0, #29
 8002f3e:	db07      	blt.n	8002f50 <handlingDay+0x3b0>
 8002f40:	e7ff      	b.n	8002f42 <handlingDay+0x3a2>
 8002f42:	f243 31c8 	movw	r1, #13256	; 0x33c8
 8002f46:	f2c2 0102 	movt	r1, #8194	; 0x2002
 8002f4a:	2000      	movs	r0, #0
 8002f4c:	7008      	strb	r0, [r1, #0]
 8002f4e:	e7ff      	b.n	8002f50 <handlingDay+0x3b0>
D:\#Documents\UVISION\SMART_WAKE_UP/main.c:126
 8002f50:	f243 30ca 	movw	r0, #13258	; 0x33ca
 8002f54:	f2c2 0002 	movt	r0, #8194	; 0x2002
 8002f58:	f990 0000 	ldrsb.w	r0, [r0]
 8002f5c:	2802      	cmp	r0, #2
 8002f5e:	d115      	bne.n	8002f8c <handlingDay+0x3ec>
 8002f60:	e7ff      	b.n	8002f62 <handlingDay+0x3c2>
 8002f62:	f89d 000f 	ldrb.w	r0, [sp, #15]
 8002f66:	b188      	cbz	r0, 8002f8c <handlingDay+0x3ec>
 8002f68:	e7ff      	b.n	8002f6a <handlingDay+0x3ca>
 8002f6a:	f243 30c8 	movw	r0, #13256	; 0x33c8
 8002f6e:	f2c2 0002 	movt	r0, #8194	; 0x2002
 8002f72:	f990 0000 	ldrsb.w	r0, [r0]
 8002f76:	f1b0 3fff 	cmp.w	r0, #4294967295	; 0xffffffff
 8002f7a:	dc07      	bgt.n	8002f8c <handlingDay+0x3ec>
 8002f7c:	e7ff      	b.n	8002f7e <handlingDay+0x3de>
 8002f7e:	f243 31c8 	movw	r1, #13256	; 0x33c8
 8002f82:	f2c2 0102 	movt	r1, #8194	; 0x2002
 8002f86:	201d      	movs	r0, #29
 8002f88:	7008      	strb	r0, [r1, #0]
 8002f8a:	e7ff      	b.n	8002f8c <handlingDay+0x3ec>
D:\#Documents\UVISION\SMART_WAKE_UP/main.c:127
 8002f8c:	f243 30ca 	movw	r0, #13258	; 0x33ca
 8002f90:	f2c2 0002 	movt	r0, #8194	; 0x2002
 8002f94:	f990 0000 	ldrsb.w	r0, [r0]
 8002f98:	2802      	cmp	r0, #2
 8002f9a:	d115      	bne.n	8002fc8 <handlingDay+0x428>
 8002f9c:	e7ff      	b.n	8002f9e <handlingDay+0x3fe>
 8002f9e:	f89d 000f 	ldrb.w	r0, [sp, #15]
 8002fa2:	b988      	cbnz	r0, 8002fc8 <handlingDay+0x428>
 8002fa4:	e7ff      	b.n	8002fa6 <handlingDay+0x406>
 8002fa6:	f243 30c8 	movw	r0, #13256	; 0x33c8
 8002faa:	f2c2 0002 	movt	r0, #8194	; 0x2002
 8002fae:	f990 0000 	ldrsb.w	r0, [r0]
 8002fb2:	f1b0 3fff 	cmp.w	r0, #4294967295	; 0xffffffff
 8002fb6:	dc07      	bgt.n	8002fc8 <handlingDay+0x428>
 8002fb8:	e7ff      	b.n	8002fba <handlingDay+0x41a>
 8002fba:	f243 31c8 	movw	r1, #13256	; 0x33c8
 8002fbe:	f2c2 0102 	movt	r1, #8194	; 0x2002
 8002fc2:	201c      	movs	r0, #28
 8002fc4:	7008      	strb	r0, [r1, #0]
 8002fc6:	e7ff      	b.n	8002fc8 <handlingDay+0x428>
D:\#Documents\UVISION\SMART_WAKE_UP/main.c:129
 8002fc8:	f243 30c8 	movw	r0, #13256	; 0x33c8
 8002fcc:	f2c2 0002 	movt	r0, #8194	; 0x2002
 8002fd0:	f990 0000 	ldrsb.w	r0, [r0]
 8002fd4:	4669      	mov	r1, sp
 8002fd6:	6048      	str	r0, [r1, #4]
 8002fd8:	f643 602d 	movw	r0, #15917	; 0x3e2d
 8002fdc:	f6c0 0000 	movt	r0, #2048	; 0x800
 8002fe0:	6008      	str	r0, [r1, #0]
 8002fe2:	f240 0300 	movw	r3, #0
 8002fe6:	f2c2 0302 	movt	r3, #8194	; 0x2002
 8002fea:	2001      	movs	r0, #1
 8002fec:	2100      	movs	r1, #0
 8002fee:	220d      	movs	r2, #13
 8002ff0:	f7ff f9a6 	bl	8002340 <SH1106_FontPrint>
D:\#Documents\UVISION\SMART_WAKE_UP/main.c:130
 8002ff4:	b004      	add	sp, #16
 8002ff6:	bd80      	pop	{r7, pc}

08002ff8 <handlingMonth>:
handlingMonth():
D:\#Documents\UVISION\SMART_WAKE_UP/main.c:133
 8002ff8:	b580      	push	{r7, lr}
 8002ffa:	b084      	sub	sp, #16
D:\#Documents\UVISION\SMART_WAKE_UP/main.c:134
 8002ffc:	f243 408a 	movw	r0, #13450	; 0x348a
 8003000:	f2c2 0002 	movt	r0, #8194	; 0x2002
 8003004:	f990 0000 	ldrsb.w	r0, [r0]
 8003008:	eb00 7190 	add.w	r1, r0, r0, lsr #30
 800300c:	f021 0103 	bic.w	r1, r1, #3
 8003010:	1a40      	subs	r0, r0, r1
 8003012:	b9d8      	cbnz	r0, 800304c <handlingMonth+0x54>
 8003014:	e7ff      	b.n	8003016 <handlingMonth+0x1e>
 8003016:	f243 408a 	movw	r0, #13450	; 0x348a
 800301a:	f2c2 0002 	movt	r0, #8194	; 0x2002
 800301e:	f990 1000 	ldrsb.w	r1, [r0]
 8003022:	2001      	movs	r0, #1
 8003024:	f64b 0350 	movw	r3, #47184	; 0xb850
 8003028:	f2c0 531e 	movt	r3, #1310	; 0x51e
 800302c:	f645 4229 	movw	r2, #23593	; 0x5c29
 8003030:	f2cc 228f 	movt	r2, #49807	; 0xc28f
 8003034:	fb01 3102 	mla	r1, r1, r2, r3
 8003038:	ea4f 01b1 	mov.w	r1, r1, ror #2
 800303c:	f645 4228 	movw	r2, #23592	; 0x5c28
 8003040:	f2c0 228f 	movt	r2, #655	; 0x28f
 8003044:	4291      	cmp	r1, r2
 8003046:	9002      	str	r0, [sp, #8]
 8003048:	d81c      	bhi.n	8003084 <handlingMonth+0x8c>
 800304a:	e7ff      	b.n	800304c <handlingMonth+0x54>
 800304c:	f243 408a 	movw	r0, #13450	; 0x348a
 8003050:	f2c2 0002 	movt	r0, #8194	; 0x2002
 8003054:	f990 0000 	ldrsb.w	r0, [r0]
 8003058:	f64b 0250 	movw	r2, #47184	; 0xb850
 800305c:	f2c0 521e 	movt	r2, #1310	; 0x51e
 8003060:	f645 4129 	movw	r1, #23593	; 0x5c29
 8003064:	f2cc 218f 	movt	r1, #49807	; 0xc28f
 8003068:	fb00 2001 	mla	r0, r0, r1, r2
 800306c:	ea4f 1130 	mov.w	r1, r0, ror #4
 8003070:	f24d 720b 	movw	r2, #55051	; 0xd70b
 8003074:	f2c0 02a3 	movt	r2, #163	; 0xa3
 8003078:	2000      	movs	r0, #0
 800307a:	4291      	cmp	r1, r2
 800307c:	bf38      	it	cc
 800307e:	2001      	movcc	r0, #1
 8003080:	9002      	str	r0, [sp, #8]
 8003082:	e7ff      	b.n	8003084 <handlingMonth+0x8c>
 8003084:	9802      	ldr	r0, [sp, #8]
 8003086:	f000 0001 	and.w	r0, r0, #1
 800308a:	f88d 000f 	strb.w	r0, [sp, #15]
D:\#Documents\UVISION\SMART_WAKE_UP/main.c:136
 800308e:	f243 4084 	movw	r0, #13444	; 0x3484
 8003092:	f2c2 0002 	movt	r0, #8194	; 0x2002
 8003096:	7800      	ldrb	r0, [r0, #0]
 8003098:	b170      	cbz	r0, 80030b8 <handlingMonth+0xc0>
 800309a:	e7ff      	b.n	800309c <handlingMonth+0xa4>
D:\#Documents\UVISION\SMART_WAKE_UP/main.c:138
 800309c:	f243 31ca 	movw	r1, #13258	; 0x33ca
 80030a0:	f2c2 0102 	movt	r1, #8194	; 0x2002
 80030a4:	7808      	ldrb	r0, [r1, #0]
 80030a6:	3001      	adds	r0, #1
 80030a8:	7008      	strb	r0, [r1, #0]
D:\#Documents\UVISION\SMART_WAKE_UP/main.c:139
 80030aa:	f243 4184 	movw	r1, #13444	; 0x3484
 80030ae:	f2c2 0102 	movt	r1, #8194	; 0x2002
 80030b2:	2000      	movs	r0, #0
 80030b4:	7008      	strb	r0, [r1, #0]
D:\#Documents\UVISION\SMART_WAKE_UP/main.c:140
 80030b6:	e7ff      	b.n	80030b8 <handlingMonth+0xc0>
D:\#Documents\UVISION\SMART_WAKE_UP/main.c:141
 80030b8:	f243 4080 	movw	r0, #13440	; 0x3480
 80030bc:	f2c2 0002 	movt	r0, #8194	; 0x2002
 80030c0:	7800      	ldrb	r0, [r0, #0]
 80030c2:	b170      	cbz	r0, 80030e2 <handlingMonth+0xea>
 80030c4:	e7ff      	b.n	80030c6 <handlingMonth+0xce>
D:\#Documents\UVISION\SMART_WAKE_UP/main.c:143
 80030c6:	f243 31ca 	movw	r1, #13258	; 0x33ca
 80030ca:	f2c2 0102 	movt	r1, #8194	; 0x2002
 80030ce:	7808      	ldrb	r0, [r1, #0]
 80030d0:	3801      	subs	r0, #1
 80030d2:	7008      	strb	r0, [r1, #0]
D:\#Documents\UVISION\SMART_WAKE_UP/main.c:144
 80030d4:	f243 4180 	movw	r1, #13440	; 0x3480
 80030d8:	f2c2 0102 	movt	r1, #8194	; 0x2002
 80030dc:	2000      	movs	r0, #0
 80030de:	7008      	strb	r0, [r1, #0]
D:\#Documents\UVISION\SMART_WAKE_UP/main.c:145
 80030e0:	e7ff      	b.n	80030e2 <handlingMonth+0xea>
D:\#Documents\UVISION\SMART_WAKE_UP/main.c:147
 80030e2:	f243 30ca 	movw	r0, #13258	; 0x33ca
 80030e6:	f2c2 0002 	movt	r0, #8194	; 0x2002
 80030ea:	f990 0000 	ldrsb.w	r0, [r0]
 80030ee:	280d      	cmp	r0, #13
 80030f0:	db07      	blt.n	8003102 <handlingMonth+0x10a>
 80030f2:	e7ff      	b.n	80030f4 <handlingMonth+0xfc>
 80030f4:	f243 31ca 	movw	r1, #13258	; 0x33ca
 80030f8:	f2c2 0102 	movt	r1, #8194	; 0x2002
 80030fc:	2001      	movs	r0, #1
 80030fe:	7008      	strb	r0, [r1, #0]
 8003100:	e7ff      	b.n	8003102 <handlingMonth+0x10a>
D:\#Documents\UVISION\SMART_WAKE_UP/main.c:148
 8003102:	f243 30ca 	movw	r0, #13258	; 0x33ca
 8003106:	f2c2 0002 	movt	r0, #8194	; 0x2002
 800310a:	f990 0000 	ldrsb.w	r0, [r0]
 800310e:	2800      	cmp	r0, #0
 8003110:	dc07      	bgt.n	8003122 <handlingMonth+0x12a>
 8003112:	e7ff      	b.n	8003114 <handlingMonth+0x11c>
 8003114:	f243 31ca 	movw	r1, #13258	; 0x33ca
 8003118:	f2c2 0102 	movt	r1, #8194	; 0x2002
 800311c:	200c      	movs	r0, #12
 800311e:	7008      	strb	r0, [r1, #0]
 8003120:	e7ff      	b.n	8003122 <handlingMonth+0x12a>
D:\#Documents\UVISION\SMART_WAKE_UP/main.c:150
 8003122:	f243 30ca 	movw	r0, #13258	; 0x33ca
 8003126:	f2c2 0002 	movt	r0, #8194	; 0x2002
 800312a:	f990 0000 	ldrsb.w	r0, [r0]
 800312e:	2804      	cmp	r0, #4
 8003130:	d01b      	beq.n	800316a <handlingMonth+0x172>
 8003132:	e7ff      	b.n	8003134 <handlingMonth+0x13c>
 8003134:	f243 30ca 	movw	r0, #13258	; 0x33ca
 8003138:	f2c2 0002 	movt	r0, #8194	; 0x2002
 800313c:	f990 0000 	ldrsb.w	r0, [r0]
 8003140:	2806      	cmp	r0, #6
 8003142:	d012      	beq.n	800316a <handlingMonth+0x172>
 8003144:	e7ff      	b.n	8003146 <handlingMonth+0x14e>
 8003146:	f243 30ca 	movw	r0, #13258	; 0x33ca
 800314a:	f2c2 0002 	movt	r0, #8194	; 0x2002
 800314e:	f990 0000 	ldrsb.w	r0, [r0]
 8003152:	2809      	cmp	r0, #9
 8003154:	d009      	beq.n	800316a <handlingMonth+0x172>
 8003156:	e7ff      	b.n	8003158 <handlingMonth+0x160>
 8003158:	f243 30ca 	movw	r0, #13258	; 0x33ca
 800315c:	f2c2 0002 	movt	r0, #8194	; 0x2002
 8003160:	f990 0000 	ldrsb.w	r0, [r0]
 8003164:	280b      	cmp	r0, #11
 8003166:	d110      	bne.n	800318a <handlingMonth+0x192>
 8003168:	e7ff      	b.n	800316a <handlingMonth+0x172>
 800316a:	f243 30c8 	movw	r0, #13256	; 0x33c8
 800316e:	f2c2 0002 	movt	r0, #8194	; 0x2002
 8003172:	f990 0000 	ldrsb.w	r0, [r0]
 8003176:	281f      	cmp	r0, #31
 8003178:	db07      	blt.n	800318a <handlingMonth+0x192>
 800317a:	e7ff      	b.n	800317c <handlingMonth+0x184>
 800317c:	f243 31c8 	movw	r1, #13256	; 0x33c8
 8003180:	f2c2 0102 	movt	r1, #8194	; 0x2002
 8003184:	201e      	movs	r0, #30
 8003186:	7008      	strb	r0, [r1, #0]
 8003188:	e7ff      	b.n	800318a <handlingMonth+0x192>
D:\#Documents\UVISION\SMART_WAKE_UP/main.c:152
 800318a:	f243 30ca 	movw	r0, #13258	; 0x33ca
 800318e:	f2c2 0002 	movt	r0, #8194	; 0x2002
 8003192:	f990 0000 	ldrsb.w	r0, [r0]
 8003196:	2802      	cmp	r0, #2
 8003198:	d114      	bne.n	80031c4 <handlingMonth+0x1cc>
 800319a:	e7ff      	b.n	800319c <handlingMonth+0x1a4>
 800319c:	f89d 000f 	ldrb.w	r0, [sp, #15]
 80031a0:	b180      	cbz	r0, 80031c4 <handlingMonth+0x1cc>
 80031a2:	e7ff      	b.n	80031a4 <handlingMonth+0x1ac>
 80031a4:	f243 30c8 	movw	r0, #13256	; 0x33c8
 80031a8:	f2c2 0002 	movt	r0, #8194	; 0x2002
 80031ac:	f990 0000 	ldrsb.w	r0, [r0]
 80031b0:	281e      	cmp	r0, #30
 80031b2:	db07      	blt.n	80031c4 <handlingMonth+0x1cc>
 80031b4:	e7ff      	b.n	80031b6 <handlingMonth+0x1be>
 80031b6:	f243 31c8 	movw	r1, #13256	; 0x33c8
 80031ba:	f2c2 0102 	movt	r1, #8194	; 0x2002
 80031be:	201d      	movs	r0, #29
 80031c0:	7008      	strb	r0, [r1, #0]
 80031c2:	e7ff      	b.n	80031c4 <handlingMonth+0x1cc>
D:\#Documents\UVISION\SMART_WAKE_UP/main.c:153
 80031c4:	f243 30ca 	movw	r0, #13258	; 0x33ca
 80031c8:	f2c2 0002 	movt	r0, #8194	; 0x2002
 80031cc:	f990 0000 	ldrsb.w	r0, [r0]
 80031d0:	2802      	cmp	r0, #2
 80031d2:	d114      	bne.n	80031fe <handlingMonth+0x206>
 80031d4:	e7ff      	b.n	80031d6 <handlingMonth+0x1de>
 80031d6:	f89d 000f 	ldrb.w	r0, [sp, #15]
 80031da:	b980      	cbnz	r0, 80031fe <handlingMonth+0x206>
 80031dc:	e7ff      	b.n	80031de <handlingMonth+0x1e6>
 80031de:	f243 30c8 	movw	r0, #13256	; 0x33c8
 80031e2:	f2c2 0002 	movt	r0, #8194	; 0x2002
 80031e6:	f990 0000 	ldrsb.w	r0, [r0]
 80031ea:	281d      	cmp	r0, #29
 80031ec:	db07      	blt.n	80031fe <handlingMonth+0x206>
 80031ee:	e7ff      	b.n	80031f0 <handlingMonth+0x1f8>
 80031f0:	f243 31c8 	movw	r1, #13256	; 0x33c8
 80031f4:	f2c2 0102 	movt	r1, #8194	; 0x2002
 80031f8:	201c      	movs	r0, #28
 80031fa:	7008      	strb	r0, [r1, #0]
 80031fc:	e7ff      	b.n	80031fe <handlingMonth+0x206>
D:\#Documents\UVISION\SMART_WAKE_UP/main.c:155
 80031fe:	f243 30ca 	movw	r0, #13258	; 0x33ca
 8003202:	f2c2 0002 	movt	r0, #8194	; 0x2002
 8003206:	f990 0000 	ldrsb.w	r0, [r0]
 800320a:	4669      	mov	r1, sp
 800320c:	6048      	str	r0, [r1, #4]
 800320e:	f643 50f8 	movw	r0, #15864	; 0x3df8
 8003212:	f6c0 0000 	movt	r0, #2048	; 0x800
 8003216:	6008      	str	r0, [r1, #0]
 8003218:	f240 0300 	movw	r3, #0
 800321c:	f2c2 0302 	movt	r3, #8194	; 0x2002
 8003220:	2001      	movs	r0, #1
 8003222:	2100      	movs	r1, #0
 8003224:	220d      	movs	r2, #13
 8003226:	f7ff f88b 	bl	8002340 <SH1106_FontPrint>
D:\#Documents\UVISION\SMART_WAKE_UP/main.c:156
 800322a:	b004      	add	sp, #16
 800322c:	bd80      	pop	{r7, pc}
	...

08003230 <handlingYear>:
handlingYear():
D:\#Documents\UVISION\SMART_WAKE_UP/main.c:159
 8003230:	b580      	push	{r7, lr}
 8003232:	b084      	sub	sp, #16
D:\#Documents\UVISION\SMART_WAKE_UP/main.c:160
 8003234:	f243 408a 	movw	r0, #13450	; 0x348a
 8003238:	f2c2 0002 	movt	r0, #8194	; 0x2002
 800323c:	f990 0000 	ldrsb.w	r0, [r0]
 8003240:	eb00 7190 	add.w	r1, r0, r0, lsr #30
 8003244:	f021 0103 	bic.w	r1, r1, #3
 8003248:	1a40      	subs	r0, r0, r1
 800324a:	b9d8      	cbnz	r0, 8003284 <handlingYear+0x54>
 800324c:	e7ff      	b.n	800324e <handlingYear+0x1e>
 800324e:	f243 408a 	movw	r0, #13450	; 0x348a
 8003252:	f2c2 0002 	movt	r0, #8194	; 0x2002
 8003256:	f990 1000 	ldrsb.w	r1, [r0]
 800325a:	2001      	movs	r0, #1
 800325c:	f64b 0350 	movw	r3, #47184	; 0xb850
 8003260:	f2c0 531e 	movt	r3, #1310	; 0x51e
 8003264:	f645 4229 	movw	r2, #23593	; 0x5c29
 8003268:	f2cc 228f 	movt	r2, #49807	; 0xc28f
 800326c:	fb01 3102 	mla	r1, r1, r2, r3
 8003270:	ea4f 01b1 	mov.w	r1, r1, ror #2
 8003274:	f645 4228 	movw	r2, #23592	; 0x5c28
 8003278:	f2c0 228f 	movt	r2, #655	; 0x28f
 800327c:	4291      	cmp	r1, r2
 800327e:	9002      	str	r0, [sp, #8]
 8003280:	d81c      	bhi.n	80032bc <handlingYear+0x8c>
 8003282:	e7ff      	b.n	8003284 <handlingYear+0x54>
 8003284:	f243 408a 	movw	r0, #13450	; 0x348a
 8003288:	f2c2 0002 	movt	r0, #8194	; 0x2002
 800328c:	f990 0000 	ldrsb.w	r0, [r0]
 8003290:	f64b 0250 	movw	r2, #47184	; 0xb850
 8003294:	f2c0 521e 	movt	r2, #1310	; 0x51e
 8003298:	f645 4129 	movw	r1, #23593	; 0x5c29
 800329c:	f2cc 218f 	movt	r1, #49807	; 0xc28f
 80032a0:	fb00 2001 	mla	r0, r0, r1, r2
 80032a4:	ea4f 1130 	mov.w	r1, r0, ror #4
 80032a8:	f24d 720b 	movw	r2, #55051	; 0xd70b
 80032ac:	f2c0 02a3 	movt	r2, #163	; 0xa3
 80032b0:	2000      	movs	r0, #0
 80032b2:	4291      	cmp	r1, r2
 80032b4:	bf38      	it	cc
 80032b6:	2001      	movcc	r0, #1
 80032b8:	9002      	str	r0, [sp, #8]
 80032ba:	e7ff      	b.n	80032bc <handlingYear+0x8c>
 80032bc:	9802      	ldr	r0, [sp, #8]
 80032be:	f000 0001 	and.w	r0, r0, #1
 80032c2:	f88d 000f 	strb.w	r0, [sp, #15]
D:\#Documents\UVISION\SMART_WAKE_UP/main.c:162
 80032c6:	f243 4084 	movw	r0, #13444	; 0x3484
 80032ca:	f2c2 0002 	movt	r0, #8194	; 0x2002
 80032ce:	7800      	ldrb	r0, [r0, #0]
 80032d0:	b170      	cbz	r0, 80032f0 <handlingYear+0xc0>
 80032d2:	e7ff      	b.n	80032d4 <handlingYear+0xa4>
D:\#Documents\UVISION\SMART_WAKE_UP/main.c:164
 80032d4:	f243 418a 	movw	r1, #13450	; 0x348a
 80032d8:	f2c2 0102 	movt	r1, #8194	; 0x2002
 80032dc:	7808      	ldrb	r0, [r1, #0]
 80032de:	3001      	adds	r0, #1
 80032e0:	7008      	strb	r0, [r1, #0]
D:\#Documents\UVISION\SMART_WAKE_UP/main.c:165
 80032e2:	f243 4184 	movw	r1, #13444	; 0x3484
 80032e6:	f2c2 0102 	movt	r1, #8194	; 0x2002
 80032ea:	2000      	movs	r0, #0
 80032ec:	7008      	strb	r0, [r1, #0]
D:\#Documents\UVISION\SMART_WAKE_UP/main.c:166
 80032ee:	e7ff      	b.n	80032f0 <handlingYear+0xc0>
D:\#Documents\UVISION\SMART_WAKE_UP/main.c:167
 80032f0:	f243 4080 	movw	r0, #13440	; 0x3480
 80032f4:	f2c2 0002 	movt	r0, #8194	; 0x2002
 80032f8:	7800      	ldrb	r0, [r0, #0]
 80032fa:	b170      	cbz	r0, 800331a <handlingYear+0xea>
 80032fc:	e7ff      	b.n	80032fe <handlingYear+0xce>
D:\#Documents\UVISION\SMART_WAKE_UP/main.c:169
 80032fe:	f243 418a 	movw	r1, #13450	; 0x348a
 8003302:	f2c2 0102 	movt	r1, #8194	; 0x2002
 8003306:	7808      	ldrb	r0, [r1, #0]
 8003308:	3801      	subs	r0, #1
 800330a:	7008      	strb	r0, [r1, #0]
D:\#Documents\UVISION\SMART_WAKE_UP/main.c:170
 800330c:	f243 4180 	movw	r1, #13440	; 0x3480
 8003310:	f2c2 0102 	movt	r1, #8194	; 0x2002
 8003314:	2000      	movs	r0, #0
 8003316:	7008      	strb	r0, [r1, #0]
D:\#Documents\UVISION\SMART_WAKE_UP/main.c:171
 8003318:	e7ff      	b.n	800331a <handlingYear+0xea>
D:\#Documents\UVISION\SMART_WAKE_UP/main.c:173
 800331a:	f243 408a 	movw	r0, #13450	; 0x348a
 800331e:	f2c2 0002 	movt	r0, #8194	; 0x2002
 8003322:	f990 0000 	ldrsb.w	r0, [r0]
 8003326:	2864      	cmp	r0, #100	; 0x64
 8003328:	db07      	blt.n	800333a <handlingYear+0x10a>
 800332a:	e7ff      	b.n	800332c <handlingYear+0xfc>
 800332c:	f243 418a 	movw	r1, #13450	; 0x348a
 8003330:	f2c2 0102 	movt	r1, #8194	; 0x2002
 8003334:	2000      	movs	r0, #0
 8003336:	7008      	strb	r0, [r1, #0]
 8003338:	e7ff      	b.n	800333a <handlingYear+0x10a>
D:\#Documents\UVISION\SMART_WAKE_UP/main.c:174
 800333a:	f243 408a 	movw	r0, #13450	; 0x348a
 800333e:	f2c2 0002 	movt	r0, #8194	; 0x2002
 8003342:	f990 0000 	ldrsb.w	r0, [r0]
 8003346:	f1b0 3fff 	cmp.w	r0, #4294967295	; 0xffffffff
 800334a:	dc07      	bgt.n	800335c <handlingYear+0x12c>
 800334c:	e7ff      	b.n	800334e <handlingYear+0x11e>
 800334e:	f243 418a 	movw	r1, #13450	; 0x348a
 8003352:	f2c2 0102 	movt	r1, #8194	; 0x2002
 8003356:	2063      	movs	r0, #99	; 0x63
 8003358:	7008      	strb	r0, [r1, #0]
 800335a:	e7ff      	b.n	800335c <handlingYear+0x12c>
D:\#Documents\UVISION\SMART_WAKE_UP/main.c:176
 800335c:	f243 30ca 	movw	r0, #13258	; 0x33ca
 8003360:	f2c2 0002 	movt	r0, #8194	; 0x2002
 8003364:	f990 0000 	ldrsb.w	r0, [r0]
 8003368:	2802      	cmp	r0, #2
 800336a:	d114      	bne.n	8003396 <handlingYear+0x166>
 800336c:	e7ff      	b.n	800336e <handlingYear+0x13e>
 800336e:	f89d 000f 	ldrb.w	r0, [sp, #15]
 8003372:	b180      	cbz	r0, 8003396 <handlingYear+0x166>
 8003374:	e7ff      	b.n	8003376 <handlingYear+0x146>
 8003376:	f243 30c8 	movw	r0, #13256	; 0x33c8
 800337a:	f2c2 0002 	movt	r0, #8194	; 0x2002
 800337e:	f990 0000 	ldrsb.w	r0, [r0]
 8003382:	281e      	cmp	r0, #30
 8003384:	db07      	blt.n	8003396 <handlingYear+0x166>
 8003386:	e7ff      	b.n	8003388 <handlingYear+0x158>
 8003388:	f243 31c8 	movw	r1, #13256	; 0x33c8
 800338c:	f2c2 0102 	movt	r1, #8194	; 0x2002
 8003390:	201d      	movs	r0, #29
 8003392:	7008      	strb	r0, [r1, #0]
 8003394:	e7ff      	b.n	8003396 <handlingYear+0x166>
D:\#Documents\UVISION\SMART_WAKE_UP/main.c:177
 8003396:	f243 30ca 	movw	r0, #13258	; 0x33ca
 800339a:	f2c2 0002 	movt	r0, #8194	; 0x2002
 800339e:	f990 0000 	ldrsb.w	r0, [r0]
 80033a2:	2802      	cmp	r0, #2
 80033a4:	d114      	bne.n	80033d0 <handlingYear+0x1a0>
 80033a6:	e7ff      	b.n	80033a8 <handlingYear+0x178>
 80033a8:	f89d 000f 	ldrb.w	r0, [sp, #15]
 80033ac:	b980      	cbnz	r0, 80033d0 <handlingYear+0x1a0>
 80033ae:	e7ff      	b.n	80033b0 <handlingYear+0x180>
 80033b0:	f243 30c8 	movw	r0, #13256	; 0x33c8
 80033b4:	f2c2 0002 	movt	r0, #8194	; 0x2002
 80033b8:	f990 0000 	ldrsb.w	r0, [r0]
 80033bc:	281d      	cmp	r0, #29
 80033be:	db07      	blt.n	80033d0 <handlingYear+0x1a0>
 80033c0:	e7ff      	b.n	80033c2 <handlingYear+0x192>
 80033c2:	f243 31c8 	movw	r1, #13256	; 0x33c8
 80033c6:	f2c2 0102 	movt	r1, #8194	; 0x2002
 80033ca:	201c      	movs	r0, #28
 80033cc:	7008      	strb	r0, [r1, #0]
 80033ce:	e7ff      	b.n	80033d0 <handlingYear+0x1a0>
D:\#Documents\UVISION\SMART_WAKE_UP/main.c:179
 80033d0:	f243 408a 	movw	r0, #13450	; 0x348a
 80033d4:	f2c2 0002 	movt	r0, #8194	; 0x2002
 80033d8:	f990 0000 	ldrsb.w	r0, [r0]
 80033dc:	4669      	mov	r1, sp
 80033de:	6048      	str	r0, [r1, #4]
 80033e0:	f643 600b 	movw	r0, #15883	; 0x3e0b
 80033e4:	f6c0 0000 	movt	r0, #2048	; 0x800
 80033e8:	6008      	str	r0, [r1, #0]
 80033ea:	f240 0300 	movw	r3, #0
 80033ee:	f2c2 0302 	movt	r3, #8194	; 0x2002
 80033f2:	2001      	movs	r0, #1
 80033f4:	2100      	movs	r1, #0
 80033f6:	220d      	movs	r2, #13
 80033f8:	f7fe ffa2 	bl	8002340 <SH1106_FontPrint>
D:\#Documents\UVISION\SMART_WAKE_UP/main.c:180
 80033fc:	b004      	add	sp, #16
 80033fe:	bd80      	pop	{r7, pc}

08003400 <main>:
main():
D:\#Documents\UVISION\SMART_WAKE_UP/main.c:31
 8003400:	b580      	push	{r7, lr}
 8003402:	b082      	sub	sp, #8
 8003404:	2000      	movs	r0, #0
 8003406:	9001      	str	r0, [sp, #4]
D:\#Documents\UVISION\SMART_WAKE_UP/main.c:32
 8003408:	f7ff f82e 	bl	8002468 <SH1106_Init>
D:\#Documents\UVISION\SMART_WAKE_UP/main.c:33
 800340c:	f7fe f85c 	bl	80014c8 <BUTTONS_Init>
D:\#Documents\UVISION\SMART_WAKE_UP/main.c:34
 8003410:	f7fe f97a 	bl	8001708 <DS3231_Init>
 8003414:	f240 4000 	movw	r0, #1024	; 0x400
 8003418:	f2c4 0002 	movt	r0, #16386	; 0x4002
 800341c:	2107      	movs	r1, #7
 800341e:	2201      	movs	r2, #1
D:\#Documents\UVISION\SMART_WAKE_UP/main.c:35
 8003420:	f7fe fb82 	bl	8001b28 <GPIO_PinMode>
D:\#Documents\UVISION\SMART_WAKE_UP/main.c:36
 8003424:	f7fe fe54 	bl	80020d0 <SH1106_ClearBuffer>
D:\#Documents\UVISION\SMART_WAKE_UP/main.c:37
 8003428:	f7ff f882 	bl	8002530 <SH1106_SendBuffer>
D:\#Documents\UVISION\SMART_WAKE_UP/main.c:42
 800342c:	e7ff      	b.n	800342e <main+0x2e>
D:\#Documents\UVISION\SMART_WAKE_UP/main.c:44
 800342e:	f7fe fe4f 	bl	80020d0 <SH1106_ClearBuffer>
D:\#Documents\UVISION\SMART_WAKE_UP/main.c:45
 8003432:	f7fe f909 	bl	8001648 <BUTTONS_KeyState>
D:\#Documents\UVISION\SMART_WAKE_UP/main.c:46
 8003436:	f643 00a0 	movw	r0, #14496	; 0x38a0
 800343a:	f2c2 0002 	movt	r0, #8194	; 0x2002
 800343e:	7802      	ldrb	r2, [r0, #0]
 8003440:	f240 4000 	movw	r0, #1024	; 0x400
 8003444:	f2c4 0002 	movt	r0, #16386	; 0x4002
 8003448:	2107      	movs	r1, #7
 800344a:	f7fe fb49 	bl	8001ae0 <GPIO_DigitalWrite>
D:\#Documents\UVISION\SMART_WAKE_UP/main.c:47
 800344e:	f243 4083 	movw	r0, #13443	; 0x3483
 8003452:	f2c2 0002 	movt	r0, #8194	; 0x2002
 8003456:	7800      	ldrb	r0, [r0, #0]
 8003458:	4601      	mov	r1, r0
 800345a:	9100      	str	r1, [sp, #0]
 800345c:	b120      	cbz	r0, 8003468 <main+0x68>
 800345e:	e7ff      	b.n	8003460 <main+0x60>
 8003460:	9800      	ldr	r0, [sp, #0]
 8003462:	2801      	cmp	r0, #1
 8003464:	d005      	beq.n	8003472 <main+0x72>
 8003466:	e007      	b.n	8003478 <main+0x78>
D:\#Documents\UVISION\SMART_WAKE_UP/main.c:50
 8003468:	f7fe fd32 	bl	8001ed0 <MAIN_Initialization>
D:\#Documents\UVISION\SMART_WAKE_UP/main.c:51
 800346c:	f7fe fc48 	bl	8001d00 <MAIN_DisplayDate>
D:\#Documents\UVISION\SMART_WAKE_UP/main.c:52
 8003470:	e002      	b.n	8003478 <main+0x78>
D:\#Documents\UVISION\SMART_WAKE_UP/main.c:54
 8003472:	f7fe fd8d 	bl	8001f90 <MAIN_Settings>
D:\#Documents\UVISION\SMART_WAKE_UP/main.c:55
 8003476:	e7ff      	b.n	8003478 <main+0x78>
D:\#Documents\UVISION\SMART_WAKE_UP/main.c:57
 8003478:	f643 01a0 	movw	r1, #14496	; 0x38a0
 800347c:	f2c2 0102 	movt	r1, #8194	; 0x2002
 8003480:	7808      	ldrb	r0, [r1, #0]
 8003482:	f080 0001 	eor.w	r0, r0, #1
 8003486:	7008      	strb	r0, [r1, #0]
D:\#Documents\UVISION\SMART_WAKE_UP/main.c:58
 8003488:	f7ff f852 	bl	8002530 <SH1106_SendBuffer>
D:\#Documents\UVISION\SMART_WAKE_UP/main.c:42
 800348c:	e7cf      	b.n	800342e <main+0x2e>

0800348e <_btod_d2e>:
_btod_d2e():
 800348e:	ea5f 0c40 	movs.w	ip, r0, lsl #1
 8003492:	bf08      	it	eq
 8003494:	f091 0f00 	teqeq	r1, #0
 8003498:	ea4f 238c 	mov.w	r3, ip, lsl #10
 800349c:	ea4f 22c1 	mov.w	r2, r1, lsl #11
 80034a0:	ea43 5151 	orr.w	r1, r3, r1, lsr #21
 80034a4:	ea4f 501c 	mov.w	r0, ip, lsr #20
 80034a8:	bf18      	it	ne
 80034aa:	f500 40f0 	addne.w	r0, r0, #30720	; 0x7800
 80034ae:	ea4f 0030 	mov.w	r0, r0, rrx
 80034b2:	bf18      	it	ne
 80034b4:	f041 4100 	orrne.w	r1, r1, #2147483648	; 0x80000000
 80034b8:	ea5f 5c6c 	movs.w	ip, ip, asr #21
 80034bc:	f000 8029 	beq.w	8003512 <_d2e_norm_op1>
 80034c0:	f1bc 3fff 	cmp.w	ip, #4294967295	; 0xffffffff
 80034c4:	bf08      	it	eq
 80034c6:	f040 4080 	orreq.w	r0, r0, #1073741824	; 0x40000000
 80034ca:	4770      	bx	lr

080034cc <_d2e_denorm_low>:
_d2e_denorm_low():
 80034cc:	0c13      	lsrs	r3, r2, #16
 80034ce:	bf06      	itte	eq
 80034d0:	0412      	lsleq	r2, r2, #16
 80034d2:	f04f 0c10 	moveq.w	ip, #16
 80034d6:	f04f 0c00 	movne.w	ip, #0
 80034da:	0e13      	lsrs	r3, r2, #24
 80034dc:	bf04      	itt	eq
 80034de:	0212      	lsleq	r2, r2, #8
 80034e0:	f10c 0c08 	addeq.w	ip, ip, #8
 80034e4:	0f13      	lsrs	r3, r2, #28
 80034e6:	bf04      	itt	eq
 80034e8:	0112      	lsleq	r2, r2, #4
 80034ea:	f10c 0c04 	addeq.w	ip, ip, #4
 80034ee:	0f93      	lsrs	r3, r2, #30
 80034f0:	bf04      	itt	eq
 80034f2:	0092      	lsleq	r2, r2, #2
 80034f4:	f10c 0c02 	addeq.w	ip, ip, #2
 80034f8:	0fd3      	lsrs	r3, r2, #31
 80034fa:	bf04      	itt	eq
 80034fc:	0052      	lsleq	r2, r2, #1
 80034fe:	f10c 0c01 	addeq.w	ip, ip, #1
 8003502:	4611      	mov	r1, r2
 8003504:	f04f 0200 	mov.w	r2, #0
 8003508:	f1a0 001f 	sub.w	r0, r0, #31
 800350c:	eba0 000c 	sub.w	r0, r0, ip
 8003510:	4770      	bx	lr

08003512 <_d2e_norm_op1>:
_d2e_norm_op1():
 8003512:	f011 4f00 	tst.w	r1, #2147483648	; 0x80000000
 8003516:	bf08      	it	eq
 8003518:	4770      	bxeq	lr
 800351a:	f031 4100 	bics.w	r1, r1, #2147483648	; 0x80000000
 800351e:	f43f afd5 	beq.w	80034cc <_d2e_denorm_low>
 8003522:	0c0b      	lsrs	r3, r1, #16
 8003524:	bf06      	itte	eq
 8003526:	0409      	lsleq	r1, r1, #16
 8003528:	f04f 0c10 	moveq.w	ip, #16
 800352c:	f04f 0c00 	movne.w	ip, #0
 8003530:	0e0b      	lsrs	r3, r1, #24
 8003532:	bf04      	itt	eq
 8003534:	0209      	lsleq	r1, r1, #8
 8003536:	f10c 0c08 	addeq.w	ip, ip, #8
 800353a:	0f0b      	lsrs	r3, r1, #28
 800353c:	bf04      	itt	eq
 800353e:	0109      	lsleq	r1, r1, #4
 8003540:	f10c 0c04 	addeq.w	ip, ip, #4
 8003544:	0f8b      	lsrs	r3, r1, #30
 8003546:	bf04      	itt	eq
 8003548:	0089      	lsleq	r1, r1, #2
 800354a:	f10c 0c02 	addeq.w	ip, ip, #2
 800354e:	0fcb      	lsrs	r3, r1, #31
 8003550:	bf04      	itt	eq
 8003552:	0049      	lsleq	r1, r1, #1
 8003554:	f10c 0c01 	addeq.w	ip, ip, #1
 8003558:	f1cc 0320 	rsb	r3, ip, #32
 800355c:	fa22 f303 	lsr.w	r3, r2, r3
 8003560:	ea41 0103 	orr.w	r1, r1, r3
 8003564:	fa02 f20c 	lsl.w	r2, r2, ip
 8003568:	eba0 000c 	sub.w	r0, r0, ip
 800356c:	f100 0001 	add.w	r0, r0, #1
 8003570:	4770      	bx	lr
	...

08003574 <__btod_div_common>:
__btod_div_common():
 8003574:	f023 477f 	bic.w	r7, r3, #4278190080	; 0xff000000
 8003578:	f020 4c7f 	bic.w	ip, r0, #4278190080	; 0xff000000
 800357c:	ea80 0003 	eor.w	r0, r0, r3
 8003580:	f000 4000 	and.w	r0, r0, #2147483648	; 0x80000000
 8003584:	ebac 0307 	sub.w	r3, ip, r7
 8003588:	f503 537c 	add.w	r3, r3, #16128	; 0x3f00
 800358c:	f103 03ff 	add.w	r3, r3, #255	; 0xff
 8003590:	e92d 4980 	stmdb	sp!, {r7, r8, fp, lr}
 8003594:	b409      	push	{r0, r3}
 8003596:	ea4f 4314 	mov.w	r3, r4, lsr #16
 800359a:	ea24 4803 	bic.w	r8, r4, r3, lsl #16
 800359e:	ea4f 4b15 	mov.w	fp, r5, lsr #16
 80035a2:	ea25 4e0b 	bic.w	lr, r5, fp, lsl #16
 80035a6:	f20f 2604 	addw	r6, pc, #516	; 0x204
 80035aa:	eb06 2713 	add.w	r7, r6, r3, lsr #8
 80035ae:	783e      	ldrb	r6, [r7, #0]
 80035b0:	fb03 6706 	mla	r7, r3, r6, r6
 80035b4:	f5c7 0700 	rsb	r7, r7, #8388608	; 0x800000
 80035b8:	fb07 f606 	mul.w	r6, r7, r6
 80035bc:	ea4f 46d6 	mov.w	r6, r6, lsr #19
 80035c0:	f106 0602 	add.w	r6, r6, #2
 80035c4:	ea4f 3754 	mov.w	r7, r4, lsr #13
 80035c8:	fb07 6c06 	mla	ip, r7, r6, r6
 80035cc:	f1cc 5c00 	rsb	ip, ip, #536870912	; 0x20000000
 80035d0:	ea4f 471c 	mov.w	r7, ip, lsr #16
 80035d4:	ea2c 4c07 	bic.w	ip, ip, r7, lsl #16
 80035d8:	fb0c f506 	mul.w	r5, ip, r6
 80035dc:	fb07 f406 	mul.w	r4, r7, r6
 80035e0:	eb04 4615 	add.w	r6, r4, r5, lsr #16
 80035e4:	ea4f 1696 	mov.w	r6, r6, lsr #6
 80035e8:	0849      	lsrs	r1, r1, #1
 80035ea:	ea5f 0232 	movs.w	r2, r2, rrx
 80035ee:	bf34      	ite	cc
 80035f0:	2000      	movcc	r0, #0
 80035f2:	f04f 4000 	movcs.w	r0, #2147483648	; 0x80000000
 80035f6:	ea4f 37d1 	mov.w	r7, r1, lsr #15
 80035fa:	fb06 fc07 	mul.w	ip, r6, r7
 80035fe:	ea4f 4c1c 	mov.w	ip, ip, lsr #16
 8003602:	fb0c f70b 	mul.w	r7, ip, fp
 8003606:	1bd2      	subs	r2, r2, r7
 8003608:	fb03 f70c 	mul.w	r7, r3, ip
 800360c:	eb61 0107 	sbc.w	r1, r1, r7
 8003610:	fb0c f70e 	mul.w	r7, ip, lr
 8003614:	ebb0 4007 	subs.w	r0, r0, r7, lsl #16
 8003618:	eb72 4217 	sbcs.w	r2, r2, r7, lsr #16
 800361c:	fb0c f708 	mul.w	r7, ip, r8
 8003620:	bf34      	ite	cc
 8003622:	eba2 4207 	subcc.w	r2, r2, r7, lsl #16
 8003626:	ebb2 4207 	subscs.w	r2, r2, r7, lsl #16
 800362a:	eb61 4117 	sbc.w	r1, r1, r7, lsr #16
 800362e:	ea4f 440c 	mov.w	r4, ip, lsl #16
 8003632:	ea4f 0791 	mov.w	r7, r1, lsr #2
 8003636:	fb06 fc07 	mul.w	ip, r6, r7
 800363a:	ea4f 4c1c 	mov.w	ip, ip, lsr #16
 800363e:	fb0c f70b 	mul.w	r7, ip, fp
 8003642:	ebb0 40c7 	subs.w	r0, r0, r7, lsl #19
 8003646:	eb72 3257 	sbcs.w	r2, r2, r7, lsr #13
 800364a:	fb03 f70c 	mul.w	r7, r3, ip
 800364e:	bf34      	ite	cc
 8003650:	eba2 42c7 	subcc.w	r2, r2, r7, lsl #19
 8003654:	ebb2 42c7 	subscs.w	r2, r2, r7, lsl #19
 8003658:	eb61 3157 	sbc.w	r1, r1, r7, lsr #13
 800365c:	fb0c f70e 	mul.w	r7, ip, lr
 8003660:	ebb0 00c7 	subs.w	r0, r0, r7, lsl #3
 8003664:	eb72 7257 	sbcs.w	r2, r2, r7, lsr #29
 8003668:	fb0c f708 	mul.w	r7, ip, r8
 800366c:	bf34      	ite	cc
 800366e:	eba2 02c7 	subcc.w	r2, r2, r7, lsl #3
 8003672:	ebb2 02c7 	subscs.w	r2, r2, r7, lsl #3
 8003676:	eb61 7157 	sbc.w	r1, r1, r7, lsr #29
 800367a:	ea4f 6181 	mov.w	r1, r1, lsl #26
 800367e:	ea41 1192 	orr.w	r1, r1, r2, lsr #6
 8003682:	ea4f 6282 	mov.w	r2, r2, lsl #26
 8003686:	ea42 1290 	orr.w	r2, r2, r0, lsr #6
 800368a:	ea4f 6080 	mov.w	r0, r0, lsl #26
 800368e:	eb04 04cc 	add.w	r4, r4, ip, lsl #3
 8003692:	9f03      	ldr	r7, [sp, #12]
 8003694:	ea4f 37d1 	mov.w	r7, r1, lsr #15
 8003698:	fb06 fc07 	mul.w	ip, r6, r7
 800369c:	ea4f 4c1c 	mov.w	ip, ip, lsr #16
 80036a0:	fb0c f70b 	mul.w	r7, ip, fp
 80036a4:	1bd2      	subs	r2, r2, r7
 80036a6:	fb03 f70c 	mul.w	r7, r3, ip
 80036aa:	eb61 0107 	sbc.w	r1, r1, r7
 80036ae:	fb0c f70e 	mul.w	r7, ip, lr
 80036b2:	ebb0 4007 	subs.w	r0, r0, r7, lsl #16
 80036b6:	eb72 4217 	sbcs.w	r2, r2, r7, lsr #16
 80036ba:	fb0c f708 	mul.w	r7, ip, r8
 80036be:	bf34      	ite	cc
 80036c0:	eba2 4207 	subcc.w	r2, r2, r7, lsl #16
 80036c4:	ebb2 4207 	subscs.w	r2, r2, r7, lsl #16
 80036c8:	eb61 4117 	sbc.w	r1, r1, r7, lsr #16
 80036cc:	ea4f 558c 	mov.w	r5, ip, lsl #22
 80036d0:	eb04 249c 	add.w	r4, r4, ip, lsr #10
 80036d4:	ea4f 0791 	mov.w	r7, r1, lsr #2
 80036d8:	fb06 fc07 	mul.w	ip, r6, r7
 80036dc:	ea4f 4c1c 	mov.w	ip, ip, lsr #16
 80036e0:	fb0c f70b 	mul.w	r7, ip, fp
 80036e4:	ebb0 40c7 	subs.w	r0, r0, r7, lsl #19
 80036e8:	eb72 3257 	sbcs.w	r2, r2, r7, lsr #13
 80036ec:	fb03 f70c 	mul.w	r7, r3, ip
 80036f0:	bf34      	ite	cc
 80036f2:	eba2 42c7 	subcc.w	r2, r2, r7, lsl #19
 80036f6:	ebb2 42c7 	subscs.w	r2, r2, r7, lsl #19
 80036fa:	eb61 3157 	sbc.w	r1, r1, r7, lsr #13
 80036fe:	fb0c f70e 	mul.w	r7, ip, lr
 8003702:	ebb0 00c7 	subs.w	r0, r0, r7, lsl #3
 8003706:	eb72 7257 	sbcs.w	r2, r2, r7, lsr #29
 800370a:	fb0c f708 	mul.w	r7, ip, r8
 800370e:	bf34      	ite	cc
 8003710:	eba2 02c7 	subcc.w	r2, r2, r7, lsl #3
 8003714:	ebb2 02c7 	subscs.w	r2, r2, r7, lsl #3
 8003718:	eb61 7157 	sbc.w	r1, r1, r7, lsr #29
 800371c:	ea4f 6181 	mov.w	r1, r1, lsl #26
 8003720:	ea41 1192 	orr.w	r1, r1, r2, lsr #6
 8003724:	ea4f 6282 	mov.w	r2, r2, lsl #26
 8003728:	ea42 1290 	orr.w	r2, r2, r0, lsr #6
 800372c:	ea4f 6080 	mov.w	r0, r0, lsl #26
 8003730:	eb15 254c 	adds.w	r5, r5, ip, lsl #9
 8003734:	f144 0400 	adc.w	r4, r4, #0
 8003738:	ea4f 37d1 	mov.w	r7, r1, lsr #15
 800373c:	fb06 fc07 	mul.w	ip, r6, r7
 8003740:	ea4f 4c1c 	mov.w	ip, ip, lsr #16
 8003744:	fb0c f70b 	mul.w	r7, ip, fp
 8003748:	1bd2      	subs	r2, r2, r7
 800374a:	fb03 f70c 	mul.w	r7, r3, ip
 800374e:	eb61 0107 	sbc.w	r1, r1, r7
 8003752:	fb0c f70e 	mul.w	r7, ip, lr
 8003756:	ebb0 4007 	subs.w	r0, r0, r7, lsl #16
 800375a:	eb72 4217 	sbcs.w	r2, r2, r7, lsr #16
 800375e:	fb0c f708 	mul.w	r7, ip, r8
 8003762:	bf34      	ite	cc
 8003764:	eba2 4207 	subcc.w	r2, r2, r7, lsl #16
 8003768:	ebb2 4207 	subscs.w	r2, r2, r7, lsl #16
 800376c:	eb61 4117 	sbc.w	r1, r1, r7, lsr #16
 8003770:	ea4f 3181 	mov.w	r1, r1, lsl #14
 8003774:	ea41 4192 	orr.w	r1, r1, r2, lsr #18
 8003778:	ea4f 3282 	mov.w	r2, r2, lsl #14
 800377c:	ea42 4290 	orr.w	r2, r2, r0, lsr #18
 8003780:	ea4f 3080 	mov.w	r0, r0, lsl #14
 8003784:	ea4f 760c 	mov.w	r6, ip, lsl #28
 8003788:	eb15 151c 	adds.w	r5, r5, ip, lsr #4
 800378c:	f144 0400 	adc.w	r4, r4, #0
 8003790:	ea48 4303 	orr.w	r3, r8, r3, lsl #16
 8003794:	ea4e 480b 	orr.w	r8, lr, fp, lsl #16
 8003798:	f04f 0e00 	mov.w	lr, #0
 800379c:	ebb2 0c08 	subs.w	ip, r2, r8
 80037a0:	eb71 0703 	sbcs.w	r7, r1, r3
 80037a4:	bf24      	itt	cs
 80037a6:	4662      	movcs	r2, ip
 80037a8:	4639      	movcs	r1, r7
 80037aa:	eb4e 0e0e 	adc.w	lr, lr, lr
 80037ae:	f04f 0b00 	mov.w	fp, #0
 80037b2:	1800      	adds	r0, r0, r0
 80037b4:	4152      	adcs	r2, r2
 80037b6:	4149      	adcs	r1, r1
 80037b8:	eb4b 0b0b 	adc.w	fp, fp, fp
 80037bc:	ebb2 0c08 	subs.w	ip, r2, r8
 80037c0:	eb71 0703 	sbcs.w	r7, r1, r3
 80037c4:	f17b 0b00 	sbcs.w	fp, fp, #0
 80037c8:	bf24      	itt	cs
 80037ca:	4662      	movcs	r2, ip
 80037cc:	4639      	movcs	r1, r7
 80037ce:	eb4e 0e0e 	adc.w	lr, lr, lr
 80037d2:	f04f 0b00 	mov.w	fp, #0
 80037d6:	1800      	adds	r0, r0, r0
 80037d8:	4152      	adcs	r2, r2
 80037da:	4149      	adcs	r1, r1
 80037dc:	eb4b 0b0b 	adc.w	fp, fp, fp
 80037e0:	ebb2 0c08 	subs.w	ip, r2, r8
 80037e4:	eb71 0703 	sbcs.w	r7, r1, r3
 80037e8:	f17b 0b00 	sbcs.w	fp, fp, #0
 80037ec:	bf24      	itt	cs
 80037ee:	4662      	movcs	r2, ip
 80037f0:	4639      	movcs	r1, r7
 80037f2:	eb4e 0e0e 	adc.w	lr, lr, lr
 80037f6:	ea51 0702 	orrs.w	r7, r1, r2
 80037fa:	bf18      	it	ne
 80037fc:	f046 0601 	orrne.w	r6, r6, #1
 8003800:	eb16 760e 	adds.w	r6, r6, lr, lsl #28
 8003804:	f155 0200 	adcs.w	r2, r5, #0
 8003808:	f154 0100 	adcs.w	r1, r4, #0
 800380c:	d503      	bpl.n	8003816 <__btod_div_common+0x2a2>
 800380e:	e8bd 0189 	ldmia.w	sp!, {r0, r3, r7, r8}
 8003812:	e8bd 8800 	ldmia.w	sp!, {fp, pc}
 8003816:	e8bd 0189 	ldmia.w	sp!, {r0, r3, r7, r8}
 800381a:	e8bd 4800 	ldmia.w	sp!, {fp, lr}
 800381e:	19b6      	adds	r6, r6, r6
 8003820:	4152      	adcs	r2, r2
 8003822:	eb41 0101 	adc.w	r1, r1, r1
 8003826:	f1a3 0301 	sub.w	r3, r3, #1
 800382a:	4770      	bx	lr
 800382c:	7e7f8080 	cdpvc	0, 7, cr8, cr15, cr0, {4}
 8003830:	7a7b7c7d 	bvc	9ee2a2c <__lcctype_c_end+0x1ede9ec>
 8003834:	76777879 			; <UNDEFINED> instruction: 0x76777879
 8003838:	73747576 	cmnvc	r4, #494927872	; 0x1d800000
 800383c:	70717172 	rsbsvc	r7, r1, r2, ror r1
 8003840:	6d6e6e6f 	stclvs	14, cr6, [lr, #-444]!	; 0xfffffe44
 8003844:	6a6b6c6c 	bvs	9ade9fc <__lcctype_c_end+0x1ada9bc>
 8003848:	6868696a 	stmdavs	r8!, {r1, r3, r5, r6, r8, fp, sp, lr}^
 800384c:	65666667 	strbvs	r6, [r6, #-1639]!	; 0xfffff999
 8003850:	63636464 	cmnvs	r3, #100, 8	; 0x64000000
 8003854:	60616162 	rsbvs	r6, r1, r2, ror #2
 8003858:	5e5f5f60 	cdppl	15, 5, cr5, cr15, cr0, {3}
 800385c:	5c5d5d5e 	mrrcpl	13, 5, r5, sp, cr14
 8003860:	5a5b5b5c 	bpl	96da5d8 <__lcctype_c_end+0x16d6598>
 8003864:	5859595a 	ldmdapl	r9, {r1, r3, r4, r6, r8, fp, ip, lr}^
 8003868:	56575758 			; <UNDEFINED> instruction: 0x56575758
 800386c:	55555556 	ldrbpl	r5, [r5, #-1366]	; 0xfffffaaa
 8003870:	53535454 	cmppl	r3, #84, 8	; 0x54000000
 8003874:	51525252 	cmppl	r2, r2, asr r2
 8003878:	50505051 	subspl	r5, r0, r1, asr r0
 800387c:	4e4f4f4f 	cdpmi	15, 4, cr4, cr15, cr15, {2}
 8003880:	4d4d4d4e 	stclmi	13, cr4, [sp, #-312]	; 0xfffffec8
 8003884:	4b4c4c4c 	blmi	93169bc <__lcctype_c_end+0x131297c>
 8003888:	4a4a4b4b 	bmi	92965bc <__lcctype_c_end+0x129257c>
 800388c:	4949494a 	stmdbmi	r9, {r1, r3, r6, r8, fp, lr}^
 8003890:	47484848 	strbmi	r4, [r8, -r8, asr #16]
 8003894:	46474747 	strbmi	r4, [r7], -r7, asr #14
 8003898:	45454646 	strbmi	r4, [r5, #-1606]	; 0xfffff9ba
 800389c:	44444445 	strbmi	r4, [r4], #-1093	; 0xfffffbbb
 80038a0:	43434344 	movtmi	r4, #13124	; 0x3344
 80038a4:	42424243 	submi	r4, r2, #805306372	; 0x30000004
 80038a8:	41414142 	cmpmi	r1, r2, asr #2

080038ac <_e2e>:
_e2e():
 80038ac:	469c      	mov	ip, r3
 80038ae:	2b00      	cmp	r3, #0
 80038b0:	d430      	bmi.n	8003914 <_e2e+0x68>
 80038b2:	0077      	lsls	r7, r6, #1
 80038b4:	d02b      	beq.n	800390e <_e2e+0x62>
 80038b6:	ea4f 0737 	mov.w	r7, r7, rrx
 80038ba:	b51c      	push	{r2, r3, r4, lr}
 80038bc:	b403      	push	{r0, r1}
 80038be:	f04f 0010 	mov.w	r0, #16
 80038c2:	f04f 0110 	mov.w	r1, #16
 80038c6:	f1ba 0f00 	cmp.w	sl, #0
 80038ca:	d006      	beq.n	80038da <_e2e+0x2e>
 80038cc:	f1bc 0f00 	cmp.w	ip, #0
 80038d0:	bfdc      	itt	le
 80038d2:	f040 0008 	orrle.w	r0, r0, #8
 80038d6:	f040 0108 	orrle.w	r1, r0, #8
 80038da:	f04f 0000 	mov.w	r0, #0
 80038de:	bc0f      	pop	{r0, r1, r2, r3}
 80038e0:	e8bd 4010 	ldmia.w	sp!, {r4, lr}
 80038e4:	f10b 0b01 	add.w	fp, fp, #1
 80038e8:	f1bb 0f01 	cmp.w	fp, #1
 80038ec:	bf08      	it	eq
 80038ee:	ea5f 0717 	movseq.w	r7, r7, lsr #32
 80038f2:	bf22      	ittt	cs
 80038f4:	f112 0201 	addscs.w	r2, r2, #1
 80038f8:	f111 0101 	addscs.w	r1, r1, #1
 80038fc:	f04f 4100 	movcs.w	r1, #2147483648	; 0x80000000
 8003900:	f143 0300 	adc.w	r3, r3, #0
 8003904:	f000 4000 	and.w	r0, r0, #2147483648	; 0x80000000
 8003908:	ea43 0000 	orr.w	r0, r3, r0
 800390c:	4770      	bx	lr
 800390e:	d3f9      	bcc.n	8003904 <_e2e+0x58>
 8003910:	0857      	lsrs	r7, r2, #1
 8003912:	e7d0      	b.n	80038b6 <_e2e+0xa>
 8003914:	ea46 4606 	orr.w	r6, r6, r6, lsl #16
 8003918:	ea4f 4616 	mov.w	r6, r6, lsr #16
 800391c:	f113 0f40 	cmn.w	r3, #64	; 0x40
 8003920:	dd1f      	ble.n	8003962 <_e2e+0xb6>
 8003922:	f113 0f20 	cmn.w	r3, #32
 8003926:	bfdf      	itttt	le
 8003928:	4316      	orrle	r6, r2
 800392a:	460a      	movle	r2, r1
 800392c:	2100      	movle	r1, #0
 800392e:	3320      	addle	r3, #32
 8003930:	425b      	negs	r3, r3
 8003932:	d0be      	beq.n	80038b2 <_e2e+0x6>
 8003934:	f1c3 0720 	rsb	r7, r3, #32
 8003938:	ea46 4606 	orr.w	r6, r6, r6, lsl #16
 800393c:	ea4f 4616 	mov.w	r6, r6, lsr #16
 8003940:	fa02 f707 	lsl.w	r7, r2, r7
 8003944:	ea46 0607 	orr.w	r6, r6, r7
 8003948:	fa22 f203 	lsr.w	r2, r2, r3
 800394c:	f1c3 0720 	rsb	r7, r3, #32
 8003950:	fa01 f707 	lsl.w	r7, r1, r7
 8003954:	ea42 0207 	orr.w	r2, r2, r7
 8003958:	fa21 f103 	lsr.w	r1, r1, r3
 800395c:	f04f 0300 	mov.w	r3, #0
 8003960:	e7a7      	b.n	80038b2 <_e2e+0x6>
 8003962:	ea46 0602 	orr.w	r6, r6, r2
 8003966:	ea46 4606 	orr.w	r6, r6, r6, lsl #16
 800396a:	ea4f 4616 	mov.w	r6, r6, lsr #16
 800396e:	ea46 0601 	orr.w	r6, r6, r1
 8003972:	bfbc      	itt	lt
 8003974:	ea46 4606 	orrlt.w	r6, r6, r6, lsl #16
 8003978:	0c36      	lsrlt	r6, r6, #16
 800397a:	f04f 0300 	mov.w	r3, #0
 800397e:	f04f 0200 	mov.w	r2, #0
 8003982:	f04f 0100 	mov.w	r1, #0
 8003986:	e794      	b.n	80038b2 <_e2e+0x6>

08003988 <_btod_ediv>:
_btod_ediv():
 8003988:	e92d 4c80 	stmdb	sp!, {r7, sl, fp, lr}
 800398c:	b470      	push	{r4, r5, r6}
 800398e:	469a      	mov	sl, r3
 8003990:	4693      	mov	fp, r2
 8003992:	e891 0038 	ldmia.w	r1, {r3, r4, r5}
 8003996:	c807      	ldmia	r0, {r0, r1, r2}
 8003998:	ea31 0c40 	bics.w	ip, r1, r0, lsl #1
 800399c:	bf48      	it	mi
 800399e:	ea34 0c43 	bicsmi.w	ip, r4, r3, lsl #1
 80039a2:	d503      	bpl.n	80039ac <_btod_ediv+0x24>
 80039a4:	f7ff fde6 	bl	8003574 <__btod_div_common>
 80039a8:	f7ff ff80 	bl	80038ac <_e2e>
 80039ac:	bcf0      	pop	{r4, r5, r6, r7}
 80039ae:	e8bd 8c00 	ldmia.w	sp!, {sl, fp, pc}

080039b2 <_btod_emul>:
_btod_emul():
 80039b2:	e92d 4c80 	stmdb	sp!, {r7, sl, fp, lr}
 80039b6:	b470      	push	{r4, r5, r6}
 80039b8:	469a      	mov	sl, r3
 80039ba:	4693      	mov	fp, r2
 80039bc:	e891 0038 	ldmia.w	r1, {r3, r4, r5}
 80039c0:	c807      	ldmia	r0, {r0, r1, r2}
 80039c2:	f010 4f80 	tst.w	r0, #1073741824	; 0x40000000
 80039c6:	bf08      	it	eq
 80039c8:	f013 4f80 	tsteq.w	r3, #1073741824	; 0x40000000
 80039cc:	d103      	bne.n	80039d6 <_btod_emul+0x24>
 80039ce:	f000 f805 	bl	80039dc <__btod_mult_common>
 80039d2:	f7ff ff6b 	bl	80038ac <_e2e>
 80039d6:	bcf0      	pop	{r4, r5, r6, r7}
 80039d8:	e8bd 8c00 	ldmia.w	sp!, {sl, fp, pc}

080039dc <__btod_mult_common>:
__btod_mult_common():
 80039dc:	f020 477f 	bic.w	r7, r0, #4278190080	; 0xff000000
 80039e0:	f023 4c7f 	bic.w	ip, r3, #4278190080	; 0xff000000
 80039e4:	ea80 0003 	eor.w	r0, r0, r3
 80039e8:	f000 4000 	and.w	r0, r0, #2147483648	; 0x80000000
 80039ec:	eb07 030c 	add.w	r3, r7, ip
 80039f0:	f5a3 537c 	sub.w	r3, r3, #16128	; 0x3f00
 80039f4:	f1a3 03fe 	sub.w	r3, r3, #254	; 0xfe
 80039f8:	f092 0f00 	teq	r2, #0
 80039fc:	f000 80b3 	beq.w	8003b66 <__btod_mult_common+0x18a>
 8003a00:	f095 0f00 	teq	r5, #0
 8003a04:	f000 8077 	beq.w	8003af6 <__btod_mult_common+0x11a>
 8003a08:	e92d 4901 	stmdb	sp!, {r0, r8, fp, lr}
 8003a0c:	ea4f 4011 	mov.w	r0, r1, lsr #16
 8003a10:	ea21 4800 	bic.w	r8, r1, r0, lsl #16
 8003a14:	ea4f 4614 	mov.w	r6, r4, lsr #16
 8003a18:	ea24 4706 	bic.w	r7, r4, r6, lsl #16
 8003a1c:	fb00 fc06 	mul.w	ip, r0, r6
 8003a20:	fb08 f606 	mul.w	r6, r8, r6
 8003a24:	fb07 f808 	mul.w	r8, r7, r8
 8003a28:	eb18 4806 	adds.w	r8, r8, r6, lsl #16
 8003a2c:	eb4c 4c16 	adc.w	ip, ip, r6, lsr #16
 8003a30:	fb00 f707 	mul.w	r7, r0, r7
 8003a34:	eb18 4807 	adds.w	r8, r8, r7, lsl #16
 8003a38:	eb4c 4017 	adc.w	r0, ip, r7, lsr #16
 8003a3c:	ea4f 4b12 	mov.w	fp, r2, lsr #16
 8003a40:	ea22 4e0b 	bic.w	lr, r2, fp, lsl #16
 8003a44:	ea4f 4615 	mov.w	r6, r5, lsr #16
 8003a48:	ea25 4706 	bic.w	r7, r5, r6, lsl #16
 8003a4c:	fb0b fc06 	mul.w	ip, fp, r6
 8003a50:	fb0e f606 	mul.w	r6, lr, r6
 8003a54:	fb07 fe0e 	mul.w	lr, r7, lr
 8003a58:	eb1e 4e06 	adds.w	lr, lr, r6, lsl #16
 8003a5c:	eb4c 4c16 	adc.w	ip, ip, r6, lsr #16
 8003a60:	fb0b f707 	mul.w	r7, fp, r7
 8003a64:	eb1e 4e07 	adds.w	lr, lr, r7, lsl #16
 8003a68:	eb4c 4b17 	adc.w	fp, ip, r7, lsr #16
 8003a6c:	eb18 080b 	adds.w	r8, r8, fp
 8003a70:	f140 0000 	adc.w	r0, r0, #0
 8003a74:	eb18 0b0e 	adds.w	fp, r8, lr
 8003a78:	eb58 0800 	adcs.w	r8, r8, r0
 8003a7c:	f140 0000 	adc.w	r0, r0, #0
 8003a80:	1a8f      	subs	r7, r1, r2
 8003a82:	f04f 0100 	mov.w	r1, #0
 8003a86:	f04f 0600 	mov.w	r6, #0
 8003a8a:	bf3c      	itt	cc
 8003a8c:	43c9      	mvncc	r1, r1
 8003a8e:	1b66      	subcc	r6, r4, r5
 8003a90:	bf14      	ite	ne
 8003a92:	ebb5 0c04 	subsne.w	ip, r5, r4
 8003a96:	2100      	moveq	r1, #0
 8003a98:	bf3c      	itt	cc
 8003a9a:	43c9      	mvncc	r1, r1
 8003a9c:	1bf6      	subcc	r6, r6, r7
 8003a9e:	ea4f 4417 	mov.w	r4, r7, lsr #16
 8003aa2:	ea27 4504 	bic.w	r5, r7, r4, lsl #16
 8003aa6:	ea4f 471c 	mov.w	r7, ip, lsr #16
 8003aaa:	ea2c 4c07 	bic.w	ip, ip, r7, lsl #16
 8003aae:	fb04 6207 	mla	r2, r4, r7, r6
 8003ab2:	fb05 f707 	mul.w	r7, r5, r7
 8003ab6:	fb0c f605 	mul.w	r6, ip, r5
 8003aba:	eb16 4607 	adds.w	r6, r6, r7, lsl #16
 8003abe:	eb42 4217 	adc.w	r2, r2, r7, lsr #16
 8003ac2:	fb04 fc0c 	mul.w	ip, r4, ip
 8003ac6:	eb16 460c 	adds.w	r6, r6, ip, lsl #16
 8003aca:	eb42 421c 	adc.w	r2, r2, ip, lsr #16
 8003ace:	eb1b 0606 	adds.w	r6, fp, r6
 8003ad2:	eb58 0202 	adcs.w	r2, r8, r2
 8003ad6:	4141      	adcs	r1, r0
 8003ad8:	ea4e 0e8e 	orr.w	lr, lr, lr, lsl #2
 8003adc:	ea46 069e 	orr.w	r6, r6, lr, lsr #2
 8003ae0:	d501      	bpl.n	8003ae6 <__btod_mult_common+0x10a>
 8003ae2:	e8bd 8901 	ldmia.w	sp!, {r0, r8, fp, pc}
 8003ae6:	19b6      	adds	r6, r6, r6
 8003ae8:	4152      	adcs	r2, r2
 8003aea:	eb41 0101 	adc.w	r1, r1, r1
 8003aee:	f1a3 0301 	sub.w	r3, r3, #1
 8003af2:	e8bd 8901 	ldmia.w	sp!, {r0, r8, fp, pc}
 8003af6:	ea4f 4514 	mov.w	r5, r4, lsr #16
 8003afa:	ea24 4605 	bic.w	r6, r4, r5, lsl #16
 8003afe:	ea4f 4711 	mov.w	r7, r1, lsr #16
 8003b02:	ea21 4c07 	bic.w	ip, r1, r7, lsl #16
 8003b06:	fb05 f407 	mul.w	r4, r5, r7
 8003b0a:	fb06 f707 	mul.w	r7, r6, r7
 8003b0e:	fb0c f106 	mul.w	r1, ip, r6
 8003b12:	eb11 4107 	adds.w	r1, r1, r7, lsl #16
 8003b16:	eb44 4417 	adc.w	r4, r4, r7, lsr #16
 8003b1a:	fb05 fc0c 	mul.w	ip, r5, ip
 8003b1e:	eb11 410c 	adds.w	r1, r1, ip, lsl #16
 8003b22:	eb44 441c 	adc.w	r4, r4, ip, lsr #16
 8003b26:	ea4f 4712 	mov.w	r7, r2, lsr #16
 8003b2a:	ea22 4c07 	bic.w	ip, r2, r7, lsl #16
 8003b2e:	fb05 f207 	mul.w	r2, r5, r7
 8003b32:	fb06 f707 	mul.w	r7, r6, r7
 8003b36:	fb0c f606 	mul.w	r6, ip, r6
 8003b3a:	eb16 4607 	adds.w	r6, r6, r7, lsl #16
 8003b3e:	eb42 4217 	adc.w	r2, r2, r7, lsr #16
 8003b42:	fb05 fc0c 	mul.w	ip, r5, ip
 8003b46:	eb16 460c 	adds.w	r6, r6, ip, lsl #16
 8003b4a:	eb42 451c 	adc.w	r5, r2, ip, lsr #16
 8003b4e:	186a      	adds	r2, r5, r1
 8003b50:	f154 0100 	adcs.w	r1, r4, #0
 8003b54:	bf48      	it	mi
 8003b56:	4770      	bxmi	lr
 8003b58:	19b6      	adds	r6, r6, r6
 8003b5a:	4152      	adcs	r2, r2
 8003b5c:	eb41 0101 	adc.w	r1, r1, r1
 8003b60:	f1a3 0301 	sub.w	r3, r3, #1
 8003b64:	4770      	bx	lr
 8003b66:	f095 0f00 	teq	r5, #0
 8003b6a:	d037      	beq.n	8003bdc <__btod_mult_common+0x200>
 8003b6c:	ea4f 4211 	mov.w	r2, r1, lsr #16
 8003b70:	ea21 4602 	bic.w	r6, r1, r2, lsl #16
 8003b74:	ea4f 4714 	mov.w	r7, r4, lsr #16
 8003b78:	ea24 4c07 	bic.w	ip, r4, r7, lsl #16
 8003b7c:	fb02 f107 	mul.w	r1, r2, r7
 8003b80:	fb06 f707 	mul.w	r7, r6, r7
 8003b84:	fb0c f406 	mul.w	r4, ip, r6
 8003b88:	eb14 4407 	adds.w	r4, r4, r7, lsl #16
 8003b8c:	eb41 4117 	adc.w	r1, r1, r7, lsr #16
 8003b90:	fb02 fc0c 	mul.w	ip, r2, ip
 8003b94:	eb14 440c 	adds.w	r4, r4, ip, lsl #16
 8003b98:	eb41 411c 	adc.w	r1, r1, ip, lsr #16
 8003b9c:	ea4f 4715 	mov.w	r7, r5, lsr #16
 8003ba0:	ea25 4c07 	bic.w	ip, r5, r7, lsl #16
 8003ba4:	fb02 f507 	mul.w	r5, r2, r7
 8003ba8:	fb06 f707 	mul.w	r7, r6, r7
 8003bac:	fb0c f606 	mul.w	r6, ip, r6
 8003bb0:	eb16 4607 	adds.w	r6, r6, r7, lsl #16
 8003bb4:	eb45 4517 	adc.w	r5, r5, r7, lsr #16
 8003bb8:	fb02 fc0c 	mul.w	ip, r2, ip
 8003bbc:	eb16 460c 	adds.w	r6, r6, ip, lsl #16
 8003bc0:	eb45 421c 	adc.w	r2, r5, ip, lsr #16
 8003bc4:	1912      	adds	r2, r2, r4
 8003bc6:	f151 0100 	adcs.w	r1, r1, #0
 8003bca:	bf48      	it	mi
 8003bcc:	4770      	bxmi	lr
 8003bce:	19b6      	adds	r6, r6, r6
 8003bd0:	4152      	adcs	r2, r2
 8003bd2:	eb41 0101 	adc.w	r1, r1, r1
 8003bd6:	f1a3 0301 	sub.w	r3, r3, #1
 8003bda:	4770      	bx	lr
 8003bdc:	ea4f 4514 	mov.w	r5, r4, lsr #16
 8003be0:	ea24 4605 	bic.w	r6, r4, r5, lsl #16
 8003be4:	ea4f 4711 	mov.w	r7, r1, lsr #16
 8003be8:	ea21 4c07 	bic.w	ip, r1, r7, lsl #16
 8003bec:	fb05 f107 	mul.w	r1, r5, r7
 8003bf0:	fb06 f707 	mul.w	r7, r6, r7
 8003bf4:	fb0c f206 	mul.w	r2, ip, r6
 8003bf8:	eb12 4207 	adds.w	r2, r2, r7, lsl #16
 8003bfc:	eb41 4117 	adc.w	r1, r1, r7, lsr #16
 8003c00:	fb05 fc0c 	mul.w	ip, r5, ip
 8003c04:	eb12 420c 	adds.w	r2, r2, ip, lsl #16
 8003c08:	eb51 411c 	adcs.w	r1, r1, ip, lsr #16
 8003c0c:	f04f 0600 	mov.w	r6, #0
 8003c10:	bf48      	it	mi
 8003c12:	4770      	bxmi	lr
 8003c14:	1892      	adds	r2, r2, r2
 8003c16:	eb41 0101 	adc.w	r1, r1, r1
 8003c1a:	f1a3 0301 	sub.w	r3, r3, #1
 8003c1e:	4770      	bx	lr

08003c20 <__ARM_fpclassify>:
__ARM_fpclassify():
 8003c20:	b403      	push	{r0, r1}
 8003c22:	9801      	ldr	r0, [sp, #4]
 8003c24:	0041      	lsls	r1, r0, #1
 8003c26:	9800      	ldr	r0, [sp, #0]
 8003c28:	ea50 20c1 	orrs.w	r0, r0, r1, lsl #11
 8003c2c:	bf18      	it	ne
 8003c2e:	2004      	movne	r0, #4
 8003c30:	0d4a      	lsrs	r2, r1, #21
 8003c32:	bf18      	it	ne
 8003c34:	f040 0001 	orrne.w	r0, r0, #1
 8003c38:	f240 72ff 	movw	r2, #2047	; 0x7ff
 8003c3c:	ebb2 5f51 	cmp.w	r2, r1, lsr #21
 8003c40:	bf08      	it	eq
 8003c42:	f040 0002 	orreq.w	r0, r0, #2
 8003c46:	2801      	cmp	r0, #1
 8003c48:	bf08      	it	eq
 8003c4a:	2005      	moveq	r0, #5
 8003c4c:	b002      	add	sp, #8
 8003c4e:	4770      	bx	lr

08003c50 <_is_digit>:
_is_digit():
 8003c50:	3830      	subs	r0, #48	; 0x30
 8003c52:	280a      	cmp	r0, #10
 8003c54:	d201      	bcs.n	8003c5a <_is_digit+0xa>
 8003c56:	2001      	movs	r0, #1
 8003c58:	4770      	bx	lr
 8003c5a:	2000      	movs	r0, #0
 8003c5c:	4770      	bx	lr
	...

08003c60 <_get_lc_numeric>:
_get_lc_numeric():
 8003c60:	b510      	push	{r4, lr}
 8003c62:	2900      	cmp	r1, #0
 8003c64:	d00a      	beq.n	8003c7c <_get_lc_numeric+0x1c>
 8003c66:	7808      	ldrb	r0, [r1, #0]
 8003c68:	2800      	cmp	r0, #0
 8003c6a:	d007      	beq.n	8003c7c <_get_lc_numeric+0x1c>
 8003c6c:	4805      	ldr	r0, [pc, #20]	; (8003c84 <_get_lc_numeric+0x24>)
 8003c6e:	4478      	add	r0, pc
 8003c70:	f7fd fbe2 	bl	8001438 <strcmp>
 8003c74:	2800      	cmp	r0, #0
 8003c76:	d001      	beq.n	8003c7c <_get_lc_numeric+0x1c>
 8003c78:	2000      	movs	r0, #0
 8003c7a:	bd10      	pop	{r4, pc}
 8003c7c:	4802      	ldr	r0, [pc, #8]	; (8003c88 <_get_lc_numeric+0x28>)
 8003c7e:	4478      	add	r0, pc
 8003c80:	bd10      	pop	{r4, pc}
 8003c82:	02a60000 	adceq	r0, r6, #0
 8003c86:	029e0000 	addseq	r0, lr, #0
	...

08003c8c <_get_lc_ctype>:
_get_lc_ctype():
 8003c8c:	b510      	push	{r4, lr}
 8003c8e:	2900      	cmp	r1, #0
 8003c90:	d00a      	beq.n	8003ca8 <_get_lc_ctype+0x1c>
 8003c92:	7808      	ldrb	r0, [r1, #0]
 8003c94:	2800      	cmp	r0, #0
 8003c96:	d007      	beq.n	8003ca8 <_get_lc_ctype+0x1c>
 8003c98:	4805      	ldr	r0, [pc, #20]	; (8003cb0 <_get_lc_ctype+0x24>)
 8003c9a:	4478      	add	r0, pc
 8003c9c:	f7fd fbcc 	bl	8001438 <strcmp>
 8003ca0:	2800      	cmp	r0, #0
 8003ca2:	d001      	beq.n	8003ca8 <_get_lc_ctype+0x1c>
 8003ca4:	2000      	movs	r0, #0
 8003ca6:	bd10      	pop	{r4, pc}
 8003ca8:	4802      	ldr	r0, [pc, #8]	; (8003cb4 <_get_lc_ctype+0x28>)
 8003caa:	4478      	add	r0, pc
 8003cac:	bd10      	pop	{r4, pc}
 8003cae:	02960000 	addseq	r0, r6, #0
 8003cb2:	028e0000 	addeq	r0, lr, #0
	...

08003cb8 <_fp_init>:
_fp_init():
 8003cb8:	eef1 0a10 	vmrs	r0, fpscr
 8003cbc:	f64f 71ff 	movw	r1, #65535	; 0xffff
 8003cc0:	f2c0 31c0 	movt	r1, #960	; 0x3c0
 8003cc4:	ea20 0001 	bic.w	r0, r0, r1
 8003cc8:	f040 7040 	orr.w	r0, r0, #50331648	; 0x3000000
 8003ccc:	eee1 0a10 	vmsr	fpscr, r0

08003cd0 <__fplib_config_fpu_vfp>:
 8003cd0:	4770      	bx	lr

08003cd2 <_printf_fp_dec>:
_printf_fp_dec():
 8003cd2:	f7fc bfb9 	b.w	8000c48 <_printf_fp_dec_real>

08003cd6 <_printf_fp_hex>:
_printf_fp_hex():
 8003cd6:	f7fd b8ed 	b.w	8000eb4 <_printf_fp_hex_real>

08003cda <__I$use$fp>:
	...

08003cdc <initial_mbstate>:
	...

08003ce4 <uc_hextab>:
__I$use$fp():
 8003ce4:	33323130 	teqcc	r2, #48, 2
 8003ce8:	37363534 			; <UNDEFINED> instruction: 0x37363534
 8003cec:	42413938 	submi	r3, r1, #56, 18	; 0xe0000
 8003cf0:	46454443 	strbmi	r4, [r5], -r3, asr #8
 8003cf4:	00583040 	subseq	r3, r8, r0, asr #32

08003cf8 <lc_hextab>:
 8003cf8:	33323130 	teqcc	r2, #48, 2
 8003cfc:	37363534 			; <UNDEFINED> instruction: 0x37363534
 8003d00:	62613938 	rsbvs	r3, r1, #56, 18	; 0xe0000
 8003d04:	66656463 	strbtvs	r6, [r5], -r3, ror #8
 8003d08:	00783040 	rsbseq	r3, r8, r0, asr #32

08003d0c <maptable>:
 8003d0c:	08000004 	stmdaeq	r0, {r2}
 8003d10:	00000000 	andeq	r0, r0, r0
 8003d14:	02000000 	andeq	r0, r0, #0
 8003d18:	00000100 	andeq	r0, r0, r0, lsl #2
 8003d1c:	 	eorscc	r3, r1, #16

08003d1d <lc_hextab>:
 8003d1d:	33323130 	teqcc	r2, #48, 2
 8003d21:	37363534 			; <UNDEFINED> instruction: 0x37363534
 8003d25:	62613938 	rsbvs	r3, r1, #56, 18	; 0xe0000
 8003d29:	66656463 	strbtvs	r6, [r5], -r3, ror #8
 8003d2d:	 	andcc	r7, r0, r8, ror r0

08003d30 <uc_hextab>:
 8003d30:	33323130 	teqcc	r2, #48, 2
 8003d34:	37363534 			; <UNDEFINED> instruction: 0x37363534
 8003d38:	42413938 	submi	r3, r1, #56, 18	; 0xe0000
 8003d3c:	46454443 	strbmi	r4, [r5], -r3, asr #8
 8003d40:	00005058 	andeq	r5, r0, r8, asr r0

08003d44 <tenpwrs_x>:
 8003d44:	00004002 	andeq	r4, r0, r2
 8003d48:	a0000000 	andge	r0, r0, r0
 8003d4c:	00000000 	andeq	r0, r0, r0
 8003d50:	00004005 	andeq	r4, r0, r5
 8003d54:	c8000000 	stmdagt	r0, {}	; <UNPREDICTABLE>
 8003d58:	00000000 	andeq	r0, r0, r0
 8003d5c:	0000400c 	andeq	r4, r0, ip
 8003d60:	9c400000 	marls	acc0, r0, r0
 8003d64:	00000000 	andeq	r0, r0, r0
 8003d68:	00004019 	andeq	r4, r0, r9, lsl r0
 8003d6c:	bebc2000 	cdplt	0, 11, cr2, cr12, cr0, {0}
 8003d70:	00000000 	andeq	r0, r0, r0
 8003d74:	00004034 	andeq	r4, r0, r4, lsr r0
 8003d78:	8e1bc9bf 			; <UNDEFINED> instruction: 0x8e1bc9bf
 8003d7c:	04000000 	streq	r0, [r0], #-0

08003d80 <tenpwrs_i>:
 8003d80:	000040b5 	strheq	r4, [r0], -r5
 8003d84:	d0cf4b50 	sbcle	r4, pc, r0, asr fp	; <UNPREDICTABLE>
 8003d88:	cfe20766 	svcgt	0x00e20766
 8003d8c:	00000001 	andeq	r0, r0, r1
 8003d90:	0000416c 	andeq	r4, r0, ip, ror #2
 8003d94:	aa51823e 	bge	9464694 <__lcctype_c_end+0x1460654>
 8003d98:	34a7eedf 	strtcc	lr, [r7], #3807	; 0xedf
 8003d9c:	00000001 	andeq	r0, r0, r1
 8003da0:	000042d9 	ldrdeq	r4, [r0], -r9
 8003da4:	e2a0b5dc 	adc	fp, r0, #220, 10	; 0x37000000
 8003da8:	971f303a 			; <UNDEFINED> instruction: 0x971f303a
 8003dac:	ffffffff 			; <UNDEFINED> instruction: 0xffffffff
 8003db0:	000045b4 			; <UNDEFINED> instruction: 0x000045b4
 8003db4:	c8a025fd 	stmiagt	r0!, {r0, r2, r3, r4, r5, r6, r7, r8, sl, sp}
 8003db8:	4fc1a3e9 	svcmi	0x00c1a3e9
 8003dbc:	ffffffff 			; <UNDEFINED> instruction: 0xffffffff
 8003dc0:	00003fff 	strdeq	r3, [r0], -pc	; <UNPREDICTABLE>
 8003dc4:	80000000 	andhi	r0, r0, r0
 8003dc8:	00000000 	andeq	r0, r0, r0
 8003dcc:	00003fff 	strdeq	r3, [r0], -pc	; <UNPREDICTABLE>
 8003dd0:	80000000 	andhi	r0, r0, r0
 8003dd4:	00000000 	andeq	r0, r0, r0

08003dd8 <.L.str.22>:
 8003dd8:	002c7325 	eoreq	r7, ip, r5, lsr #6
 8003ddc:	 	stmdami	r0, {r1, r2, r3, r6, r8, lr}

08003ddf <.L.str.20>:
 8003ddf:	6c6c6548 	cfstr64vs	mvdx6, [ip], #-288	; 0xfffffee0
 8003de3:	724d206f 	subvc	r2, sp, #111	; 0x6f
 8003de7:	53455420 	movtpl	r5, #21536	; 0x5420
 8003deb:	004e4f53 	subeq	r4, lr, r3, asr pc

08003def <.L.str.29>:
 8003def:	57796164 	ldrbpl	r6, [r9, -r4, ror #2]!
	...

08003df4 <.L.str.26>:
 8003df4:	00636573 	rsbeq	r6, r3, r3, ror r5

08003df8 <.L.str.32>:
 8003df8:	74746553 	ldrbtvc	r6, [r4], #-1363	; 0xfffffaad
 8003dfc:	20676e69 	rsbcs	r6, r7, r9, ror #28
 8003e00:	746e6f6d 	strbtvc	r6, [lr], #-3949	; 0xfffff093
 8003e04:	203a2068 	eorscs	r2, sl, r8, rrx
 8003e08:	 	movwpl	r6, #1061	; 0x425

08003e0b <.L.str.33>:
 8003e0b:	74746553 	ldrbtvc	r6, [r4], #-1363	; 0xfffffaad
 8003e0f:	20676e69 	rsbcs	r6, r7, r9, ror #28
 8003e13:	72616579 	rsbvc	r6, r1, #507510784	; 0x1e400000
 8003e17:	25203a20 	strcs	r3, [r0, #-2592]!	; 0xfffff5e0
 8003e1b:	 	ldrbvs	r0, [r3, #-100]	; 0xffffff9c

08003e1d <.L.str.30>:
 8003e1d:	74746553 	ldrbtvc	r6, [r4], #-1363	; 0xfffffaad
 8003e21:	20676e69 	rsbcs	r6, r7, r9, ror #28
 8003e25:	3a207325 	bcc	8820ac1 <__lcctype_c_end+0x81ca81>
 8003e29:	00642520 	rsbeq	r2, r4, r0, lsr #10

08003e2d <.L.str.31>:
 8003e2d:	74746553 	ldrbtvc	r6, [r4], #-1363	; 0xfffffaad
 8003e31:	20676e69 	rsbcs	r6, r7, r9, ror #28
 8003e35:	20796164 	rsbscs	r6, r9, r4, ror #2
 8003e39:	6425203a 	strtvs	r2, [r5], #-58	; 0xffffffc6
	...

08003e3e <.L.str.21>:
 8003e3e:	64323025 	ldrtvs	r3, [r2], #-37	; 0xffffffdb
 8003e42:	3230253a 	eorscc	r2, r0, #243269632	; 0xe800000
 8003e46:	30253a64 	eorcc	r3, r5, r4, ror #20
 8003e4a:	 	strcs	r6, [r0, #-1074]	; 0xfffffbce

08003e4d <.L.str.23>:
 8003e4d:	25207325 	strcs	r7, [r0, #-805]!	; 0xfffffcdb
 8003e51:	32202c64 	eorcc	r2, r0, #100, 24	; 0x6400
 8003e55:	30256425 	eorcc	r6, r5, r5, lsr #8
 8003e59:	4a006432 	bmi	801cf29 <__lcctype_c_end+0x18ee9>
 8003e5d:	00656e75 	rsbeq	r6, r5, r5, ror lr
 8003e61:	6372614d 	cmnvs	r2, #1073741843	; 0x40000013
 8003e65:	70410068 	subvc	r0, r1, r8, rrx
 8003e69:	006c6972 	rsbeq	r6, ip, r2, ror r9

08003e6d <.L.str.27>:
 8003e6d:	006e696d 	rsbeq	r6, lr, sp, ror #18
 8003e71:	65636544 	strbvs	r6, [r3, #-1348]!	; 0xfffffabc
 8003e75:	7265626d 	rsbvc	r6, r5, #-805306362	; 0xd0000006
 8003e79:	70655300 	rsbvc	r5, r5, r0, lsl #6
 8003e7d:	626d6574 	rsbvs	r6, sp, #116, 10	; 0x1d000000
 8003e81:	4e007265 	cdpmi	2, 0, cr7, cr0, cr5, {3}
 8003e85:	6d65766f 	stclvs	6, cr7, [r5, #-444]!	; 0xfffffe44
 8003e89:	00726562 	rsbseq	r6, r2, r2, ror #10
 8003e8d:	6f74634f 	svcvs	0x0074634f
 8003e91:	00726562 	rsbseq	r6, r2, r2, ror #10

08003e95 <.L.str.28>:
 8003e95:	72756f68 	rsbsvc	r6, r5, #104, 30	; 0x1a0
 8003e99:	67754100 	ldrbvs	r4, [r5, -r0, lsl #2]!
 8003e9d:	00747375 	rsbseq	r7, r4, r5, ror r3
 8003ea1:	0079614d 	rsbseq	r6, r9, sp, asr #2
 8003ea5:	64697246 	strbtvs	r7, [r9], #-582	; 0xfffffdba
 8003ea9:	4d007961 	vstrmi.16	s14, [r0, #-194]	; 0xffffff3e	; <UNPREDICTABLE>
 8003ead:	61646e6f 	cmnvs	r4, pc, ror #28
 8003eb1:	75530079 	ldrbvc	r0, [r3, #-121]	; 0xffffff87
 8003eb5:	7961646e 	stmdbvc	r1!, {r1, r2, r3, r5, r6, sl, sp, lr}^
 8003eb9:	74615300 	strbtvc	r5, [r1], #-768	; 0xfffffd00
 8003ebd:	61647275 	smcvs	18213	; 0x4725
 8003ec1:	65570079 	ldrbvs	r0, [r7, #-121]	; 0xffffff87
 8003ec5:	73656e64 	cmnvc	r5, #100, 28	; 0x640
 8003ec9:	00796164 	rsbseq	r6, r9, r4, ror #2
 8003ecd:	73657554 	cmnvc	r5, #84, 10	; 0x15000000
 8003ed1:	00796164 	rsbseq	r6, r9, r4, ror #2
 8003ed5:	72756854 	rsbsvc	r6, r5, #84, 16	; 0x540000
 8003ed9:	79616473 	stmdbvc	r1!, {r0, r1, r4, r5, r6, sl, sp, lr}^
 8003edd:	6c754a00 			; <UNDEFINED> instruction: 0x6c754a00
 8003ee1:	614a0079 	hvcvs	40969	; 0xa009
 8003ee5:	7261756e 	rsbvc	r7, r1, #461373440	; 0x1b800000
 8003ee9:	65460079 	strbvs	r0, [r6, #-121]	; 0xffffff87
 8003eed:	61757262 	cmnvs	r5, r2, ror #4
 8003ef1:	 	andmi	r7, r0, r2, ror r9

08003ef4 <Region$$Table$$Base>:
Region$$Table$$Base():
 8003ef4:	08004040 	stmdaeq	r0, {r6, lr}
 8003ef8:	20020000 	andcs	r0, r2, r0
 8003efc:	00003420 	andeq	r3, r0, r0, lsr #8
 8003f00:	08000234 	stmdaeq	r0, {r2, r4, r5, r9}
 8003f04:	08004ea8 	stmdaeq	r0, {r3, r5, r7, r9, sl, fp, lr}
 8003f08:	20023420 	andcs	r3, r2, r0, lsr #8
 8003f0c:	00000a88 	andeq	r0, r0, r8, lsl #21
 8003f10:	08000298 	stmdaeq	r0, {r3, r4, r7, r9}

08003f14 <Region$$Table$$Limit>:
Region$$Table$$Limit():
 8003f14:	0000001c 	andeq	r0, r0, ip, lsl r0

08003f18 <__lcnum_c_name>:
 8003f18:	00000043 	andeq	r0, r0, r3, asr #32
 8003f1c:	fffffff8 			; <UNDEFINED> instruction: 0xfffffff8

08003f20 <__lcnum_c_start>:
 8003f20:	0000000c 	andeq	r0, r0, ip
 8003f24:	0000000e 	andeq	r0, r0, lr
 8003f28:	0000000f 	andeq	r0, r0, pc

08003f2c <__lcnum_c_point>:
 8003f2c:	 	andeq	r0, r0, lr, lsr #32

08003f2e <__lcnum_c_thousands>:
	...

08003f2f <__lcnum_c_grouping>:
	...

08003f30 <__lcnum_c_end>:
 8003f30:	00000110 	andeq	r0, r0, r0, lsl r1

08003f34 <__lcctype_c_name>:
 8003f34:	00000043 	andeq	r0, r0, r3, asr #32
 8003f38:	fffffff8 			; <UNDEFINED> instruction: 0xfffffff8

08003f3c <__lcctype_c_start>:
	...

08003f3d <__ctype>:
 8003f3d:	40404040 	submi	r4, r0, r0, asr #32
 8003f41:	40404040 	submi	r4, r0, r0, asr #32
 8003f45:	41414140 	cmpmi	r1, r0, asr #2
 8003f49:	40404141 	submi	r4, r0, r1, asr #2
 8003f4d:	40404040 	submi	r4, r0, r0, asr #32
 8003f51:	40404040 	submi	r4, r0, r0, asr #32
 8003f55:	40404040 	submi	r4, r0, r0, asr #32
 8003f59:	40404040 	submi	r4, r0, r0, asr #32
 8003f5d:	02020205 	andeq	r0, r2, #1342177280	; 0x50000000
 8003f61:	02020202 	andeq	r0, r2, #536870912	; 0x20000000
 8003f65:	02020202 	andeq	r0, r2, #536870912	; 0x20000000
 8003f69:	02020202 	andeq	r0, r2, #536870912	; 0x20000000
 8003f6d:	20202020 	eorcs	r2, r0, r0, lsr #32
 8003f71:	20202020 	eorcs	r2, r0, r0, lsr #32
 8003f75:	02022020 	andeq	r2, r2, #32
 8003f79:	02020202 	andeq	r0, r2, #536870912	; 0x20000000
 8003f7d:	90909002 	addsls	r9, r0, r2
 8003f81:	10909090 	umullsne	r9, r0, r0, r0
 8003f85:	10101010 	andsne	r1, r0, r0, lsl r0
 8003f89:	10101010 	andsne	r1, r0, r0, lsl r0
 8003f8d:	10101010 	andsne	r1, r0, r0, lsl r0
 8003f91:	10101010 	andsne	r1, r0, r0, lsl r0
 8003f95:	02101010 	andseq	r1, r0, #16
 8003f99:	02020202 	andeq	r0, r2, #536870912	; 0x20000000
 8003f9d:	88888802 	stmhi	r8, {r1, fp, pc}
 8003fa1:	08888888 	stmeq	r8, {r3, r7, fp, pc}
 8003fa5:	08080808 	stmdaeq	r8, {r3, fp}
 8003fa9:	08080808 	stmdaeq	r8, {r3, fp}
 8003fad:	08080808 	stmdaeq	r8, {r3, fp}
 8003fb1:	08080808 	stmdaeq	r8, {r3, fp}
 8003fb5:	02080808 	andeq	r0, r8, #8, 16	; 0x80000
 8003fb9:	40020202 	andmi	r0, r2, r2, lsl #4
	...

Disassembly of section ER_RW:

20020000 <Arial12x12>:
D:\#Documents\UVISION\SMART_WAKE_UP/./st7920_fonts.h:3
20020000:	19150700 	ldmdbne	r5, {r8, r9, sl}
20020004:	07020c0c 	streq	r0, [r2, -ip, lsl #24]
20020008:	06000100 	streq	r0, [r0], -r0, lsl #2
2002000c:	00000212 	andeq	r0, r0, r2, lsl r2
20020010:	2219017f 	andscs	r0, r9, #-1073741793	; 0xc000001f
20020014:	12013303 	andne	r3, r1, #201326592	; 0xc000000
20020018:	07091037 	smladxeq	r9, r7, r0, r1
2002001c:	01a40024 			; <UNDEFINED> instruction: 0x01a40024
20020020:	04a7007c 	strteq	r0, [r7], #124	; 0x7c
20020024:	00270490 	mlaeq	r7, r0, r4, r0
20020028:	0db01924 			; <UNDEFINED> instruction: 0x0db01924
2002002c:	ce000006 	cdpgt	0, 0, cr0, cr0, cr6, {0}
20020030:	ff011100 			; <UNDEFINED> instruction: 0xff011100
20020034:	e2011103 	and	r1, r1, #-1073741824	; 0xc0000000
20020038:	0a071032 	beq	201e4108 <__initial_sp+0x1c0260>
2002003c:	000e0000 	andeq	r0, lr, r0
20020040:	06101b11 			; <UNDEFINED> instruction: 0x06101b11
20020044:	003800ce 	eorseq	r0, r8, lr, asr #1
20020048:	043008e6 	ldrteq	r0, [r0], #-2278	; 0xfffff71a
2002004c:	19e00110 	stmibne	r0!, {r4, r8}^
20020050:	00081290 	muleq	r8, r0, r2
20020054:	1e00e000 	cdpne	0, 0, cr14, cr0, cr0, {0}
20020058:	29011101 	stmdbcs	r1, {r0, r8, ip}
2002005c:	a000c601 	andge	ip, r0, r1, lsl #12
20020060:	96010000 	strls	r0, [r1], -r0
20020064:	f0b21401 			; <UNDEFINED> instruction: 0xf0b21401
20020068:	0000040a 	andeq	r0, r0, sl, lsl #8
2002006c:	030600f8 	movweq	r0, #24824	; 0x60f8
20020070:	00af0401 	adceq	r0, pc, r1, lsl #8
20020074:	04011106 	streq	r1, [r1], #-262	; 0xfffffefa
20020078:	aff80306 	svcge	0x00f80306
2002007c:	80020513 	andhi	r0, r2, r3, lsl r5
20020080:	d2040712 	andle	r0, r4, #4718592	; 0x480000
20020084:	af11c802 	svcge	0x0011c802
20020088:	32021012 	andcc	r1, r2, #18
2002008c:	13d5067c 	bicsne	r0, r5, #124, 12	; 0x7c00000
20020090:	207e1401 	rsbscs	r1, lr, r1, lsl #8
20020094:	00200304 	eoreq	r0, r0, r4, lsl #6
20020098:	45130502 	ldrmi	r0, [r3, #-1282]	; 0xfffffafe
2002009c:	45001406 	strmi	r1, [r0, #-1030]	; 0xfffffbfa
200200a0:	06268016 			; <UNDEFINED> instruction: 0x06268016
200200a4:	15450311 	strbne	r0, [r5, #-785]	; 0xfffffcef
200200a8:	fe04302c 	cdp2	0, 0, cr3, cr4, cr12, {1}
200200ac:	e2010100 	and	r0, r1, #0, 2
200200b0:	0416e1fe 	ldreq	lr, [r6], #-510	; 0xfffffe02
200200b4:	ff110395 			; <UNDEFINED> instruction: 0xff110395
200200b8:	0bd03201 	bleq	1f42c8c4 <__lcctype_c_end+0x17428884>
200200bc:	01810102 	orreq	r0, r1, r2, lsl #2
200200c0:	01310141 	teqeq	r1, r1, asr #2
200200c4:	124b010e 	subne	r0, fp, #-2147483645	; 0x80000003
200200c8:	11164b82 	tstne	r6, r2, lsl #23
200200cc:	64eee247 	strbtvs	lr, [lr], #583	; 0x247
200200d0:	00600610 	rsbeq	r0, r0, r0, lsl r6
200200d4:	4d460058 	stclmi	0, cr0, [r6, #-352]	; 0xfffffea0
200200d8:	107d40e2 	rsbsne	r4, sp, r2, ror #1
200200dc:	0b009c06 	bleq	200470fc <__initial_sp+0x23254>
200200e0:	02020901 	andeq	r0, r2, #16384	; 0x4000
200200e4:	3296f110 	addscc	pc, r6, #16, 2
200200e8:	f2e21911 	vqshrn.s64	d17, <illegal reg q0.5>, #30
200200ec:	0106147d 	tsteq	r6, sp, ror r4
200200f0:	3901c100 	stmdbcc	r1, {r8, lr, pc}
200200f4:	c801e249 	stmdagt	r1, {r0, r3, r6, r9, sp, lr, pc}
200200f8:	01d9ee16 	bicseq	lr, r9, r6, lsl lr
200200fc:	06107d13 			; <UNDEFINED> instruction: 0x06107d13
20020100:	0121009e 			; <UNDEFINED> instruction: 0x0121009e
20020104:	feea1921 			; <UNDEFINED> instruction: 0xfeea1921
20020108:	04150b71 	ldreq	r0, [r5], #-2929	; 0xfffff48f
2002010c:	13068a01 	movwne	r8, #27137	; 0x6a01
20020110:	a9357704 	ldmdbge	r5!, {r2, r8, r9, sl, ip, sp, lr}
20020114:	c2022832 	andgt	r2, r2, #3276800	; 0x320000
20020118:	4883af44 	stmmi	r3, {r2, r6, r8, r9, sl, fp, sp, pc}
2002011c:	fad10200 	blx	1f460924 <__lcctype_c_end+0x1745c8e4>
20020120:	e6324452 			; <UNDEFINED> instruction: 0xe6324452
20020124:	0612f410 			; <UNDEFINED> instruction: 0x0612f410
20020128:	610418ca 	smlabtvs	r4, sl, r8, r1
2002012c:	a9921101 	ldmibge	r2, {r0, r8, ip}
20020130:	0c0c20a3 	stceq	0, cr2, [ip], {163}	; 0xa3
20020134:	01f00000 	mvnseq	r0, r0
20020138:	04e2020c 	strbteq	r0, [r2], #524	; 0x20c
2002013c:	10010912 	andne	r0, r1, r2, lsl r9
20020140:	1909f113 	stmdbne	r9, {r0, r1, r4, r8, ip, sp, lr, pc}
20020144:	86050209 	strhi	r0, [r5], -r9, lsl #4
20020148:	07027804 	streq	r7, [r2, -r4, lsl #16]
2002014c:	00700180 	rsbseq	r0, r0, r0, lsl #3
20020150:	0421002e 	strteq	r0, [r1], #-46	; 0xffffffd2
20020154:	00700494 			; <UNDEFINED> instruction: 0x00700494
20020158:	1f1d7980 	svcne	0x001d7980
2002015c:	75ff3603 	ldrbvc	r3, [pc, #1539]!	; 20020767 <Arial12x12+0x767>
20020160:	19e311d2 	stmibne	r3!, {r1, r4, r6, r7, r8, ip}^
20020164:	927c36d5 	rsbsls	r3, ip, #223346688	; 0xd500000
20020168:	8292dd25 	addshi	sp, r2, #2368	; 0x940
2002016c:	63ee19b3 	mvnvs	r1, #2932736	; 0x2cc000
20020170:	1a0101ff 	bne	20060974 <__initial_sp+0x3cacc>
20020174:	13017982 	movwne	r7, #6530	; 0x1982
20020178:	0111b74b 	tsteq	r1, fp, asr #14
2002017c:	2d191190 	ldfcss	f1, [r9, #-576]	; 0xfffffdc0
20020180:	77d5033b 			; <UNDEFINED> instruction: 0x77d5033b
20020184:	06c06491 			; <UNDEFINED> instruction: 0x06c06491
20020188:	00920111 	addseq	r0, r2, r1, lsl r1
2002018c:	d7296474 			; <UNDEFINED> instruction: 0xd7296474
20020190:	ffae0241 			; <UNDEFINED> instruction: 0xffae0241
20020194:	130a0352 	movwne	r0, #41810	; 0xa352
20020198:	0527a3ff 	streq	sl, [r7, #-1023]!	; 0xfffffc01
2002019c:	0211dcc0 	andseq	sp, r1, #192, 24	; 0xc000
200201a0:	03e8ffde 	mvneq	pc, #888	; 0x378
200201a4:	20364b31 	eorscs	r4, r6, r1, lsr fp
200201a8:	d044327b 	suble	r3, r4, fp, ror r2
200201ac:	0082afb1 			; <UNDEFINED> instruction: 0x0082afb1
200201b0:	147dc102 	ldrbtne	ip, [sp], #-258	; 0xfffffefe
200201b4:	78000604 	stmdavc	r0, {r2, r9, sl}
200201b8:	68781628 	ldmdavs	r8!, {r3, r5, r9, sl, ip}^
200201bc:	19317d81 	ldmdbne	r1!, {r0, r7, r8, sl, fp, ip, sp, lr}
200201c0:	1a650216 	bne	21960a20 <__initial_sp+0x193cb78>
200201c4:	80c29210 	sbchi	r9, r2, r0, lsl r2
200201c8:	e52ca519 	str	sl, [ip, #-1305]!	; 0xfffffae7
200201cc:	c5fa3113 	ldrbgt	r3, [sl, #275]!	; 0x113
200201d0:	12fa71ab 	rscsne	r7, sl, #-1073741782	; 0xc000002a
200201d4:	45150241 	ldrmi	r0, [r5, #-577]	; 0xfffffdbf
200201d8:	324164c1 	subcc	r6, r1, #-1056964608	; 0xc1000000
200201dc:	003106a0 	eorseq	r0, r1, r0, lsr #13
200201e0:	af0e00d1 	svcge	0x000e00d1
200201e4:	aca3ce5a 	stcge	14, cr12, [r3], #360	; 0x168
200201e8:	e6011104 	str	r1, [r1], -r4, lsl #2
200201ec:	c54104c9 	strbgt	r0, [r1, #-1225]	; 0xfffffb37
200201f0:	c7c19415 	bfigt	r9, r5, (invalid: 8:1)
200201f4:	1204972d 	andne	r9, r4, #11796480	; 0xb40000
200201f8:	1745a77f 	smlsldxne	sl, r5, pc, r7	; <UNPREDICTABLE>
200201fc:	7d0c8012 	stcvc	0, cr8, [ip, #-72]	; 0xffffffb8
20020200:	042004fb 	strteq	r0, [r0], #-1275	; 0xfffffb05
20020204:	c21c0003 	andsgt	r0, ip, #3
20020208:	08600113 	stmdaeq	r0!, {r0, r1, r4, r8}^
2002020c:	3303d7ad 	movwcc	sp, #14253	; 0x37ad
20020210:	1ef6070b 	cdpne	7, 15, cr0, cr6, cr11, {0}
20020214:	1e04e870 	mcrne	8, 0, lr, cr4, cr0, {3}
20020218:	2904ec01 	stmdbcs	r4, {r0, sl, fp, sp, lr, pc}
2002021c:	03f84d2a 	mvnseq	r4, #2688	; 0xa80
20020220:	da01071f 	ble	20061ea4 <__initial_sp+0x3dffc>
20020224:	94862904 	strls	r2, [r6], #2308	; 0x904
20020228:	c6002804 	strgt	r2, [r0], -r4, lsl #16
2002022c:	167d3143 	ldrbtne	r3, [sp], -r3, asr #2
20020230:	04386306 	ldrteq	r6, [r8], #-774	; 0xfffffcfa
20020234:	920801f0 	andls	r0, r8, #240, 2	; 0x3c
20020238:	e61d58a9 	ldr	r5, [sp], -r9, lsr #17
2002023c:	a0a11903 	adcge	r1, r1, r3, lsl #18
20020240:	010d0106 	tsteq	sp, r6, lsl #2
20020244:	11320103 	teqne	r2, r3, lsl #2
20020248:	ff100f4f 			; <UNDEFINED> instruction: 0xff100f4f
2002024c:	1d04f907 	vstrne.16	s30, [r4, #-14]	; <UNPREDICTABLE>
20020250:	031a05aa 	tsteq	sl, #713031680	; 0x2a800000
20020254:	80110671 	andshi	r0, r1, r1, ror r6
20020258:	13050cdd 	movwne	r0, #23773	; 0x5cdd
2002025c:	ff040102 			; <UNDEFINED> instruction: 0xff040102
20020260:	05530352 	ldrbeq	r0, [r3, #-850]	; 0xfffffcae
20020264:	10eea910 	rscne	sl, lr, r0, lsl r9
20020268:	7d1d05dc 	cfldr32vc	mvfx0, [sp, #-880]	; 0xfffffc90
2002026c:	a102a104 	tstge	r2, r4, lsl #2
20020270:	4201fe7d 	andmi	pc, r1, #2000	; 0x7d0
20020274:	05f55d05 	ldrbeq	r5, [r5, #3333]!	; 0xd05
20020278:	00c80aec 	sbceq	r0, r8, ip, ror #21
2002027c:	01240124 			; <UNDEFINED> instruction: 0x01240124
20020280:	97f800a4 	ldrbls	r0, [r8, r4, lsr #1]!
20020284:	ff041c04 			; <UNDEFINED> instruction: 0xff041c04
20020288:	03ec8801 	mvneq	r8, #65536	; 0x10000
2002028c:	970104cf 	strls	r0, [r1, -pc, asr #9]
20020290:	c3052e05 	movwgt	r2, #24069	; 0x5e05
20020294:	0e172105 	mufeqs	f2, f7, f5
20020298:	05148810 	ldreq	r8, [r4, #-2064]	; 0xfffff7f0
2002029c:	04e01941 	strbteq	r1, [r0], #2369	; 0x941
200202a0:	4bff0108 	blmi	1ffe06c8 <__lcctype_c_end+0x17fdc688>
200202a4:	cc64f832 	stclgt	8, cr15, [r4], #-200	; 0xffffff38
200202a8:	b8012404 	stmdalt	r1, {r2, sl, sp}
200202ac:	060c060e 	streq	r0, [ip], -lr, lsl #12
200202b0:	fe000411 	mcr2	4, 0, r0, cr0, cr1, {0}
200202b4:	057b0501 	ldrbeq	r0, [fp, #-1281]!	; 0xfffffaff
200202b8:	0af03221 	beq	1fc2cb44 <__lcctype_c_end+0x17c28b04>
200202bc:	04050404 	streq	r0, [r5], #-1028	; 0xfffffbfc
200202c0:	fc048805 	stc2	8, cr8, [r4], {5}
200202c4:	08329603 	ldmdaeq	r2!, {r0, r1, r9, sl, ip, pc}
200202c8:	1dafc1e6 	stfned	f4, [pc, #920]!	; 20020668 <Arial12x12+0x668>
200202cc:	150e0320 	strne	r0, [lr, #-800]	; 0xfffffce0
200202d0:	0c0497fd 	stceq	7, cr9, [r4], {253}	; 0xfd
200202d4:	fd041504 	stc2	5, cr1, [r4, #-16]
200202d8:	2d049703 	stccs	7, cr9, [r4, #-12]
200202dc:	30160320 	andscc	r0, r6, r0, lsr #6
200202e0:	4b04e200 	blmi	20158ae8 <__initial_sp+0x134c40>
200202e4:	036b140d 	cmneq	fp, #218103808	; 0xd000000
200202e8:	7207081d 	andvc	r0, r7, #1900544	; 0x1d0000
200202ec:	85a17dfc 	strhi	r7, [r1, #3580]!	; 0xdfc
200202f0:	051906a2 	ldreq	r0, [r9, #-1698]	; 0xfffff95e
200202f4:	45e51313 	strbmi	r1, [r5, #787]!	; 0x313
200202f8:	12063221 	andne	r3, r6, #268435458	; 0x10000002
200202fc:	45755e07 	ldrbmi	r5, [r5, #-3591]!	; 0xfffff1f9
20020300:	dd218812 	stcle	8, cr8, [r1, #-72]!	; 0xffffffb8
20020304:	6441073a 	strbvs	r0, [r1], #-1850	; 0xfffff8c6
20020308:	56c21105 	strbpl	r1, [r2], r5, lsl #2
2002030c:	c8ce5e98 	stmiagt	lr, {r3, r4, r7, r9, sl, fp, ip, lr}^
20020310:	041e0802 	ldreq	r0, [lr], #-2050	; 0xfffff7fe
20020314:	120d03cf 	andne	r0, sp, #1006632963	; 0x3c000003
20020318:	af2105ac 	svcge	0x002105ac
2002031c:	be04355d 	cfrshl32lt	mvfx4, mvfx13, r3
20020320:	3b068bfc 	blcc	201c3318 <__initial_sp+0x19f470>
20020324:	2efb0c05 	cdpcs	12, 15, cr0, cr11, cr5, {0}
20020328:	bd054f70 	stclt	15, cr4, [r5, #-448]	; 0xfffffe40
2002032c:	09820802 	stmibeq	r2, {r1, fp}
20020330:	1c21c119 	stfned	f4, [r1], #-100	; 0xffffff9c
20020334:	01040505 	tsteq	r4, r5, lsl #10
20020338:	fe0755d8 	mcr2	5, 0, r5, cr7, cr8, {6}
2002033c:	210614d8 	ldrdcs	r1, [r6, -r8]
20020340:	1004004b 	andne	r0, r4, fp, asr #32
20020344:	4b038004 	blmi	2010035c <__initial_sp+0xdc4b4>
20020348:	c41a3211 	ldrgt	r3, [sl], #-529	; 0xfffffdef
2002034c:	9a1cf20b 	bls	2075cb80 <__initial_sp+0x738cd8>
20020350:	0e079e1d 	mcreq	14, 0, r9, cr7, cr13, {0}
20020354:	0819de11 	ldmdaeq	r9, {r0, r4, r9, sl, fp, ip, lr, pc}
20020358:	150e9045 	strne	r9, [lr, #-69]	; 0xffffffbb
2002035c:	0c084d07 	stceq	13, cr4, [r8], {7}
20020360:	04011005 	streq	r1, [r1], #-5
20020364:	07d203de 			; <UNDEFINED> instruction: 0x07d203de
20020368:	2d04331d 	stccs	3, cr3, [r4, #-116]	; 0xffffff8c
2002036c:	103e04f9 	ldrshtne	r0, [lr], -r9
20020370:	42ad07ef 	adcmi	r0, sp, #62652416	; 0x3bc0000
20020374:	11070c06 	tstne	r7, r6, lsl #24
20020378:	0203fe03 	andeq	pc, r3, #3, 28	; 0x30
2002037c:	07d1fe02 	ldrbeq	pc, [r1, r2, lsl #28]	; <UNPREDICTABLE>
20020380:	716d0700 	cmnvc	sp, r0, lsl #14
20020384:	0f041c1c 	svceq	0x00041c1c
20020388:	05620100 	strbeq	r0, [r2, #-256]!	; 0xffffff00
2002038c:	fe08307e 	mcr2	0, 0, r3, cr8, cr14, {3}
20020390:	fe00383f 	vfmal.f16	d3, s0, s15[1]
20020394:	0108387f 	tsteq	r8, pc, ror r8
20020398:	0922715a 	stmdbeq	r2!, {r1, r3, r4, r6, r8, ip, sp, lr}
2002039c:	717e226d 	cmnvc	lr, sp, ror #4
200203a0:	81610851 	cmnhi	r1, r1, asr r8
200203a4:	01141201 	tsteq	r4, r1, lsl #4
200203a8:	09107142 	ldmdbeq	r0, {r1, r6, r8, ip, sp, lr}
200203ac:	00c1800f 	sbceq	r8, r1, pc
200203b0:	38c18000 	stmiacc	r1, {pc}^
200203b4:	3f041c04 	svccc	0x00041c04
200203b8:	04cd8000 	strbeq	r8, [sp], #0
200203bc:	06a6f81e 	ssateq	pc, #7, lr, lsl #16	; <UNPREDICTABLE>
200203c0:	3214fe12 	andscc	pc, r4, #288	; 0x120
200203c4:	1c01188e 	stcne	8, cr1, [r1], {142}	; 0x8e
200203c8:	7133011c 	teqvc	r3, ip, lsl r1
200203cc:	14104f25 	ldrne	r4, [r0], #-3877	; 0xfffff0db
200203d0:	000381f0 	strdeq	r8, [r3], -r0
200203d4:	000f83f8 	strdeq	r8, [pc], -r8	; <UNPREDICTABLE>
200203d8:	001f87fc 			; <UNDEFINED> instruction: 0x001f87fc
200203dc:	001e070c 	andseq	r0, lr, ip, lsl #14
200203e0:	04380e06 	ldrteq	r0, [r8], #-3590	; 0xfffff1fa
200203e4:	00300720 	eorseq	r0, r0, r0, lsr #14
200203e8:	01ffffff 	ldrsheq	pc, [pc, #255]	; 200204ef <Arial12x12+0x4ef>	; <UNPREDICTABLE>
200203ec:	33180004 	tstcc	r8, #4
200203f0:	00301c06 	eorseq	r1, r0, r6, lsl #24
200203f4:	00381c0e 	eorseq	r1, r8, lr, lsl #24
200203f8:	001c381c 	andseq	r3, ip, ip, lsl r8
200203fc:	001ff87c 	andseq	pc, pc, ip, ror r8	; <UNPREDICTABLE>
20020400:	000ff078 	andeq	pc, pc, r8, ror r0	; <UNPREDICTABLE>
20020404:	e203c060 	and	ip, r3, #96	; 0x60
20020408:	1ec41866 	cdpne	8, 12, cr1, cr4, cr6, {3}
2002040c:	2d040af0 	vstrcs	s0, [r4, #-960]	; 0xfffffc40
20020410:	0e1e03b2 	mrceq	3, 0, r0, cr14, cr2, {5}
20020414:	061e06ee 	ldreq	r0, [lr], -lr, ror #13
20020418:	0410088f 	ldreq	r0, [r0], #-2191	; 0xfffff771
2002041c:	04400c06 	strbeq	r0, [r0], #-3078	; 0xfffff3fa
20020420:	1f06521d 	svcne	0x0006521d
20020424:	03eb3c06 	mvneq	r3, #1536	; 0x600
20020428:	13950f32 	orrsne	r0, r5, #50, 30	; 0xc8
2002042c:	1a25e000 	bne	20998434 <__initial_sp+0x97458c>
20020430:	1e126f78 	mrcne	15, 0, r6, cr2, cr8, {3}
20020434:	06d81de2 	ldrbeq	r1, [r8], r2, ror #27
20020438:	1881c013 	stmne	r1, {r0, r1, r4, lr, pc}
2002043c:	3fe00610 	svccc	0x00e00610
20020440:	28703c00 	ldmdacs	r0!, {sl, fp, ip, sp}^
20020444:	60300510 	eorsvs	r0, r0, r0, lsl r5
20020448:	22040200 	andcs	r0, r4, #0, 4
2002044c:	10110400 	andsne	r0, r1, r0, lsl #8
20020450:	0b180012 	bleq	206204a0 <__initial_sp+0x5fc5f8>
20020454:	94800010 	strls	r0, [r0], #16
20020458:	216e1332 	cmncs	lr, r2, lsr r3
2002045c:	12b611ae 	adcsne	r1, r6, #-2147483605	; 0x8000002b
20020460:	0c30be70 	ldceq	14, cr11, [r0], #-448	; 0xfffffe40
20020464:	001c39fc 			; <UNDEFINED> instruction: 0x001c39fc
20020468:	00380ffc 	ldrshteq	r0, [r8], -ip
2002046c:	e6300f0e 	ldrt	r0, [r0], -lr, lsl #30
20020470:	de1e0613 	mrcle	6, 0, r0, cr14, cr3, {0}
20020474:	14513b1a 	ldrbne	r3, [r1], #-2842	; 0xfffff4e6
20020478:	0018730a 	andseq	r7, r8, sl, lsl #6
2002047c:	001ce1fc 			; <UNDEFINED> instruction: 0x001ce1fc
20020480:	1e15c078 	mrcne	0, 0, ip, cr5, cr8, {3}
20020484:	2207f5c0 	andcs	pc, r7, #192, 10	; 0x30000000
20020488:	0c1104f0 	cfldrseq	mvf0, [r1], {240}	; 0xf0
2002048c:	f11c301b 			; <UNDEFINED> instruction: 0xf11c301b
20020490:	230a6929 	movwcs	r6, #43305	; 0xa929
20020494:	5a0aa610 	bpl	202c9cdc <__initial_sp+0x2a5e34>
20020498:	12052104 	andne	r2, r5, #4, 2
2002049c:	14330653 	ldrtne	r0, [r3], #-1619	; 0xfffff9ad
200204a0:	06281d89 	strteq	r1, [r8], -r9, lsl #27
200204a4:	ff80081c 			; <UNDEFINED> instruction: 0xff80081c
200204a8:	03e0001f 	mvneq	r0, #31
200204ac:	1408c17c 	strne	ip, [r8], #-380	; 0xfffffe84
200204b0:	1c01e007 	stcne	0, cr14, [r1], {7}
200204b4:	8a038000 	bhi	201004bc <__initial_sp+0xdc614>
200204b8:	0713040c 	ldreq	r0, [r3, -ip, lsl #8]
200204bc:	06f70004 	ldrbteq	r0, [r7], r4
200204c0:	210943cd 	smlabtcs	r9, sp, r3, r4
200204c4:	2135212d 	teqcs	r5, sp, lsr #2
200204c8:	0045213d 	subeq	r2, r5, sp, lsr r1
200204cc:	fc005b04 	stc2	11, cr5, [r0], {4}	; <UNPREDICTABLE>
200204d0:	0a2ee203 	beq	20bd8ce4 <__initial_sp+0xbb4e3c>
200204d4:	181a0494 	ldmdane	sl, {r2, r4, r7, sl}
200204d8:	03b04b31 	movseq	r4, #50176	; 0xc400
200204dc:	94fe5e39 	ldrbtls	r5, [lr], #3641	; 0xe39
200204e0:	14f05203 	ldrbtne	r5, [r0], #515	; 0x203
200204e4:	4a0e1c21 	bmi	203a7570 <__initial_sp+0x3836c8>
200204e8:	79038810 	stmdbvc	r3, {r4, fp, pc}
200204ec:	041101ac 	ldreq	r0, [r1], #-428	; 0xfffffe54
200204f0:	037ce01e 	cmneq	ip, #30
200204f4:	16010421 	strne	r0, [r1], -r1, lsr #8
200204f8:	db3b0d20 	blle	20ee3980 <__initial_sp+0xebfad8>
200204fc:	1d6a1904 			; <UNDEFINED> instruction: 0x1d6a1904
20020500:	381e0ea3 	ldmdacc	lr, {r0, r1, r5, r7, r9, sl, fp}
20020504:	600e08fd 	strdvs	r0, [lr], -sp
20020508:	1d04dbf8 	vstrne	d13, [r4, #-992]	; 0xfffffc20
2002050c:	1c010e8e 	stcne	14, cr0, [r1], {142}	; 0x8e
20020510:	bd520d04 	ldcllt	13, cr0, [r2, #-16]
20020514:	034c4d05 	movteq	r4, #52485	; 0xcd05
20020518:	58010461 	stmdapl	r1, {r0, r5, r6, sl}
2002051c:	0c981de2 	ldceq	13, cr1, [r8], {226}	; 0xe2
20020520:	06aa301e 	ssateq	r3, #11, lr
20020524:	041a3e1e 	ldreq	r3, [sl], #-3614	; 0xfffff1e2
20020528:	1d03d11d 	stfned	f5, [r3, #-116]	; 0xffffff8c
2002052c:	c01a07b9 			; <UNDEFINED> instruction: 0xc01a07b9
20020530:	03f833a9 	mvnseq	r3, #-1543503870	; 0xa4000002
20020534:	0de12d12 	stcleq	13, cr2, [r1, #72]!	; 0x48
20020538:	03884f0d 	orreq	r4, r8, #13, 30	; 0x34
2002053c:	1e054c3d 	mcrne	12, 0, r4, cr5, cr13, {1}
20020540:	3e0c2b80 	vmlacc.f64	d2, d28, d0
20020544:	1e05b9f0 			; <UNDEFINED> instruction: 0x1e05b9f0
20020548:	1e0aa60f 	cfmadd32ne	mvax0, mvfx10, mvfx10, mvfx15
2002054c:	1e04ba1f 			; <UNDEFINED> instruction: 0x1e04ba1f
20020550:	720b213c 	andvc	r2, fp, #60, 2
20020554:	10210438 	eorne	r0, r1, r8, lsr r4
20020558:	20211821 	eorcs	r1, r1, r1, lsr #16
2002055c:	140e2821 	strne	r2, [lr], #-2081	; 0xfffff7df
20020560:	090ca6c0 	stmdbeq	ip, {r6, r7, r9, sl, sp, pc}
20020564:	de2da629 	cfmadda32le	mvax1, mvax10, mvfx13, mvfx9
20020568:	b7018604 	strlt	r8, [r1, -r4, lsl #12]
2002056c:	50617056 	rsbpl	r7, r1, r6, asr r0
20020570:	3ffffc06 	svccc	0x00fffc06
20020574:	0104fe00 	tsteq	r4, r0, lsl #28	; <UNPREDICTABLE>
20020578:	601ee24b 	andsvs	lr, lr, fp, asr #4
2002057c:	78320a03 	ldmdavc	r2!, {r0, r1, r9, fp}
20020580:	1e3e1ec6 	cdpne	14, 3, cr1, cr14, cr6, {6}
20020584:	3f0d1c0c 	svccc	0x000d1c0c
20020588:	3b800e00 	blcc	1e023d90 <__lcctype_c_end+0x1601fd50>
2002058c:	39c00e00 	stmibcc	r0, {r9, sl, fp}^
20020590:	54e00e00 	strbtpl	r0, [r0], #3584	; 0xe00
20020594:	04701205 	ldrbteq	r1, [r0], #-517	; 0xfffffdfb
20020598:	3fe63c12 	svccc	0x00e63c12
2002059c:	0564381e 	strbeq	r3, [r4, #-2078]!	; 0xfffff7e2
200205a0:	03f8041c 	mvnseq	r0, #28, 8	; 0x1c000000
200205a4:	020e6838 	andeq	r6, lr, #56, 16	; 0x380000
200205a8:	1271383e 	rsbsne	r3, r1, #4063232	; 0x3e0000
200205ac:	4f457103 	svcmi	0x00457103
200205b0:	26511c16 			; <UNDEFINED> instruction: 0x26511c16
200205b4:	8f1d530e 	svchi	0x001d530e
200205b8:	1f046106 	svcne	0x00046106
200205bc:	06321e1e 			; <UNDEFINED> instruction: 0x06321e1e
200205c0:	1c3f0b4c 			; <UNDEFINED> instruction: 0x1c3f0b4c
200205c4:	1ff3f800 	svcne	0x00f3f800
200205c8:	0ff1f000 	svceq	0x00f1f000
200205cc:	370505ed 	strcc	r0, [r5, -sp, ror #11]
200205d0:	06732dc4 	ldrbteq	r2, [r3], -r4, asr #27
200205d4:	2d069c2d 	stccs	12, cr9, [r6, #-180]	; 0xffffff4c
200205d8:	ce120aaa 	vnmlsgt.f32	s0, s5, s21
200205dc:	39c71a04 	stmibcc	r7, {r2, r9, fp, ip}^
200205e0:	01c30514 	biceq	r0, r3, r4, lsl r5
200205e4:	1264e000 	rsbne	lr, r4, #0
200205e8:	1c120470 	cfldrsne	mvf0, [r2], {112}	; 0x70
200205ec:	5bfea608 	blpl	1ffc9e14 <__lcctype_c_end+0x17fc5dd4>
200205f0:	04617c25 	strbteq	r7, [r1], #-3109	; 0xfffff3db
200205f4:	046a370d 	strbteq	r3, [sl], #-1805	; 0xfffff8f3
200205f8:	031c0e10 	tsteq	ip, #16, 28	; 0x100
200205fc:	0f1ff000 	svceq	0x001ff000
20020600:	1f1ffe00 	svcne	0x001ffe00
20020604:	e20efe00 	and	pc, lr, #0, 28
20020608:	069f061e 			; <UNDEFINED> instruction: 0x069f061e
2002060c:	12040792 	andne	r0, r4, #38273024	; 0x2480000
20020610:	1e12f20f 	cdpne	2, 1, cr15, cr2, cr15, {0}
20020614:	fe052c18 	mcr2	12, 0, r2, cr5, cr8, {0}
20020618:	350e001f 	strcc	r0, [lr, #-31]	; 0xffffffe1
2002061c:	f0490b07 			; <UNDEFINED> instruction: 0xf0490b07
20020620:	0614a603 	ldreq	sl, [r4], -r3, lsl #12
20020624:	1c001e38 	stcne	14, cr1, [r0], {56}	; 0x38
20020628:	f61d531c 			; <UNDEFINED> instruction: 0xf61d531c
2002062c:	15047107 	strne	r7, [r4, #-263]	; 0xfffffef9
20020630:	3e1e1b53 			; <UNDEFINED> instruction: 0x3e1e1b53
20020634:	3d0a00ac 	stccc	0, cr0, [sl, #-688]	; 0xfffffd50
20020638:	38001ffc 	stmdacc	r0, {r2, r3, r4, r5, r6, r7, r8, r9, sl, fp, ip}
2002063c:	30000ff8 	strdcc	r0, [r0], -r8
20020640:	0eb271e0 	frdeqdz	f7, f2, f0
20020644:	1ace1104 	bne	1f3a4a5c <__lcctype_c_end+0x173a0a1c>
20020648:	f81239c0 			; <UNDEFINED> instruction: 0xf81239c0
2002064c:	0a5d1d04 	beq	21767a64 <__initial_sp+0x1743bbc>
20020650:	1e468e16 	mcrne	14, 2, r8, cr6, cr6, {0}
20020654:	4f0f65ce 	svcmi	0x000f65ce
20020658:	073801fe 			; <UNDEFINED> instruction: 0x073801fe
2002065c:	0d301e52 	ldceq	14, cr1, [r0, #-328]!	; 0xfffffeb8
20020660:	1d05bd3c 	stcne	13, cr11, [r5, #-240]	; 0xffffff10
20020664:	071c07c2 	ldreq	r0, [ip, -r2, asr #15]
20020668:	000fe1f0 	strdeq	lr, [pc], -r0
2002066c:	07f2f7f8 			; <UNDEFINED> instruction: 0x07f2f7f8
20020670:	251c373b 	ldrcs	r3, [ip, #-1851]	; 0xfffff8c5
20020674:	3e3335b9 	mrccc	5, 1, r3, cr3, cr9, {5}
20020678:	20211838 	eorcs	r1, r1, r8, lsr r8
2002067c:	f23d2821 	vadd.i64	d2, d13, d17
20020680:	533a0507 	teqpl	sl, #29360128	; 0x1c00000
20020684:	03e00b14 	mvneq	r0, #20, 22	; 0x5000
20020688:	0ff80006 	svceq	0x00f80006
2002068c:	1ffc000e 	svcne	0x00fc000e
20020690:	3f3e1637 	svccc	0x003e1637
20020694:	8303071d 	movwhi	r0, #14109	; 0x371d
20020698:	ac04380e 	stcge	8, cr3, [r4], {14}
2002069c:	1c1c1e07 	ldcne	14, cr1, [ip], {7}
200206a0:	f90e3c00 			; <UNDEFINED> instruction: 0xf90e3c00
200206a4:	09410d03 	stmdbeq	r1, {r0, r1, r8, sl, fp}^
200206a8:	60801e0b 	addvs	r1, r0, fp, lsl #28
200206ac:	0d046103 	stfeqs	f6, [r4, #-12]
200206b0:	110b7a63 	tstne	fp, r3, ror #20
200206b4:	04021271 	streq	r1, [r2], #-625	; 0xfffffd8f
200206b8:	035c040c 	cmpeq	ip, #12, 8	; 0xc000000
200206bc:	069f0380 	ldreq	r0, [pc], r0, lsl #7
200206c0:	05c30f6e 	strbeq	r0, [r3, #3950]	; 0xf6e
200206c4:	4110791d 	tstmi	r0, sp, lsl r9
200206c8:	04365204 	ldrteq	r5, [r6], #-516	; 0xfffffdfc
200206cc:	4d046342 	stcmi	3, cr6, [r4, #-264]	; 0xfffffef8
200206d0:	131d0b0d 	tstne	sp, #13312	; 0x3400
200206d4:	12a41d0a 	adcne	r1, r4, #640	; 0x280
200206d8:	252d0421 	strcs	r0, [sp, #-1057]!	; 0xfffffbdf
200206dc:	0e042104 	adfeqs	f2, f4, f4
200206e0:	05db3035 	ldrbeq	r3, [fp, #53]	; 0x35
200206e4:	0205bd4d 	andeq	fp, r5, #4928	; 0x1340
200206e8:	0d04c134 	stfeqd	f4, [r4, #-208]	; 0xffffff30
200206ec:	2204db37 	andcs	sp, r4, #56320	; 0xdc00
200206f0:	be21b630 	mcrlt	6, 1, fp, cr1, cr0, {1}
200206f4:	c053c651 	subsgt	ip, r3, r1, asr r6
200206f8:	618255c0 	orrvs	r5, r2, r0, asr #11
200206fc:	65fa71ea 	ldrbvs	r7, [sl, #490]!	; 0x1ea
20020700:	63350d0a 	teqvs	r5, #640	; 0x280
20020704:	12563d08 	subsne	r3, r6, #8, 26	; 0x200
20020708:	3d0b301d 	stccc	0, cr3, [fp, #-116]	; 0xffffff8c
2002070c:	7c520b51 	mrrcvc	11, 5, r0, r2, cr1
20020710:	03982d4c 	orrseq	r2, r8, #76, 26	; 0x1300
20020714:	05bd061e 	ldreq	r0, [sp, #1566]!	; 0x61e
20020718:	04f00613 	ldrbteq	r0, [r0], #1555	; 0x613
2002071c:	05bd782e 	ldreq	r7, [sp, #2094]!	; 0x82e
20020720:	4e048d1d 	mcrmi	13, 0, r8, cr4, cr13, {0}
20020724:	5e0b9a0e 	vmlapl.f32	s18, s22, s28
20020728:	0d096df8 	stceq	13, cr6, [r9, #-992]	; 0xfffffc20
2002072c:	7e0a9836 	mcrvc	8, 0, r9, cr10, cr6, {1}
20020730:	2e0a6c1c 	mcrcs	12, 0, r6, cr10, cr12, {0}
20020734:	1d03def8 	stcne	14, cr13, [r3, #-992]	; 0xfffffc20
20020738:	073e0cb5 			; <UNDEFINED> instruction: 0x073e0cb5
2002073c:	2f1d0a35 	svccs	0x001d0a35
20020740:	c01d2012 	andsgt	r2, sp, r2, lsl r0
20020744:	87e03801 	strbhi	r3, [r0, r1, lsl #16]!
20020748:	0ff81803 	svceq	0x00f81803
2002074c:	1ffe1c07 	svcne	0x00fe1c07
20020750:	3c1f0c06 	ldccc	12, cr0, [pc], {6}
20020754:	30070e06 	andcc	r0, r7, r6, lsl #28
20020758:	3003860e 	andcc	r8, r3, lr, lsl #12
2002075c:	0401860c 	streq	r8, [r1], #-1548	; 0xfffff9f4
20020760:	10041812 	andne	r1, r4, r2, lsl r8
20020764:	060c0c0c 	streq	r0, [ip], -ip, lsl #24
20020768:	060c1f03 	streq	r1, [ip], -r3, lsl #30
2002076c:	860c3fff 			; <UNDEFINED> instruction: 0x860c3fff
20020770:	8c0c1c04 	stchi	12, cr1, [ip], {4}
20020774:	8c0c31ff 	stfhis	f3, [ip], {255}	; 0xff
20020778:	1c043007 	stcne	0, cr3, [r4], {7}
2002077c:	051d1800 	ldreq	r1, [sp, #-2048]	; 0xfffff800
20020780:	2906181f 	stmdbcs	r6, {r0, r1, r2, r3, r4, fp, ip}
20020784:	030c1c0c 	movweq	r1, #52236	; 0xcc0c
20020788:	030781e0 	movweq	r8, #29152	; 0x71e0
2002078c:	0181ffc0 	orreq	pc, r1, r0, asr #31
20020790:	13d47e00 	bicsne	r7, r4, #0, 28
20020794:	eb40002f 	bl	21020858 <__initial_sp+0xffc9b0>
20020798:	07f22d0b 	ldrbeq	r2, [r2, fp, lsl #26]!
2002079c:	805fc311 	subshi	ip, pc, r1, lsl r3	; <UNPREDICTABLE>
200207a0:	2d07f63f 	stccs	6, cr15, [r7, #-252]	; 0xffffff04
200207a4:	b22d1245 	eorlt	r1, sp, #1342177284	; 0x50000004
200207a8:	1e841109 	rmfnes	f1, f4, #1.0
200207ac:	1d0dcbe3 	vstrne	d12, [sp, #-908]	; 0xfffffc74
200207b0:	0e4308f0 	mcreq	8, 2, r0, cr3, cr0, {7}
200207b4:	102108e0 	eorne	r0, r1, r0, ror #17
200207b8:	20211821 	eorcs	r1, r1, r1, lsr #16
200207bc:	262d2831 			; <UNDEFINED> instruction: 0x262d2831
200207c0:	21382108 	teqcs	r8, r8, lsl #2
200207c4:	0d483140 	stfeqe	f3, [r8, #-256]	; 0xffffff00
200207c8:	7e0b7a20 	vmlavc.f32	s14, s22, s1
200207cc:	9d0e9111 	stflsd	f1, [lr, #-68]	; 0xffffffbc
200207d0:	9bad0612 	blls	1eb62020 <__lcctype_c_end+0x16b5dfe0>
200207d4:	3d04e106 	stfccd	f6, [r4, #-24]	; 0xffffffe8
200207d8:	ab6d0718 	blge	21b62440 <__initial_sp+0x1b3e598>
200207dc:	76310d06 	ldrtvc	r0, [r1], -r6, lsl #26
200207e0:	0ccd4d04 	stcleq	13, cr4, [sp], {4}
200207e4:	4c13a11d 	ldfmid	f2, [r3], {29}
200207e8:	03ffe004 	mvnseq	lr, #4
200207ec:	f21d0867 	vadd.i16	q0, <illegal reg q6.5>, <illegal reg q11.5>
200207f0:	046c1d0c 	strbteq	r1, [ip], #-3340	; 0xfffff2f4
200207f4:	fe07181d 	vfmal.f16	d1, s14, s10[1]
200207f8:	ad086b1c 	vstrge	d6, [r8, #-112]	; 0xffffff90
200207fc:	1e210873 	mcrne	8, 1, r0, cr1, cr3, {3}
20020800:	06de7c1e 			; <UNDEFINED> instruction: 0x06de7c1e
20020804:	0cddf81e 	ldcleq	8, cr15, [sp], {30}
20020808:	0d0df01e 	stceq	0, cr15, [sp, #-120]	; 0xffffff88
2002080c:	80402a03 	subhi	r2, r0, r3, lsl #20
20020810:	01e2e171 	mvneq	lr, r1, ror r1
20020814:	71c16511 	bicvc	r6, r1, r1, lsl r5
20020818:	21951c32 	orrscs	r1, r5, r2, lsr ip
2002081c:	21a5219d 			; <UNDEFINED> instruction: 0x21a5219d
20020820:	540404ad 	strpl	r0, [r4], #-1197	; 0xfffffb53
20020824:	53007f80 	movwpl	r7, #3968	; 0xf80
20020828:	2d0d04f1 	cfstrscs	mvf0, [sp, #-964]	; 0xfffffc3c
2002082c:	14020a57 	strne	r0, [r2], #-2647	; 0xfffff5a9
20020830:	20027110 	andcs	r7, r2, r0, lsl r1
20020834:	350d0400 	strcc	r0, [sp, #-1024]	; 0xfffffc00
20020838:	156606a7 	strbne	r0, [r6, #-1703]!	; 0xfffff959
2002083c:	2bc06ec4 	blcs	1f03c354 <__lcctype_c_end+0x17038314>
20020840:	2d27150a 	cfstr32cs	mvfx1, [r7, #-40]!	; 0xffffffd8
20020844:	c86508e0 	stmdagt	r5!, {r5, r6, r7, fp}^
20020848:	adc80ee6 	stclge	14, cr0, [r8, #920]	; 0x398
2002084c:	384f0646 	stmdacc	pc, {r1, r2, r6, r9, sl}^	; <UNPREDICTABLE>
20020850:	1d0f873c 	stcne	7, cr8, [pc, #-240]	; 20020768 <Arial12x12+0x768>
20020854:	f81e0f8b 			; <UNDEFINED> instruction: 0xf81e0f8b
20020858:	f0120799 			; <UNDEFINED> instruction: 0xf0120799
2002085c:	401c0b04 	andsmi	r0, ip, r4, lsl #22
20020860:	120645f8 	andne	r4, r6, #248, 10	; 0x3e000000
20020864:	587dc412 	ldmdapl	sp!, {r1, r4, sl, lr, pc}^
20020868:	041d0105 	ldreq	r0, [sp], #-261	; 0xfffffefb
2002086c:	47fe310e 	ldrbmi	r3, [lr, lr, lsl #2]!
20020870:	0513020a 	ldreq	r0, [r3, #-522]	; 0xfffffdf6
20020874:	2e590d71 	mrccs	13, 2, r0, cr9, cr1, {3}
20020878:	c70c7e06 	strgt	r7, [ip, -r6, lsl #28]
2002087c:	0a231d12 	beq	208e7ccc <__initial_sp+0x8c3e24>
20020880:	3cde0441 	cfldrdcc	mvd0, [lr], {65}	; 0x41
20020884:	3c120c68 	ldccc	12, cr0, [r2], {104}	; 0x68
20020888:	095d1d85 	ldmdbeq	sp, {r0, r2, r7, r8, sl, fp, ip}^
2002088c:	0c0b761d 	stceq	6, cr7, [fp], {29}
20020890:	fffe3f04 			; <UNDEFINED> instruction: 0xfffe3f04
20020894:	0d0f7307 	stceq	3, cr7, [pc, #-28]	; 20020880 <Arial12x12+0x880>
20020898:	3d031713 	stccc	7, cr1, [r3, #-76]	; 0xffffffb4
2002089c:	556d0cd4 	strbpl	r0, [sp, #-3284]!	; 0xfffff32c
200208a0:	044d5d05 	strbeq	r5, [sp], #-3333	; 0xfffff2fb
200208a4:	6679c01f 			; <UNDEFINED> instruction: 0x6679c01f
200208a8:	00f03f04 	rscseq	r3, r0, r4, lsl #30
200208ac:	381e0a3b 	ldmdacc	lr, {r0, r1, r3, r4, r5, r9, fp}
200208b0:	1c1610c3 	ldcne	0, cr1, [r6], {195}	; 0xc3
200208b4:	c40e1ee8 	strgt	r1, [lr], #-3816	; 0xfffff118
200208b8:	43061e0a 	movwmi	r1, #28170	; 0x6e0a
200208bc:	ff021e03 			; <UNDEFINED> instruction: 0xff021e03
200208c0:	02130e05 	andseq	r0, r3, #5, 28	; 0x50
200208c4:	190d1b60 	stmdbne	sp, {r5, r6, r8, r9, fp, ip}
200208c8:	90c50beb 	sbcls	r0, r5, fp, ror #23
200208cc:	04382502 	ldrteq	r2, [r8], #-1282	; 0xfffffafe
200208d0:	dda63609 	stcle	6, cr3, [r6, #36]!	; 0x24
200208d4:	3a2d04db 	bcc	20b61c48 <__initial_sp+0xb3dda0>
200208d8:	140e2d0d 	strne	r2, [lr], #-3341	; 0xfffff2f3
200208dc:	116bf02e 	msrne	SPSR_fxc, lr, lsr #32
200208e0:	1d0f022d 	sfmne	f0, 4, [pc, #-180]	; 20020834 <Arial12x12+0x834>
200208e4:	344d09c2 	strbcc	r0, [sp], #-2498	; 0xfffff63e
200208e8:	74384e05 	ldrtvc	r4, [r8], #-3589	; 0xfffff1fb
200208ec:	2d102105 	ldfcss	f2, [r0, #-20]	; 0xffffffec
200208f0:	3f42049a 	svccc	0x0042049a
200208f4:	3e290a28 	vmulcc.f32	s0, s18, s17
200208f8:	a6130904 	ldrge	r0, [r3], -r4, lsl #18
200208fc:	2d06a72d 	stccs	7, cr10, [r6, #-180]	; 0xffffff4c
20020900:	7f2d1609 	svcvc	0x002d1609
20020904:	df80660a 	svcle	0x0080660a
20020908:	f0a21521 			; <UNDEFINED> instruction: 0xf0a21521
2002090c:	1e330a15 			; <UNDEFINED> instruction: 0x1e330a15
20020910:	88130da6 	ldmdahi	r3, {r1, r2, r5, r7, r8, sl, fp}
20020914:	883c1e03 	ldmdahi	ip!, {r0, r1, r9, sl, fp, ip}
20020918:	021c5203 	andseq	r5, ip, #805306368	; 0x30000000
2002091c:	04df160d 	ldrbeq	r1, [pc], #1549	; 20020924 <Arial12x12+0x924>
20020920:	e3ad2061 			; <UNDEFINED> instruction: 0xe3ad2061
20020924:	0dc73d04 	stcleq	13, cr3, [r7, #16]
20020928:	db7f330e 	blle	21fed568 <__initial_sp+0x1fc96c0>
2002092c:	6a190d04 	bvs	20663d44 <__initial_sp+0x63fe9c>
20020930:	12f71d04 	rscsne	r1, r7, #4, 26	; 0x100
20020934:	078d1e2e 	streq	r1, [sp, lr, lsr #28]
20020938:	07430f4e 	strbeq	r0, [r3, -lr, asr #30]
2002093c:	0bf62e0d 	bleq	1fdac178 <__lcctype_c_end+0x17da8138>
20020940:	02e21501 	rsceq	r1, r2, #4194304	; 0x400000
20020944:	1ee20e15 	mcrne	14, 7, r0, cr2, cr5, {0}
20020948:	1d047a3a 	vstrne	s14, [r4, #-232]	; 0xffffff18
2002094c:	d73d0dcb 	ldrle	r0, [sp, -fp, asr #27]!
20020950:	06524d0d 	ldrbeq	r4, [r2], -sp, lsl #26
20020954:	0ea93c2e 	cdpeq	12, 10, cr3, cr9, cr14, {1}
20020958:	041cd815 	ldreq	sp, [ip], #-2069	; 0xfffff7eb
2002095c:	ae77fff0 	mrcge	15, 3, APSR_nzcv, cr7, cr0, {7}
20020960:	3b711e04 	blcc	21c68178 <__initial_sp+0x1c442d0>

20020964 <Arial28x28>:
D:\#Documents\UVISION\SMART_WAKE_UP/./st7920_fonts.h:116
20020964:	20300a1f 	eorscs	r0, r0, pc, lsl sl
20020968:	de170135 	mrcle	1, 0, r0, cr7, cr5, {1}
2002096c:	16086b1d 			; <UNDEFINED> instruction: 0x16086b1d
20020970:	0e1ee10e 	mnfeqe	f6, #0.5
20020974:	0b1c175c 	bleq	207266ec <__initial_sp+0x702844>
20020978:	0001de1e 	andeq	sp, r1, lr, lsl lr
2002097c:	0003ce1e 	andeq	ip, r3, lr, lsl lr
20020980:	06a38ffc 			; <UNDEFINED> instruction: 0x06a38ffc
20020984:	6f14821d 	svcvs	0x0014821d
20020988:	03c003f0 	biceq	r0, r0, #240, 6	; 0xc0000003
2002098c:	8120210e 			; <UNDEFINED> instruction: 0x8120210e
20020990:	0c801e07 	stceq	14, cr1, [r0], {7}
20020994:	07814f07 	streq	r4, [r1, r7, lsl #30]
20020998:	3d1114c3 	cfldrscc	mvf1, [r1, #-780]	; 0xfffffcf4
2002099c:	44071c1f 	strmi	r1, [r7], #-3103	; 0xfffff3e1
200209a0:	d10e9e05 	tstle	lr, r5, lsl #28
200209a4:	077d6d0c 	ldrbeq	r6, [sp, -ip, lsl #26]!
200209a8:	1d14c33d 	ldcne	3, cr12, [r4, #-244]	; 0xffffff0c
200209ac:	781e0eb9 	ldmdavc	lr, {r0, r3, r4, r5, r7, r9, sl, fp}
200209b0:	c71d13e5 	ldrgt	r1, [sp, -r5, ror #7]
200209b4:	60300f14 	eorsvs	r0, r0, r4, lsl pc
200209b8:	ff0e2cf0 			; <UNDEFINED> instruction: 0xff0e2cf0
200209bc:	0ccd0e11 	stcleq	14, cr0, [sp], {17}
200209c0:	cd0cd98d 	vstrgt.16	s26, [ip, #-282]	; 0xfffffee6	; <UNPREDICTABLE>
200209c4:	18010724 	stmdane	r1, {r2, r5, r8, r9, sl}
200209c8:	6a2a0d28 	bvs	20aa3e70 <__initial_sp+0xa7ffc8>
200209cc:	05bd9d04 	ldreq	r9, [sp, #3332]!	; 0xd04
200209d0:	3e0e792d 	vmlacc.f16	s14, s28, s27	; <UNPREDICTABLE>
200209d4:	0d04c307 	stceq	3, cr12, [r4, #-28]	; 0xffffffe4
200209d8:	ad04e314 	stcge	3, cr14, [r4, #-80]	; 0xffffffb0
200209dc:	1c5e03f5 	mrrcne	3, 15, r0, lr, cr5
200209e0:	ef4d0317 	svc	0x004d0317
200209e4:	fe290e04 	cdp2	14, 2, cr0, cr9, cr4, {0}
200209e8:	135f1065 	cmpne	pc, #101	; 0x65
200209ec:	2d0d8302 	stccs	3, cr8, [sp, #-8]
200209f0:	6c2d1364 	stcvs	3, cr1, [sp], #-400	; 0xfffffe70
200209f4:	15582d0e 	ldrbne	r2, [r8, #-3342]	; 0xfffff2f2
200209f8:	1d1cdc3d 	ldcne	12, cr13, [ip, #-244]	; 0xffffff0c
200209fc:	001e0e08 	andseq	r0, lr, r8, lsl #28
20020a00:	001e0db7 			; <UNDEFINED> instruction: 0x001e0db7
20020a04:	5b7d0ff4 	blpl	21f649dc <__initial_sp+0x1f40b34>
20020a08:	21102111 	tstcs	r0, r1, lsl r1
20020a0c:	2d611918 			; <UNDEFINED> instruction: 0x2d611918
20020a10:	372d1580 	strcc	r1, [sp, -r0, lsl #11]!
20020a14:	c3fe5e0a 	mvnsgt	r5, #10, 28	; 0xa0
20020a18:	02250e0d 	eoreq	r0, r5, #13, 28	; 0xd0
20020a1c:	1b360a27 	blne	20da32c0 <__initial_sp+0xd7f418>
20020a20:	13d52d3b 	bicsne	r2, r5, #3776	; 0xec0
20020a24:	135c3f4e 	cmpne	ip, #312	; 0x138
20020a28:	c0ce0931 	sbcgt	r0, lr, r1, lsr r9
20020a2c:	f02d0456 			; <UNDEFINED> instruction: 0xf02d0456
20020a30:	f8f01e16 			; <UNDEFINED> instruction: 0xf8f01e16
20020a34:	07fe4f08 	ldrbeq	r4, [lr, r8, lsl #30]!
20020a38:	34a10e24 	strtcc	r0, [r1], #3620	; 0xe24
20020a3c:	2e0d4e2d 	cdpcs	14, 0, cr4, cr13, cr13, {1}
20020a40:	020f8b00 	andeq	r8, pc, #0, 22
20020a44:	9234e010 	eorsls	lr, r4, #16
20020a48:	068e34f8 			; <UNDEFINED> instruction: 0x068e34f8
20020a4c:	203e1612 	eorscs	r1, lr, r2, lsl r6
20020a50:	063e057d 			; <UNDEFINED> instruction: 0x063e057d
20020a54:	1f2d03c3 	svcne	0x002d03c3
20020a58:	07811d09 	streq	r1, [r1, r9, lsl #26]
20020a5c:	1d0e303d 	stcne	0, cr3, [lr, #-244]	; 0xffffff0c
20020a60:	fb5e0fec 	blx	217a4a1a <__initial_sp+0x1780b72>
20020a64:	1e5e04d2 	mrcne	4, 2, r0, cr14, cr2, {6}
20020a68:	101105c1 	andsne	r0, r1, r1, asr #11
20020a6c:	20211821 	eorcs	r1, r1, r1, lsr #16
20020a70:	30212821 	eorcc	r2, r1, r1, lsr #16
20020a74:	bd2d3821 	stclt	8, cr3, [sp, #-132]!	; 0xffffff7c
20020a78:	00250e05 	eoreq	r0, r5, r5, lsl #28
20020a7c:	533505bd 	teqpl	r5, #792723456	; 0x2f400000
20020a80:	6e570e56 	mrcvs	14, 2, r0, cr7, cr6, {2}
20020a84:	5e04d33c 	mcrpl	3, 0, sp, cr4, cr12, {1}
20020a88:	2509fe01 	strcs	pc, [r9, #-3585]	; 0xfffff1ff
20020a8c:	3cfe5ecf 	ldclcc	14, cr5, [lr], #828	; 0x33c
20020a90:	3ffc3f05 	svccc	0x00fc3f05
20020a94:	ec2d04e3 	cfstrs	mvf0, [sp], #-908	; 0xfffffc74
20020a98:	04f32d16 	ldrbteq	r2, [r3], #3350	; 0xd16
20020a9c:	04eef05e 	strbteq	pc, [lr], #94	; 0x5e	; <UNPREDICTABLE>
20020aa0:	050f126d 	streq	r1, [pc, #-621]	; 2002083b <Arial12x12+0x83b>
20020aa4:	985d5326 	ldmdals	sp, {r1, r2, r5, r8, r9, ip, lr}^
20020aa8:	127a2d0a 	rsbsne	r2, sl, #640	; 0x280
20020aac:	1d9f3e1e 	ldcne	14, cr3, [pc, #120]	; 20020b2c <Arial28x28+0x1c8>
20020ab0:	1e11a49d 	cfcmpsne	sl, mvf1, mvf13
20020ab4:	3d11a4f0 	cfldrscc	mvf10, [r1, #-960]	; 0xfffffc40
20020ab8:	e42d0be7 	strt	r0, [sp], #-3047	; 0xfffff419
20020abc:	105d4d0f 	subsne	r4, sp, pc, lsl #26
20020ac0:	11a48e1e 			; <UNDEFINED> instruction: 0x11a48e1e
20020ac4:	11a4ce1e 			; <UNDEFINED> instruction: 0x11a4ce1e
20020ac8:	22adee1e 	adccs	lr, sp, #480	; 0x1e0
20020acc:	3e047e12 	mcrcc	14, 0, r7, cr4, cr2, {0}
20020ad0:	0d0a333e 	stceq	3, cr3, [sl, #-248]	; 0xffffff08
20020ad4:	3d09452c 	cfstr32cc	mvfx4, [r9, #-176]	; 0xffffff50
20020ad8:	05601b7a 	strbeq	r1, [r0, #-2938]!	; 0xfffff486
20020adc:	0ffffffe 	svceq	0x00fffffe
20020ae0:	d90e4e04 	stmdble	lr, {r2, r9, sl, fp, lr}
20020ae4:	0d043117 	stfeqs	f3, [r4, #-92]	; 0xffffffa4
20020ae8:	4a13dd53 	bmi	2051803c <__initial_sp+0x4f4194>
20020aec:	a53d8006 	ldrge	r8, [sp, #-6]!
20020af0:	13d92d0c 	bicsne	r2, r9, #12, 26	; 0x300
20020af4:	3d13e12d 	ldfccd	f6, [r3, #-180]	; 0xffffff4c
20020af8:	16310bc3 	ldrtne	r0, [r1], -r3, asr #23
20020afc:	4e304f0e 	cdpmi	15, 3, cr4, cr0, cr14, {0}
20020b00:	d206a214 	andle	sl, r6, #20, 4	; 0x40000001
20020b04:	560deaa1 	strpl	lr, [sp], -r1, lsr #21
20020b08:	0e7e0f02 	cdpeq	15, 7, cr0, cr14, cr2, {0}
20020b0c:	0e5e0f02 	cdpeq	15, 5, cr0, cr14, cr2, {0}
20020b10:	014a18fd 	strdeq	r1, [sl, #-141]	; 0xffffff73
20020b14:	ff3c5a11 			; <UNDEFINED> instruction: 0xff3c5a11
20020b18:	13ed3c5e 	mvnne	r3, #24064	; 0x5e00
20020b1c:	3d127d2d 	ldccc	13, cr7, [r2, #-180]	; 0xffffff4c
20020b20:	0e520707 	cdpeq	7, 5, cr0, cr2, cr7, {0}
20020b24:	af350d30 	svcge	0x00350d30
20020b28:	49185e0d 	ldmdbmi	r8, {r0, r2, r3, r9, sl, fp, ip, lr}
20020b2c:	045a0109 	ldrbeq	r0, [sl], #-265	; 0xfffffef7
20020b30:	4d2365ed 	cfstr32mi	mvfx6, [r3, #-948]!	; 0xfffffc4c
20020b34:	069e247d 			; <UNDEFINED> instruction: 0x069e247d
20020b38:	5f0e031f 	svcpl	0x000e031f
20020b3c:	1e105518 	mrcne	5, 0, r5, cr0, cr8, {0}
20020b40:	1e14220c 	cdpne	2, 1, cr2, cr4, cr12, {0}
20020b44:	1e160b8e 	vnmlsne.f64	d0, d22, d14
20020b48:	1f12778f 	svcne	0x0012778f
20020b4c:	1b5239c3 	blne	214af260 <__initial_sp+0x148b3b8>
20020b50:	1e043092 	mcrne	0, 0, r3, cr4, cr2, {4}
20020b54:	4c0f7b10 			; <UNDEFINED> instruction: 0x4c0f7b10
20020b58:	80001806 	andhi	r1, r0, r6, lsl #16
20020b5c:	18d80c63 	ldmne	r8, {r0, r1, r5, r6, sl, fp}^
20020b60:	2d04562d 	stccs	6, cr5, [r4, #-180]	; 0xffffff4c
20020b64:	250d048e 	strcs	r0, [sp, #-1166]	; 0xfffffb72
20020b68:	130d09a6 	movwne	r0, #55718	; 0xd9a6
20020b6c:	76bd0f73 			; <UNDEFINED> instruction: 0x76bd0f73
20020b70:	ea071e0b 	b	201e83a4 <__initial_sp+0x1c44fc>
20020b74:	6103121a 	tstvs	r3, sl, lsl r2
20020b78:	04300183 	ldrteq	r0, [r0], #-387	; 0xfffffe7d
20020b7c:	1d11bc2d 	ldcne	12, cr11, [r1, #-180]	; 0xffffff4c
20020b80:	002206b3 	strhteq	r0, [r2], -r3
20020b84:	0ffe4f71 	svceq	0x00fe4f71
20020b88:	350916a4 	strcc	r1, [r9, #-1700]	; 0xfffff95c
20020b8c:	6f0d4e35 	svcvs	0x000d4e35
20020b90:	4903420f 	stmdbmi	r3, {r0, r1, r2, r3, r9, lr}
20020b94:	1d199a2d 	vldrne	s18, [r9, #-180]	; 0xffffff4c
20020b98:	213d070c 	teqcs	sp, ip, lsl #14
20020b9c:	4f71e112 	svcmi	0x0071e112
20020ba0:	039e1e0f 	orrseq	r1, lr, #15, 28	; 0xf0
20020ba4:	060c410b 	streq	r4, [ip], -fp, lsl #2
20020ba8:	711d01a6 	tstvc	sp, r6, lsr #3
20020bac:	fa21f221 	blx	2089d438 <__initial_sp+0x879590>
20020bb0:	0c0f420d 	sfmeq	f4, 4, [pc], {13}
20020bb4:	1e711001 	cdpne	0, 7, cr1, cr1, cr1, {0}
20020bb8:	1e1a8e67 	cdpne	14, 1, cr8, cr10, cr7, {3}
20020bbc:	831d1663 	tsthi	sp, #103809024	; 0x6300000
20020bc0:	11043061 	tstne	r4, r1, rrx
20020bc4:	67001f10 	smladvs	r0, r0, pc, r1	; <UNPREDICTABLE>
20020bc8:	7f1e1008 	svcvc	0x001e1008
20020bcc:	7e1e1c39 	mrcvc	12, 0, r1, cr14, cr9, {1}
20020bd0:	38020340 	stmdacc	r2, {r6, r8, r9}
20020bd4:	092ee678 	stmdbeq	lr!, {r3, r4, r5, r6, r9, sl, sp, lr, pc}
20020bd8:	04212505 	strteq	r2, [r1], #-1285	; 0xfffffafb
20020bdc:	0cc9f81e 	stcleq	8, cr15, [r9], {30}
20020be0:	1e17556d 	cfmsc32ne	mvfx5, mvfx7, mvfx13
20020be4:	611a7886 	tstvs	sl, r6, lsl #17
20020be8:	06530e04 	ldrbeq	r0, [r3], -r4, lsl #28
20020bec:	f81f03f9 			; <UNDEFINED> instruction: 0xf81f03f9
20020bf0:	1407ef83 	strne	lr, [r7], #-3971	; 0xfffff07d
20020bf4:	00078f07 	andeq	r8, r7, r7, lsl #30
20020bf8:	c4079fff 	strgt	r9, [r7], #-4095	; 0xfffff001
20020bfc:	13740e1e 	cmnne	r4, #480	; 0x1e0
20020c00:	71bc0c16 			; <UNDEFINED> instruction: 0x71bc0c16
20020c04:	20451904 	subcs	r1, r5, r4, lsl #18
20020c08:	06000e09 	streq	r0, [r0], -r9, lsl #28
20020c0c:	ff80071c 			; <UNDEFINED> instruction: 0xff80071c
20020c10:	031204ff 	tsteq	r2, #-16777216	; 0xff000000
20020c14:	713c0104 	teqvc	ip, r4, lsl #2
20020c18:	064ea6b9 			; <UNDEFINED> instruction: 0x064ea6b9
20020c1c:	fa61237f 	blx	21869a20 <__initial_sp+0x1845b78>
20020c20:	e22d0471 	eor	r0, sp, #1895825408	; 0x71000000
20020c24:	03132d23 	tsteq	r3, #2240	; 0x8c0
20020c28:	0d03177d 	stceq	7, cr1, [r3, #-500]	; 0xfffffe0c
20020c2c:	3d1a0b34 	vldrcc	d0, [sl, #-208]	; 0xffffff30
20020c30:	8e161d22 	cdphi	13, 1, cr1, cr6, cr2, {1}
20020c34:	0d04614f 	stfeqs	f6, [r4, #-316]	; 0xfffffec4
20020c38:	2120395e 			; <UNDEFINED> instruction: 0x2120395e
20020c3c:	8e0c1f71 	mcrhi	15, 0, r1, cr12, cr1, {3}
20020c40:	041105b1 	ldreq	r0, [r1], #-1457	; 0xfffffa4f
20020c44:	0e040712 	mcreq	7, 0, r0, cr4, cr2, {0}
20020c48:	1d93035e 	ldcne	3, cr0, [r3, #376]	; 0x178
20020c4c:	0e1c0ffe 	mrceq	15, 0, r0, cr12, cr14, {7}
20020c50:	2d199b6d 	vldrcs	d9, [r9, #-436]	; 0xfffffe4c
20020c54:	4d1d137d 	ldcmi	3, cr1, [sp, #-500]	; 0xfffffe0c
20020c58:	ed001e22 	stc	14, cr1, [r0, #-136]	; 0xffffff78
20020c5c:	df00160a 	svcle	0x0000160a
20020c60:	1eea001e 	mcrne	0, 7, r0, cr10, cr14, {0}
20020c64:	0380041c 	orreq	r0, r0, #28, 8	; 0x1c000000
20020c68:	1d25631e 	stcne	3, cr6, [r5, #-120]!	; 0xffffff88
20020c6c:	290d0333 	stmdbcs	sp, {r0, r1, r4, r5, r8, r9}
20020c70:	13050853 	movwne	r0, #22611	; 0x5853
20020c74:	6f660d53 	svcvs	0x00660d53
20020c78:	1fc82d0f 	svcne	0x00c82d0f
20020c7c:	1847164e 	stmdane	r7, {r1, r2, r3, r6, r9, sl, ip}^
20020c80:	09043f72 	stmdbeq	r4, {r1, r4, r5, r6, r8, r9, sl, fp, ip, sp}
20020c84:	03423513 	movteq	r3, #9491	; 0x2513
20020c88:	05487d24 	strbeq	r7, [r8, #-3364]	; 0xfffff2dc
20020c8c:	09242201 	stmdbeq	r4!, {r0, r9, sp}
20020c90:	1f01a61a 	svcne	0x0001a61a
20020c94:	a6490971 			; <UNDEFINED> instruction: 0xa6490971
20020c98:	4c0e270e 	stcmi	7, cr2, [lr], {14}
20020c9c:	bd450d05 	stcllt	13, cr0, [r5, #-20]	; 0xffffffec
20020ca0:	63e25105 	mvnvs	r5, #1073741825	; 0x40000001
20020ca4:	3d040fff 	stccc	15, cr0, [r4, #-1020]	; 0xfffffc04
20020ca8:	590d1267 	stmdbpl	sp, {r0, r1, r2, r5, r6, r9, ip}
20020cac:	280d062e 	stmdacs	sp, {r1, r2, r3, r5, r9, sl}
20020cb0:	b01d05bd 			; <UNDEFINED> instruction: 0xb01d05bd
20020cb4:	0d99b10d 	ldfeqd	f3, [r9, #52]	; 0x34
20020cb8:	091fc836 	ldmdbeq	pc, {r1, r2, r4, r5, fp, lr, pc}	; <UNPREDICTABLE>
20020cbc:	160e351f 			; <UNDEFINED> instruction: 0x160e351f
20020cc0:	0d2c5a03 	vstmdbeq	ip!, {s10-s12}
20020cc4:	1e07103a 	mcrne	0, 0, r1, cr7, cr10, {1}
20020cc8:	3f2b201e 	svccc	0x002b201e
20020ccc:	060e1e3f 			; <UNDEFINED> instruction: 0x060e1e3f
20020cd0:	5c73801f 	ldclpl	0, cr8, [r3], #-124	; 0xffffff84
20020cd4:	f2f11e23 			; <UNDEFINED> instruction: 0xf2f11e23
20020cd8:	04e12207 	strbteq	r2, [r1], #519	; 0x207
20020cdc:	00310a10 	eorseq	r0, r1, r0, lsl sl
20020ce0:	0031c380 	eorseq	ip, r1, r0, lsl #7
20020ce4:	0439cf00 	ldrteq	ip, [r9], #-3840	; 0xfffff100
20020ce8:	af08121d 	svcge	0x0008121d
20020cec:	1d551f8c 	ldclne	15, cr1, [r5, #-560]	; 0xfffffdd0
20020cf0:	1e75330d 	cdpne	3, 7, cr3, cr5, cr13, {0}
20020cf4:	062e078e 	strteq	r0, [lr], -lr, lsl #15
20020cf8:	06321f7e 	shsub16eq	r1, r2, lr
20020cfc:	0d07087d 	stceq	8, cr0, [r7, #-500]	; 0xfffffe0c
20020d00:	2d0a2756 	stccs	7, cr2, [sl, #-344]	; 0xfffffea8
20020d04:	cd2d0d1e 	stcgt	13, cr0, [sp, #-120]!	; 0xffffff88
20020d08:	218c3d21 	orrcs	r3, ip, r1, lsr #26
20020d0c:	d21f5b3d 	andsle	r5, pc, #62464	; 0xf400
20020d10:	dd4d0430 	cfstrdle	mvd0, [sp, #-192]	; 0xffffff40
20020d14:	033fbd09 	teqeq	pc, #576	; 0x240
20020d18:	24a3370d 	strtcs	r3, [r3], #1805	; 0x70d
20020d1c:	0a90004e 	beq	1e420e5c <__lcctype_c_end+0x1641ce1c>
20020d20:	5e172c3d 	mrcpl	12, 0, r2, cr7, cr13, {1}
20020d24:	6e17deff 	mrcvs	14, 0, sp, cr7, cr15, {7}
20020d28:	420e18e0 	andmi	r1, lr, #224, 16	; 0xe00000
20020d2c:	183d0838 	ldmdane	sp!, {r3, r4, r5, fp}
20020d30:	2b392d0e 	blcs	20e6c170 <__initial_sp+0xe482c8>
20020d34:	3113074d 	tstcc	r3, sp, asr #14
20020d38:	df3a0d30 	svcle	0x003a0d30
20020d3c:	04263d22 	strteq	r3, [r6], #-3362	; 0xfffff2de
20020d40:	12767f5e 	rsbsne	r7, r6, #376	; 0x178
20020d44:	1276fc9e 	rsbsne	pc, r6, #40448	; 0x9e00
20020d48:	0e76c04e 	cdpeq	0, 7, cr12, cr6, cr14, {2}
20020d4c:	24511c31 	ldrbcs	r1, [r1], #-3121	; 0xfffff3cf
20020d50:	a20eb63d 	andge	fp, lr, #63963136	; 0x3d00000
20020d54:	404d20c0 	submi	r2, sp, r0, asr #1
20020d58:	0d89310e 	stfeqs	f3, [r9, #56]	; 0x38
20020d5c:	1f0fef21 	svcne	0x000fef21
20020d60:	27a2800e 	strcs	r8, [r2, lr]!
20020d64:	4f0929bd 	svcmi	0x000929bd
20020d68:	19120f1e 	ldmdbne	r2, {r1, r2, r3, r4, r8, r9, sl, fp}
20020d6c:	b801f08f 	stmdalt	r1, {r0, r1, r2, r3, r7, ip, sp, lr, pc}
20020d70:	11142124 	tstne	r4, r4, lsr #2
20020d74:	08ec7d1c 	stmiaeq	ip!, {r2, r3, r4, r8, sl, fp, ip, sp, lr}^
20020d78:	05b9350d 	ldreq	r3, [r9, #1293]!	; 0x50d
20020d7c:	4d25f64d 	stcmi	6, cr15, [r5, #-308]!	; 0xfffffecc
20020d80:	0c1f0bc3 			; <UNDEFINED> instruction: 0x0c1f0bc3
20020d84:	1d258080 	stcne	0, cr8, [r5, #-512]!	; 0xfffffe00
20020d88:	0c1e2e92 	ldceq	14, cr2, [lr], {146}	; 0x92
20020d8c:	041c1f38 	ldreq	r1, [ip], #-3896	; 0xfffff0c8
20020d90:	fee0000e 	cdp2	0, 14, cr0, cr0, cr14, {0}
20020d94:	ab802e07 	blge	1e02c5b8 <__lcctype_c_end+0x16028578>
20020d98:	5bfc4e06 	blpl	1ff345b8 <__lcctype_c_end+0x17f30578>
20020d9c:	5ee05e12 	mcrpl	14, 7, r5, cr0, cr2, {0}
20020da0:	06062504 	streq	r2, [r6], -r4, lsl #10
20020da4:	5d531f3c 	ldclpl	15, cr1, [r3, #-240]	; 0xffffff10
20020da8:	0f2d2c61 	svceq	0x002d2c61
20020dac:	de3c1e0a 	cdple	14, 3, cr1, cr12, cr10, {0}
20020db0:	e23e1e2b 	eors	r1, lr, #688	; 0x2b0
20020db4:	1f23152b 	svcne	0x0023152b
20020db8:	265f3381 	ldrbcs	r3, [pc], -r1, lsl #7
20020dbc:	031b314e 	tsteq	fp, #-2147483629	; 0x80000013
20020dc0:	094d791e 	stmdbeq	sp, {r1, r2, r3, r4, r8, fp, ip, sp, lr}^
20020dc4:	12043d12 	andne	r3, r4, #1152	; 0x480
20020dc8:	072e041f 			; <UNDEFINED> instruction: 0x072e041f
20020dcc:	3c090aa4 			; <UNDEFINED> instruction: 0x3c090aa4
20020dd0:	a3340dc2 	teqge	r4, #12416	; 0x3080
20020dd4:	fe604e24 	cdp2	14, 6, cr4, cr0, cr4, {1}
20020dd8:	f0041c13 			; <UNDEFINED> instruction: 0xf0041c13
20020ddc:	1215ff9f 	andsne	pc, r5, #636	; 0x27c
20020de0:	3b01fe2f 	blcc	200a06a4 <__initial_sp+0x7c7fc>
20020de4:	2ed12d0b 	cdpcs	13, 13, cr2, cr1, cr11, {0}
20020de8:	0002110f 	andeq	r1, r2, pc, lsl #2
20020dec:	180d29d6 	stmdane	sp, {r1, r2, r4, r6, r7, r8, fp, sp}
20020df0:	998d226e 	stmibls	sp, {r1, r2, r3, r5, r6, r9, sp}
20020df4:	9c5b0d0e 	mrrcls	13, 0, r0, fp, cr14
20020df8:	0bd92d28 	bleq	1f66c2a0 <__lcctype_c_end+0x17668260>
20020dfc:	0ff80520 	svceq	0x00f80520
20020e00:	3dae01fe 	stfccs	f0, [lr, #1016]!	; 0x3f8
20020e04:	610e0fe1 	smlattvs	lr, r1, pc, r0	; <UNPREDICTABLE>
20020e08:	7d086360 	stcvc	3, cr6, [r8, #-384]	; 0xfffffe80
20020e0c:	120d11ec 	andne	r1, sp, #236, 2	; 0x3b
20020e10:	1a0d17be 	bne	20366d10 <__initial_sp+0x342e68>
20020e14:	310d121c 	tstcc	sp, ip, lsl r2
20020e18:	6e0e09b6 			; <UNDEFINED> instruction: 0x6e0e09b6
20020e1c:	2d29ef01 	stccs	15, cr14, [r9, #-4]!
20020e20:	0a10322d 	beq	2042d6dc <__initial_sp+0x409834>
20020e24:	08003ddc 	stmdaeq	r0, {r2, r3, r4, r6, r7, r8, sl, fp, ip, sp}
20020e28:	08003eac 	stmdaeq	r0, {r2, r3, r5, r7, r9, sl, fp, ip, sp}
20020e2c:	c31204cd 	tstgt	r2, #-855638016	; 0xcd000000
20020e30:	08d51208 	ldmeq	r5, {r3, r9, ip}^
20020e34:	120ca512 	andne	sl, ip, #75497472	; 0x4800000
20020e38:	b31204ba 	tstlt	r2, #-1174405120	; 0xba000000
20020e3c:	12202110 	eorne	r2, r0, #16, 2
20020e40:	eb1208e3 	bl	204a31d4 <__initial_sp+0x47f32c>
20020e44:	1c611218 	sfmne	f1, 2, [r1], #-96	; 0xffffffa0
20020e48:	12206712 	eorne	r6, r0, #4718592	; 0x480000
20020e4c:	5c120ca1 	ldcpl	12, cr0, [r2], {161}	; 0xa1
20020e50:	0cde1214 	lfmeq	f1, 2, [lr], {20}
20020e54:	12049a12 	andne	r9, r4, #73728	; 0x12000
20020e58:	8d12087a 	ldchi	8, cr0, [r2, #-488]	; 0xfffffe18
20020e5c:	0c841204 	sfmeq	f1, 4, [r4], {4}
20020e60:	71000500 	tstvc	r0, r0, lsl #10
20020e64:	0008003e 	andeq	r0, r8, lr, lsr r0

Disassembly of section ER_ZI:

20023420 <__libspace_start>:
	...

20023480 <BUTTON_BottomState>:
	...

20023481 <BUTTON_LeftState>:
	...

20023482 <BUTTON_RightState>:
	...

20023483 <BUTTON_Switch>:
	...

20023484 <BUTTON_TopState>:
	...

20023485 <DS3231_Century>:
	...

20023486 <DS3231_HS>:
	...

20023487 <DS3231_Hour>:
	...

20023488 <DS3231_Minute>:
	...

20023489 <DS3231_Second>:
	...

2002348a <DS3231_Year>:
	...

2002348b <SH1106_Buffer>:
	...

2002388b <URM37_DistReceive>:
D:\#Documents\UVISION\SMART_WAKE_UP/urm37.c:12
2002388b:	00000000 	andeq	r0, r0, r0

2002388f <URM37_TempReceive>:
D:\#Documents\UVISION\SMART_WAKE_UP/urm37.c:11
2002388f:	00000000 	andeq	r0, r0, r0

20023893 <dataR>:
D:\#Documents\UVISION\SMART_WAKE_UP/urm37.c:15
20023893:	00000000 	andeq	r0, r0, r0
	...

20023898 <indexR>:
D:\#Documents\UVISION\SMART_WAKE_UP/urm37.c:14
20023898:	00000000 	andeq	r0, r0, r0

2002389c <move>:
D:\#Documents\UVISION\SMART_WAKE_UP/main.c:23
2002389c:	00000000 	andeq	r0, r0, r0

200238a0 <state>:
	...

200238a1 <update>:
D:\#Documents\UVISION\SMART_WAKE_UP/main.c:22
200238a1:	00000000 	andeq	r0, r0, r0
200238a5:	 	andeq	r0, r0, r0

200238a8 <Heap_Mem>:
	...

20023aa8 <Stack_Mem>:
	...

Disassembly of section .debug_abbrev:

00000000 <.debug_abbrev>:
TIM_WaitMicros():
D:\#Documents\UVISION\SMART_WAKE_UP/tim.c:4
   0:	25011101 	strcs	r1, [r1, #-257]	; 0xfffffeff
   4:	0305130e 	movweq	r1, #21262	; 0x530e
   8:	1b17100e 	blne	5c4048 <__Vectors_Size+0x5c3e50>
   c:	5501110e 	strpl	r1, [r1, #-270]	; 0xfffffef2
D:\#Documents\UVISION\SMART_WAKE_UP/tim.c:5
  10:	02000017 	andeq	r0, r0, #23
  14:	0e030034 	mcreq	0, 0, r0, cr3, cr4, {1}
  18:	193f1349 	ldmdbne	pc!, {r0, r3, r6, r8, r9, ip}	; <UNPREDICTABLE>
D:\#Documents\UVISION\SMART_WAKE_UP/tim.c:6
  1c:	0b3b0b3a 	bleq	ec2d0c <__Vectors_Size+0xec2b14>
  20:	00001802 	andeq	r1, r0, r2, lsl #16
  24:	49001603 	stmdbmi	r0, {r0, r1, r9, sl, ip}
D:\#Documents\UVISION\SMART_WAKE_UP/tim.c:8
  28:	3a0e0313 	bcc	380c7c <__Vectors_Size+0x380a84>
  2c:	000b3b0b 	andeq	r3, fp, fp, lsl #22
  30:	00240400 	eoreq	r0, r4, r0, lsl #8
  34:	0b3e0e03 	bleq	f83848 <__Vectors_Size+0xf83650>
D:\#Documents\UVISION\SMART_WAKE_UP/tim.c:52
  38:	00000b0b 	andeq	r0, r0, fp, lsl #22
  3c:	49010105 	stmdbmi	r1, {r0, r2, r8}
D:\#Documents\UVISION\SMART_WAKE_UP/tim.c:8
  40:	06000013 			; <UNDEFINED> instruction: 0x06000013
  44:	13490021 	movtne	r0, #36897	; 0x9021
  48:	00000b37 	andeq	r0, r0, r7, lsr fp
  4c:	49002607 	stmdbmi	r0, {r0, r1, r2, r9, sl, sp}
  50:	08000013 	stmdaeq	r0, {r0, r1, r4}
  54:	0e030024 	cdpeq	0, 0, cr0, cr3, cr4, {1}
D:\#Documents\UVISION\SMART_WAKE_UP/tim.c:58
  58:	0b3e0b0b 	bleq	f82c8c <__Vectors_Size+0xf82a94>
  5c:	0f090000 	svceq	0x00090000
D:\#Documents\UVISION\SMART_WAKE_UP/tim.c:9
  60:	00134900 	andseq	r4, r3, r0, lsl #18
D:\#Documents\UVISION\SMART_WAKE_UP/tim.c:10
  64:	00160a00 	andseq	r0, r6, r0, lsl #20
GPIO_AnalogRead():
D:\#Documents\UVISION\SMART_WAKE_UP/gpio.c:61
  68:	0e031349 	cdpeq	3, 0, cr1, cr3, cr9, {2}
  6c:	053b0b3a 	ldreq	r0, [fp, #-2874]!	; 0xfffff4c6
  70:	130b0000 	movwne	r0, #45056	; 0xb000
D:\#Documents\UVISION\SMART_WAKE_UP/gpio.c:63
  74:	3a050b01 	bcc	142c80 <__Vectors_Size+0x142a88>
  78:	00053b0b 	andeq	r3, r5, fp, lsl #22
URM37_Init():
D:\#Documents\UVISION\SMART_WAKE_UP/urm37.c:125
  7c:	000d0c00 	andeq	r0, sp, r0, lsl #24
D:\#Documents\UVISION\SMART_WAKE_UP/urm37.c:126
  80:	13490e03 	movtne	r0, #40451	; 0x9e03
  84:	053b0b3a 	ldreq	r0, [fp, #-2874]!	; 0xfffff4c6
  88:	00000b38 	andeq	r0, r0, r8, lsr fp
  8c:	03000d0d 	movweq	r0, #3341	; 0xd0d
  90:	3a13490e 	bcc	4d24d0 <__Vectors_Size+0x4d22d8>
  94:	38053b0b 	stmdacc	r5, {r0, r1, r3, r8, r9, fp, ip, sp}
  98:	0e000005 	cdpeq	0, 0, cr0, cr0, cr5, {0}
D:\#Documents\UVISION\SMART_WAKE_UP/urm37.c:128
  9c:	13490035 	movtne	r0, #36917	; 0x9035
D:\#Documents\UVISION\SMART_WAKE_UP/urm37.c:129
  a0:	130f0000 	movwne	r0, #61440	; 0xf000
  a4:	3a0b0b01 	bcc	2c2cb0 <__Vectors_Size+0x2c2ab8>
  a8:	00053b0b 	andeq	r3, r5, fp, lsl #22
  ac:	002e1000 	eoreq	r1, lr, r0
  b0:	06120111 			; <UNDEFINED> instruction: 0x06120111
  b4:	0e031840 	cdpeq	8, 0, cr1, cr3, cr0, {2}
  b8:	0b3b0b3a 	bleq	ec2da8 <__Vectors_Size+0xec2bb0>
URM37_GetTemperature():
  bc:	193f1927 	ldmdbne	pc!, {r0, r1, r2, r5, r8, fp, ip}	; <UNPREDICTABLE>
SystemCoreClockUpdate():
D:\#Documents\UVISION\SMART_WAKE_UP/RTE/Device/STM32F767ZITx/system_stm32f7xx.c:231
  c0:	2e110000 	cdpcs	0, 1, cr0, cr1, cr0, {0}
D:\#Documents\UVISION\SMART_WAKE_UP/RTE/Device/STM32F767ZITx/system_stm32f7xx.c:449
  c4:	12011101 	andne	r1, r1, #1073741824	; 0x40000000
  c8:	03184006 	tsteq	r8, #6
D:\#Documents\UVISION\SMART_WAKE_UP/RTE/Device/STM32F767ZITx/system_stm32f7xx.c:234
  cc:	3b0b3a0e 	blcc	2ce90c <__Vectors_Size+0x2ce714>
  d0:	3f19270b 	svccc	0x0019270b
  d4:	12000019 	andne	r0, r0, #25
D:\#Documents\UVISION\SMART_WAKE_UP/RTE/Device/STM32F767ZITx/system_stm32f7xx.c:235
  d8:	18020034 	stmdane	r2, {r2, r4, r5}
  dc:	0b3a0e03 	bleq	e838f0 <__Vectors_Size+0xe836f8>
  e0:	13490b3b 	movtne	r0, #39739	; 0x9b3b
  e4:	01000000 	mrseq	r0, (UNDEF: 0)
  e8:	08030111 	stmdaeq	r3, {r0, r4, r8}
D:\#Documents\UVISION\SMART_WAKE_UP/RTE/Device/STM32F767ZITx/system_stm32f7xx.c:238
  ec:	081b0825 	ldmdaeq	fp, {r0, r2, r5, fp}
  f0:	01120111 	tsteq	r2, r1, lsl r1
  f4:	00000610 	andeq	r0, r0, r0, lsl r6
  f8:	03002e02 	movweq	r2, #3586	; 0xe02
  fc:	12011108 	andne	r1, r1, #8, 2
D:\#Documents\UVISION\SMART_WAKE_UP/RTE/Device/STM32F767ZITx/system_stm32f7xx.c:456
 100:	00000001 	andeq	r0, r0, r1
D:\#Documents\UVISION\SMART_WAKE_UP/RTE/Device/STM32F767ZITx/system_stm32f7xx.c:457
 104:	01000000 	mrseq	r0, (UNDEF: 0)
D:\#Documents\UVISION\SMART_WAKE_UP/RTE/Device/STM32F767ZITx/system_stm32f7xx.c:243
 108:	0e250111 	mcreq	1, 1, r0, cr5, cr1, {0}
 10c:	0e030513 	mcreq	5, 0, r0, cr3, cr3, {0}
 110:	0e1b1710 	mrceq	7, 0, r1, cr11, cr0, {0}
 114:	17550111 	smmlane	r5, r1, r1, r0
 118:	34020000 	strcc	r0, [r2], #-0
D:\#Documents\UVISION\SMART_WAKE_UP/RTE/Device/STM32F767ZITx/system_stm32f7xx.c:245
 11c:	490e0300 	stmdbmi	lr, {r8, r9}
 120:	3a193f13 	bcc	64fd74 <__Vectors_Size+0x64fb7c>
 124:	020b3b0b 	andeq	r3, fp, #11264	; 0x2c00
 128:	03000018 	movweq	r0, #24
D:\#Documents\UVISION\SMART_WAKE_UP/RTE/Device/STM32F767ZITx/system_stm32f7xx.c:246
 12c:	13490035 	movtne	r0, #36917	; 0x9035
SH1106_DrawCircle():
D:\#Documents\UVISION\SMART_WAKE_UP/sh1106.c:461
 130:	16040000 	strne	r0, [r4], -r0
 134:	03134900 	tsteq	r3, #0, 18
 138:	3b0b3a0e 	blcc	2ce978 <__Vectors_Size+0x2ce780>
 13c:	0500000b 	streq	r0, [r0, #-11]
 140:	0e030024 	cdpeq	0, 0, cr0, cr3, cr4, {1}
 144:	0b0b0b3e 	bleq	2c2e44 <__Vectors_Size+0x2c2c4c>
 148:	04060000 	streq	r0, [r6], #-0
 14c:	0b134901 	bleq	4d2558 <__Vectors_Size+0x4d2360>
D:\#Documents\UVISION\SMART_WAKE_UP/sh1106.c:462
 150:	3b0b3a0b 	blcc	2ce984 <__Vectors_Size+0x2ce78c>
 154:	0700000b 	streq	r0, [r0, -fp]
 158:	0e030028 	cdpeq	0, 0, cr0, cr3, cr8, {1}
 15c:	00000d1c 	andeq	r0, r0, ip, lsl sp
 160:	49000f08 	stmdbmi	r0, {r3, r8, r9, sl, fp}
 164:	09000013 	stmdbeq	r0, {r0, r1, r4}
 168:	13490016 	movtne	r0, #36886	; 0x9016
 16c:	0b3a0e03 	bleq	e83980 <__Vectors_Size+0xe83788>
 170:	0000053b 	andeq	r0, r0, fp, lsr r5
 174:	0b01130a 	bleq	44da4 <__Vectors_Size+0x44bac>
D:\#Documents\UVISION\SMART_WAKE_UP/sh1106.c:464
 178:	3b0b3a0b 	blcc	2ce9ac <__Vectors_Size+0x2ce7b4>
 17c:	0b000005 	bleq	198 <BuildAttributes$$THM_ISAv4$E$P$D$K$B$S$7EM$VFPv5_D16$PE$PLD8$A:L22UL41UL21$X:L11$S22US41US21$IEEE1$IW$~IW$USESV6$~STKCKD$USESV7$~SHL$OTIME$ROPI$IEEEJ$EBA8$UX$STANDARDLIB$REQ8$PRES8$EABIv2+0x198>
 180:	0e03000d 	cdpeq	0, 0, cr0, cr3, cr13, {0}
 184:	0b3a1349 	bleq	e84eb0 <__Vectors_Size+0xe84cb8>
 188:	0b38053b 	bleq	e0167c <__Vectors_Size+0xe01484>
 18c:	010c0000 	mrseq	r0, (UNDEF: 12)
 190:	00134901 	andseq	r4, r3, r1, lsl #18
 194:	00210d00 	eoreq	r0, r1, r0, lsl #26
 198:	0b371349 	bleq	dc4ec4 <__Vectors_Size+0xdc4ccc>
 19c:	240e0000 	strcs	r0, [lr], #-0
D:\#Documents\UVISION\SMART_WAKE_UP/sh1106.c:465
 1a0:	0b0e0300 	bleq	380da8 <__Vectors_Size+0x380bb0>
SH1106_DrawFilledCircle():
D:\#Documents\UVISION\SMART_WAKE_UP/sh1106.c:465
 1a4:	000b3e0b 	andeq	r3, fp, fp, lsl #28
 1a8:	01130f00 	tsteq	r3, r0, lsl #30
 1ac:	0b3a050b 	bleq	e815e0 <__Vectors_Size+0xe813e8>
 1b0:	0000053b 	andeq	r0, r0, fp, lsr r5
 1b4:	03000d10 	movweq	r0, #3344	; 0xd10
 1b8:	3a13490e 	bcc	4d25f8 <__Vectors_Size+0x4d2400>
 1bc:	38053b0b 	stmdacc	r5, {r0, r1, r3, r8, r9, fp, ip, sp}
 1c0:	11000005 	tstne	r0, r5
 1c4:	13490021 	movtne	r0, #36897	; 0x9021
D:\#Documents\UVISION\SMART_WAKE_UP/sh1106.c:449
 1c8:	00000537 	andeq	r0, r0, r7, lsr r5
D:\#Documents\UVISION\SMART_WAKE_UP/sh1106.c:467
 1cc:	49002612 	stmdbmi	r0, {r1, r4, r9, sl, sp}
 1d0:	13000013 	movwne	r0, #19
 1d4:	0111002e 	tsteq	r1, lr, lsr #32
 1d8:	18400612 	stmdane	r0, {r1, r4, r9, sl}^
 1dc:	0b3a0e03 	bleq	e839f0 <__Vectors_Size+0xe837f8>
 1e0:	19270b3b 	stmdbne	r7!, {r0, r1, r3, r4, r5, r8, r9, fp}
 1e4:	0000193f 	andeq	r1, r0, pc, lsr r9
 1e8:	11002e14 	tstne	r0, r4, lsl lr
 1ec:	40061201 	andmi	r1, r6, r1, lsl #4
 1f0:	3a0e0318 	bcc	380e58 <__Vectors_Size+0x380c60>
 1f4:	270b3b0b 	strcs	r3, [fp, -fp, lsl #22]
 1f8:	15000019 	strne	r0, [r0, #-25]	; 0xffffffe7
 1fc:	0111012e 	tsteq	r1, lr, lsr #2
 200:	18400612 	stmdane	r0, {r1, r4, r9, sl}^
 204:	0b3a0e03 	bleq	e83a18 <__Vectors_Size+0xe83820>
 208:	1927053b 	stmdbne	r7!, {r0, r1, r3, r4, r5, r8, sl}
 20c:	05160000 	ldreq	r0, [r6, #-0]
 210:	03180200 	tsteq	r8, #0, 4
 214:	3b0b3a0e 	blcc	2cea54 <__Vectors_Size+0x2ce85c>
 218:	00134905 	andseq	r4, r3, r5, lsl #18
 21c:	11010000 	mrsne	r0, (UNDEF: 1)
 220:	130e2501 	movwne	r2, #58625	; 0xe501
 224:	100e0305 	andne	r0, lr, r5, lsl #6
 228:	110e1b17 	tstne	lr, r7, lsl fp
 22c:	00175501 	andseq	r5, r7, r1, lsl #10
 230:	00340200 	eorseq	r0, r4, r0, lsl #4
 234:	13490e03 	movtne	r0, #40451	; 0x9e03
 238:	053b0b3a 	ldreq	r0, [fp, #-2874]!	; 0xfffff4c6
 23c:	00000f1c 	andeq	r0, r0, ip, lsl pc
 240:	49002603 	stmdbmi	r0, {r0, r1, r9, sl, sp}
 244:	04000013 	streq	r0, [r0], #-19	; 0xffffffed
 248:	13490016 	movtne	r0, #36886	; 0x9016
 24c:	0b3a0e03 	bleq	e83a60 <__Vectors_Size+0xe83868>
 250:	00000b3b 	andeq	r0, r0, fp, lsr fp
 254:	03002405 	movweq	r2, #1029	; 0x405
 258:	0b0b3e0e 	bleq	2cfa98 <__Vectors_Size+0x2cf8a0>
 25c:	0600000b 	streq	r0, [r0], -fp
 260:	0e030034 	mcreq	0, 0, r0, cr3, cr4, {1}
 264:	0b3a1349 	bleq	e84f90 <__Vectors_Size+0xe84d98>
 268:	18020b3b 	stmdane	r2, {r0, r1, r3, r4, r5, r8, r9, fp}
 26c:	01070000 	mrseq	r0, (UNDEF: 7)
 270:	00134901 	andseq	r4, r3, r1, lsl #18
 274:	00210800 	eoreq	r0, r1, r0, lsl #16
 278:	05371349 	ldreq	r1, [r7, #-841]!	; 0xfffffcb7
 27c:	24090000 	strcs	r0, [r9], #-0
 280:	0b0e0300 	bleq	380e88 <__Vectors_Size+0x380c90>
 284:	000b3e0b 	andeq	r3, fp, fp, lsl #28
 288:	01040a00 	tsteq	r4, r0, lsl #20
 28c:	0e031349 	cdpeq	3, 0, cr1, cr3, cr9, {2}
 290:	0b3a0b0b 	bleq	e82ec4 <__Vectors_Size+0xe82ccc>
 294:	00000b3b 	andeq	r0, r0, fp, lsr fp
 298:	0300280b 	movweq	r2, #2059	; 0x80b
 29c:	000f1c0e 	andeq	r1, pc, lr, lsl #24
 2a0:	000f0c00 	andeq	r0, pc, r0, lsl #24
 2a4:	00001349 	andeq	r1, r0, r9, asr #6
 2a8:	4900160d 	stmdbmi	r0, {r0, r2, r3, r9, sl, ip}
 2ac:	3a0e0313 	bcc	380f00 <__Vectors_Size+0x380d08>
 2b0:	00053b0b 	andeq	r3, r5, fp, lsl #22
 2b4:	01130e00 	tsteq	r3, r0, lsl #28
 2b8:	0b3a0b0b 	bleq	e82eec <__Vectors_Size+0xe82cf4>
 2bc:	0000053b 	andeq	r0, r0, fp, lsr r5
 2c0:	03000d0f 	movweq	r0, #3343	; 0xd0f
 2c4:	3a13490e 	bcc	4d2704 <__Vectors_Size+0x4d250c>
 2c8:	38053b0b 	stmdacc	r5, {r0, r1, r3, r8, r9, fp, ip, sp}
 2cc:	1000000b 	andne	r0, r0, fp
 2d0:	13490035 	movtne	r0, #36917	; 0x9035
 2d4:	21110000 	tstcs	r1, r0
 2d8:	37134900 	ldrcc	r4, [r3, -r0, lsl #18]
 2dc:	1200000b 	andne	r0, r0, #11
 2e0:	0111012e 	tsteq	r1, lr, lsr #2
 2e4:	18400612 	stmdane	r0, {r1, r4, r9, sl}^
 2e8:	0b3a0e03 	bleq	e83afc <__Vectors_Size+0xe83904>
 2ec:	19270b3b 	stmdbne	r7!, {r0, r1, r3, r4, r5, r8, r9, fp}
 2f0:	0000193f 	andeq	r1, r0, pc, lsr r9
 2f4:	11010b13 	tstne	r1, r3, lsl fp
 2f8:	00061201 	andeq	r1, r6, r1, lsl #4
 2fc:	00341400 	eorseq	r1, r4, r0, lsl #8
 300:	0e031802 	cdpeq	8, 0, cr1, cr3, cr2, {0}
 304:	0b3b0b3a 	bleq	ec2ff4 <__Vectors_Size+0xec2dfc>
 308:	00001349 	andeq	r1, r0, r9, asr #6
 30c:	11012e15 	tstne	r1, r5, lsl lr
 310:	40061201 	andmi	r1, r6, r1, lsl #4
 314:	3a0e0318 	bcc	380f7c <__Vectors_Size+0x380d84>
 318:	270b3b0b 	strcs	r3, [fp, -fp, lsl #22]
 31c:	16000019 			; <UNDEFINED> instruction: 0x16000019
 320:	18020005 	stmdane	r2, {r0, r2}
 324:	0b3a0e03 	bleq	e83b38 <__Vectors_Size+0xe83940>
 328:	13490b3b 	movtne	r0, #39739	; 0x9b3b
 32c:	2e170000 	cdpcs	0, 1, cr0, cr7, cr0, {0}
 330:	12011101 	andne	r1, r1, #1073741824	; 0x40000000
 334:	03184006 	tsteq	r8, #6
 338:	3b0b3a0e 	blcc	2ceb78 <__Vectors_Size+0x2ce980>
 33c:	3f192705 	svccc	0x00192705
 340:	18000019 	stmdane	r0, {r0, r3, r4}
 344:	18020005 	stmdane	r2, {r0, r2}
 348:	0b3a0e03 	bleq	e83b5c <__Vectors_Size+0xe83964>
 34c:	1349053b 	movtne	r0, #38203	; 0x953b
 350:	34190000 	ldrcc	r0, [r9], #-0
 354:	03180200 	tsteq	r8, #0, 4
 358:	3b0b3a0e 	blcc	2ceb98 <__Vectors_Size+0x2ce9a0>
 35c:	00134905 	andseq	r4, r3, r5, lsl #18
 360:	00181a00 	andseq	r1, r8, r0, lsl #20
 364:	2e1b0000 	cdpcs	0, 1, cr0, cr11, cr0, {0}
 368:	12011100 	andne	r1, r1, #0, 2
 36c:	03184006 	tsteq	r8, #6
 370:	3b0b3a0e 	blcc	2cebb0 <__Vectors_Size+0x2ce9b8>
 374:	3f192705 	svccc	0x00192705
 378:	1c000019 	stcne	0, cr0, [r0], {25}
 37c:	0111002e 	tsteq	r1, lr, lsr #32
 380:	18400612 	stmdane	r0, {r1, r4, r9, sl}^
 384:	0b3a0e03 	bleq	e83b98 <__Vectors_Size+0xe839a0>
 388:	19270b3b 	stmdbne	r7!, {r0, r1, r3, r4, r5, r8, r9, fp}
 38c:	161d0000 	ldrne	r0, [sp], -r0
 390:	03134900 	tsteq	r3, #0, 18
 394:	1e00000e 	cdpne	0, 0, cr0, cr0, cr14, {0}
 398:	0e030113 	mcreq	1, 0, r0, cr3, cr3, {0}
 39c:	00000b0b 	andeq	r0, r0, fp, lsl #22
 3a0:	00000f1f 	andeq	r0, r0, pc, lsl pc
 3a4:	11010000 	mrsne	r0, (UNDEF: 1)
 3a8:	130e2501 	movwne	r2, #58625	; 0xe501
 3ac:	100e0305 	andne	r0, lr, r5, lsl #6
 3b0:	110e1b17 	tstne	lr, r7, lsl fp
 3b4:	00175501 	andseq	r5, r7, r1, lsl #10
 3b8:	00340200 	eorseq	r0, r4, r0, lsl #4
 3bc:	13490e03 	movtne	r0, #40451	; 0x9e03
 3c0:	0b3a193f 	bleq	e868c4 <__Vectors_Size+0xe866cc>
 3c4:	18020b3b 	stmdane	r2, {r0, r1, r3, r4, r5, r8, r9, fp}
 3c8:	16030000 	strne	r0, [r3], -r0
 3cc:	03134900 	tsteq	r3, #0, 18
 3d0:	3b0b3a0e 	blcc	2cec10 <__Vectors_Size+0x2cea18>
 3d4:	0400000b 	streq	r0, [r0], #-11
 3d8:	0e030024 	cdpeq	0, 0, cr0, cr3, cr4, {1}
 3dc:	0b0b0b3e 	bleq	2c30dc <__Vectors_Size+0x2c2ee4>
 3e0:	0f050000 	svceq	0x00050000
 3e4:	00134900 	andseq	r4, r3, r0, lsl #18
 3e8:	00160600 	andseq	r0, r6, r0, lsl #12
 3ec:	0e031349 	cdpeq	3, 0, cr1, cr3, cr9, {2}
 3f0:	053b0b3a 	ldreq	r0, [fp, #-2874]!	; 0xfffff4c6
 3f4:	13070000 	movwne	r0, #28672	; 0x7000
 3f8:	3a0b0b01 	bcc	2c3004 <__Vectors_Size+0x2c2e0c>
 3fc:	00053b0b 	andeq	r3, r5, fp, lsl #22
 400:	000d0800 	andeq	r0, sp, r0, lsl #16
 404:	13490e03 	movtne	r0, #40451	; 0x9e03
 408:	053b0b3a 	ldreq	r0, [fp, #-2874]!	; 0xfffff4c6
 40c:	00000b38 	andeq	r0, r0, r8, lsr fp
 410:	49003509 	stmdbmi	r0, {r0, r3, r8, sl, ip, sp}
 414:	0a000013 	beq	468 <__Vectors_Size+0x270>
 418:	13490101 	movtne	r0, #37121	; 0x9101
 41c:	210b0000 	mrscs	r0, (UNDEF: 11)
 420:	37134900 	ldrcc	r4, [r3, -r0, lsl #18]
 424:	0c00000b 	stceq	0, cr0, [r0], {11}
 428:	0e030024 	cdpeq	0, 0, cr0, cr3, cr4, {1}
 42c:	0b3e0b0b 	bleq	f83060 <__Vectors_Size+0xf82e68>
 430:	2e0d0000 	cdpcs	0, 0, cr0, cr13, cr0, {0}
 434:	12011100 	andne	r1, r1, #0, 2
 438:	03184006 	tsteq	r8, #6
 43c:	3b0b3a0e 	blcc	2cec7c <__Vectors_Size+0x2cea84>
 440:	3f19270b 	svccc	0x0019270b
 444:	0e000019 	mcreq	0, 0, r0, cr0, cr9, {0}
 448:	0111012e 	tsteq	r1, lr, lsr #2
 44c:	18400612 	stmdane	r0, {r1, r4, r9, sl}^
 450:	0b3a0e03 	bleq	e83c64 <__Vectors_Size+0xe83a6c>
 454:	19270b3b 	stmdbne	r7!, {r0, r1, r3, r4, r5, r8, r9, fp}
 458:	193f1349 	ldmdbne	pc!, {r0, r3, r6, r8, r9, ip}	; <UNPREDICTABLE>
 45c:	050f0000 	streq	r0, [pc, #-0]	; 464 <__Vectors_Size+0x26c>
 460:	03180200 	tsteq	r8, #0, 4
 464:	3b0b3a0e 	blcc	2ceca4 <__Vectors_Size+0x2ceaac>
 468:	0013490b 	andseq	r4, r3, fp, lsl #18
 46c:	012e1000 			; <UNDEFINED> instruction: 0x012e1000
 470:	06120111 			; <UNDEFINED> instruction: 0x06120111
 474:	0e031840 	cdpeq	8, 0, cr1, cr3, cr0, {2}
 478:	0b3b0b3a 	bleq	ec3168 <__Vectors_Size+0xec2f70>
 47c:	193f1927 	ldmdbne	pc!, {r0, r1, r2, r5, r8, fp, ip}	; <UNPREDICTABLE>
 480:	34110000 	ldrcc	r0, [r1], #-0
 484:	03180200 	tsteq	r8, #0, 4
 488:	3b0b3a0e 	blcc	2cecc8 <__Vectors_Size+0x2cead0>
 48c:	0013490b 	andseq	r4, r3, fp, lsl #18
 490:	11010000 	mrsne	r0, (UNDEF: 1)
 494:	130e2501 	movwne	r2, #58625	; 0xe501
 498:	100e0305 	andne	r0, lr, r5, lsl #6
 49c:	110e1b17 	tstne	lr, r7, lsl fp
 4a0:	00175501 	andseq	r5, r7, r1, lsl #10
 4a4:	00340200 	eorseq	r0, r4, r0, lsl #4
 4a8:	13490e03 	movtne	r0, #40451	; 0x9e03
 4ac:	0b3a193f 	bleq	e869b0 <__Vectors_Size+0xe867b8>
 4b0:	18020b3b 	stmdane	r2, {r0, r1, r3, r4, r5, r8, r9, fp}
 4b4:	01030000 	mrseq	r0, (UNDEF: 3)
 4b8:	00134901 	andseq	r4, r3, r1, lsl #18
 4bc:	00210400 	eoreq	r0, r1, r0, lsl #8
 4c0:	0b371349 	bleq	dc51ec <__Vectors_Size+0xdc4ff4>
 4c4:	35050000 	strcc	r0, [r5, #-0]
 4c8:	00134900 	andseq	r4, r3, r0, lsl #18
 4cc:	00160600 	andseq	r0, r6, r0, lsl #12
 4d0:	0e031349 	cdpeq	3, 0, cr1, cr3, cr9, {2}
 4d4:	0b3b0b3a 	bleq	ec31c4 <__Vectors_Size+0xec2fcc>
 4d8:	24070000 	strcs	r0, [r7], #-0
 4dc:	3e0e0300 	cdpcc	3, 0, cr0, cr14, cr0, {0}
 4e0:	000b0b0b 	andeq	r0, fp, fp, lsl #22
 4e4:	00240800 	eoreq	r0, r4, r0, lsl #16
 4e8:	0b0b0e03 	bleq	2c3cfc <__Vectors_Size+0x2c3b04>
 4ec:	00000b3e 	andeq	r0, r0, lr, lsr fp
 4f0:	03003409 	movweq	r3, #1033	; 0x409
 4f4:	3a13490e 	bcc	4d2934 <__Vectors_Size+0x4d273c>
 4f8:	020b3b0b 	andeq	r3, fp, #11264	; 0x2c00
 4fc:	0a000018 	beq	564 <__Vectors_Size+0x36c>
 500:	13490104 	movtne	r0, #37124	; 0x9104
 504:	0b3a0b0b 	bleq	e83138 <__Vectors_Size+0xe82f40>
 508:	00000b3b 	andeq	r0, r0, fp, lsr fp
 50c:	0300280b 	movweq	r2, #2059	; 0x80b
 510:	000d1c0e 	andeq	r1, sp, lr, lsl #24
 514:	000f0c00 	andeq	r0, pc, r0, lsl #24
 518:	00001349 	andeq	r1, r0, r9, asr #6
 51c:	4900160d 	stmdbmi	r0, {r0, r2, r3, r9, sl, ip}
 520:	3a0e0313 	bcc	381174 <__Vectors_Size+0x380f7c>
 524:	00053b0b 	andeq	r3, r5, fp, lsl #22
 528:	01130e00 	tsteq	r3, r0, lsl #28
 52c:	0b3a0b0b 	bleq	e83160 <__Vectors_Size+0xe82f68>
 530:	0000053b 	andeq	r0, r0, fp, lsr r5
 534:	03000d0f 	movweq	r0, #3343	; 0xd0f
 538:	3a13490e 	bcc	4d2978 <__Vectors_Size+0x4d2780>
 53c:	38053b0b 	stmdacc	r5, {r0, r1, r3, r8, r9, fp, ip, sp}
 540:	1000000b 	andne	r0, r0, fp
 544:	050b0113 	streq	r0, [fp, #-275]	; 0xfffffeed
 548:	053b0b3a 	ldreq	r0, [fp, #-2874]!	; 0xfffff4c6
 54c:	0d110000 	ldceq	0, cr0, [r1, #-0]
 550:	490e0300 	stmdbmi	lr, {r8, r9}
 554:	3b0b3a13 	blcc	2ceda8 <__Vectors_Size+0x2cebb0>
 558:	00053805 	andeq	r3, r5, r5, lsl #16
 55c:	00211200 	eoreq	r1, r1, r0, lsl #4
 560:	05371349 	ldreq	r1, [r7, #-841]!	; 0xfffffcb7
 564:	26130000 	ldrcs	r0, [r3], -r0
 568:	00134900 	andseq	r4, r3, r0, lsl #18
 56c:	002e1400 	eoreq	r1, lr, r0, lsl #8
 570:	06120111 			; <UNDEFINED> instruction: 0x06120111
 574:	0e031840 	cdpeq	8, 0, cr1, cr3, cr0, {2}
 578:	0b3b0b3a 	bleq	ec3268 <__Vectors_Size+0xec3070>
 57c:	193f1927 	ldmdbne	pc!, {r0, r1, r2, r5, r8, fp, ip}	; <UNPREDICTABLE>
 580:	2e150000 	cdpcs	0, 1, cr0, cr5, cr0, {0}
 584:	12011101 	andne	r1, r1, #1073741824	; 0x40000000
 588:	03184006 	tsteq	r8, #6
 58c:	3b0b3a0e 	blcc	2cedcc <__Vectors_Size+0x2cebd4>
 590:	00192705 	andseq	r2, r9, r5, lsl #14
 594:	00051600 	andeq	r1, r5, r0, lsl #12
 598:	0e031802 	cdpeq	8, 0, cr1, cr3, cr2, {0}
 59c:	053b0b3a 	ldreq	r0, [fp, #-2874]!	; 0xfffff4c6
 5a0:	00001349 	andeq	r1, r0, r9, asr #6
 5a4:	11012e17 	tstne	r1, r7, lsl lr
 5a8:	40061201 	andmi	r1, r6, r1, lsl #4
 5ac:	3a0e0318 	bcc	381214 <__Vectors_Size+0x38101c>
 5b0:	270b3b0b 	strcs	r3, [fp, -fp, lsl #22]
 5b4:	00193f19 	andseq	r3, r9, r9, lsl pc
 5b8:	00051800 	andeq	r1, r5, r0, lsl #16
 5bc:	0e031802 	cdpeq	8, 0, cr1, cr3, cr2, {0}
 5c0:	0b3b0b3a 	bleq	ec32b0 <__Vectors_Size+0xec30b8>
 5c4:	00001349 	andeq	r1, r0, r9, asr #6
 5c8:	11010b19 	tstne	r1, r9, lsl fp
 5cc:	00061201 	andeq	r1, r6, r1, lsl #4
 5d0:	00341a00 	eorseq	r1, r4, r0, lsl #20
 5d4:	0e031802 	cdpeq	8, 0, cr1, cr3, cr2, {0}
 5d8:	0b3b0b3a 	bleq	ec32c8 <__Vectors_Size+0xec30d0>
 5dc:	00001349 	andeq	r1, r0, r9, asr #6
 5e0:	11012e1b 	tstne	r1, fp, lsl lr
 5e4:	40061201 	andmi	r1, r6, r1, lsl #4
 5e8:	3a0e0318 	bcc	381250 <__Vectors_Size+0x381058>
 5ec:	270b3b0b 	strcs	r3, [fp, -fp, lsl #22]
 5f0:	3f134919 	svccc	0x00134919
 5f4:	00000019 	andeq	r0, r0, r9, lsl r0
 5f8:	25011101 	strcs	r1, [r1, #-257]	; 0xfffffeff
 5fc:	0305130e 	movweq	r1, #21262	; 0x530e
 600:	1b17100e 	blne	5c4640 <__Vectors_Size+0x5c4448>
 604:	5501110e 	strpl	r1, [r1, #-270]	; 0xfffffef2
 608:	02000017 	andeq	r0, r0, #23
 60c:	1349000f 	movtne	r0, #36879	; 0x900f
 610:	16030000 	strne	r0, [r3], -r0
 614:	03134900 	tsteq	r3, #0, 18
 618:	3b0b3a0e 	blcc	2cee58 <__Vectors_Size+0x2cec60>
 61c:	04000005 	streq	r0, [r0], #-5
 620:	0b0b0113 	bleq	2c0a74 <__Vectors_Size+0x2c087c>
 624:	053b0b3a 	ldreq	r0, [fp, #-2874]!	; 0xfffff4c6
 628:	0d050000 	stceq	0, cr0, [r5, #-0]
 62c:	490e0300 	stmdbmi	lr, {r8, r9}
 630:	3b0b3a13 	blcc	2cee84 <__Vectors_Size+0x2cec8c>
 634:	000b3805 	andeq	r3, fp, r5, lsl #16
 638:	00350600 	eorseq	r0, r5, r0, lsl #12
 63c:	00001349 	andeq	r1, r0, r9, asr #6
 640:	49001607 	stmdbmi	r0, {r0, r1, r2, r9, sl, ip}
 644:	3a0e0313 	bcc	381298 <__Vectors_Size+0x3810a0>
 648:	000b3b0b 	andeq	r3, fp, fp, lsl #22
 64c:	00240800 	eoreq	r0, r4, r0, lsl #16
 650:	0b3e0e03 	bleq	f83e64 <__Vectors_Size+0xf83c6c>
 654:	00000b0b 	andeq	r0, r0, fp, lsl #22
 658:	49002609 	stmdbmi	r0, {r0, r3, r9, sl, sp}
 65c:	0a000013 	beq	6b0 <__Vectors_Size+0x4b8>
 660:	0111012e 	tsteq	r1, lr, lsr #2
 664:	18400612 	stmdane	r0, {r1, r4, r9, sl}^
 668:	0b3a0e03 	bleq	e83e7c <__Vectors_Size+0xe83c84>
 66c:	19270b3b 	stmdbne	r7!, {r0, r1, r3, r4, r5, r8, r9, fp}
 670:	0000193f 	andeq	r1, r0, pc, lsr r9
 674:	0200050b 	andeq	r0, r0, #46137344	; 0x2c00000
 678:	3a0e0318 	bcc	3812e0 <__Vectors_Size+0x3810e8>
 67c:	490b3b0b 	stmdbmi	fp, {r0, r1, r3, r8, r9, fp, ip, sp}
 680:	0c000013 	stceq	0, cr0, [r0], {19}
 684:	0111010b 	tsteq	r1, fp, lsl #2
 688:	00000612 	andeq	r0, r0, r2, lsl r6
 68c:	0200340d 	andeq	r3, r0, #218103808	; 0xd000000
 690:	3a0e0318 	bcc	3812f8 <__Vectors_Size+0x381100>
 694:	490b3b0b 	stmdbmi	fp, {r0, r1, r3, r8, r9, fp, ip, sp}
 698:	00000013 	andeq	r0, r0, r3, lsl r0
 69c:	25011101 	strcs	r1, [r1, #-257]	; 0xfffffeff
 6a0:	0305130e 	movweq	r1, #21262	; 0x530e
 6a4:	1b17100e 	blne	5c46e4 <__Vectors_Size+0x5c44ec>
 6a8:	5501110e 	strpl	r1, [r1, #-270]	; 0xfffffef2
 6ac:	02000017 	andeq	r0, r0, #23
 6b0:	13490034 	movtne	r0, #36916	; 0x9034
 6b4:	0b3b0b3a 	bleq	ec33a4 <__Vectors_Size+0xec31ac>
 6b8:	00001802 	andeq	r1, r0, r2, lsl #16
 6bc:	49010103 	stmdbmi	r1, {r0, r1, r8}
 6c0:	04000013 	streq	r0, [r0], #-19	; 0xffffffed
 6c4:	13490021 	movtne	r0, #36897	; 0x9021
 6c8:	00000b37 	andeq	r0, r0, r7, lsr fp
 6cc:	03002405 	movweq	r2, #1029	; 0x405
 6d0:	0b0b3e0e 	bleq	2cff10 <__Vectors_Size+0x2cfd18>
 6d4:	0600000b 	streq	r0, [r0], -fp
 6d8:	0e030024 	cdpeq	0, 0, cr0, cr3, cr4, {1}
 6dc:	0b3e0b0b 	bleq	f83310 <__Vectors_Size+0xf83118>
 6e0:	34070000 	strcc	r0, [r7], #-0
 6e4:	490e0300 	stmdbmi	lr, {r8, r9}
 6e8:	3a193f13 	bcc	65033c <__Vectors_Size+0x650144>
 6ec:	020b3b0b 	andeq	r3, fp, #11264	; 0x2c00
 6f0:	08000018 	stmdaeq	r0, {r3, r4}
 6f4:	1349000f 	movtne	r0, #36879	; 0x900f
 6f8:	26090000 	strcs	r0, [r9], -r0
 6fc:	00134900 	andseq	r4, r3, r0, lsl #18
 700:	00160a00 	andseq	r0, r6, r0, lsl #20
 704:	0e031349 	cdpeq	3, 0, cr1, cr3, cr9, {2}
 708:	0b3b0b3a 	bleq	ec33f8 <__Vectors_Size+0xec3200>
 70c:	340b0000 	strcc	r0, [fp], #-0
 710:	490e0300 	stmdbmi	lr, {r8, r9}
 714:	3b0b3a13 	blcc	2cef68 <__Vectors_Size+0x2ced70>
 718:	0018020b 	andseq	r0, r8, fp, lsl #4
 71c:	00210c00 	eoreq	r0, r1, r0, lsl #24
 720:	05371349 	ldreq	r1, [r7, #-841]!	; 0xfffffcb7
 724:	160d0000 	strne	r0, [sp], -r0
 728:	03134900 	tsteq	r3, #0, 18
 72c:	3b0b3a0e 	blcc	2cef6c <__Vectors_Size+0x2ced74>
 730:	0e000005 	cdpeq	0, 0, cr0, cr0, cr5, {0}
 734:	0b0b0113 	bleq	2c0b88 <__Vectors_Size+0x2c0990>
 738:	053b0b3a 	ldreq	r0, [fp, #-2874]!	; 0xfffff4c6
 73c:	0d0f0000 	stceq	0, cr0, [pc, #-0]	; 744 <__Vectors_Size+0x54c>
 740:	490e0300 	stmdbmi	lr, {r8, r9}
 744:	3b0b3a13 	blcc	2cef98 <__Vectors_Size+0x2ceda0>
 748:	000b3805 	andeq	r3, fp, r5, lsl #16
 74c:	00351000 	eorseq	r1, r5, r0
 750:	00001349 	andeq	r1, r0, r9, asr #6
 754:	11002e11 	tstne	r0, r1, lsl lr
 758:	40061201 	andmi	r1, r6, r1, lsl #4
 75c:	3a0e0318 	bcc	3813c4 <__Vectors_Size+0x3811cc>
 760:	270b3b0b 	strcs	r3, [fp, -fp, lsl #22]
 764:	3f134919 	svccc	0x00134919
 768:	12000019 	andne	r0, r0, #25
 76c:	0111012e 	tsteq	r1, lr, lsr #2
 770:	18400612 	stmdane	r0, {r1, r4, r9, sl}^
 774:	0b3a0e03 	bleq	e83f88 <__Vectors_Size+0xe83d90>
 778:	19270b3b 	stmdbne	r7!, {r0, r1, r3, r4, r5, r8, r9, fp}
 77c:	0b130000 	bleq	4c0784 <__Vectors_Size+0x4c058c>
 780:	12011101 	andne	r1, r1, #1073741824	; 0x40000000
 784:	14000006 	strne	r0, [r0], #-6
 788:	18020034 	stmdane	r2, {r2, r4, r5}
 78c:	0b3a0e03 	bleq	e83fa0 <__Vectors_Size+0xe83da8>
 790:	13490b3b 	movtne	r0, #39739	; 0x9b3b
 794:	2e150000 	cdpcs	0, 1, cr0, cr5, cr0, {0}
 798:	12011100 	andne	r1, r1, #0, 2
 79c:	03184006 	tsteq	r8, #6
 7a0:	3b0b3a0e 	blcc	2cefe0 <__Vectors_Size+0x2cede8>
 7a4:	0019270b 	andseq	r2, r9, fp, lsl #14
 7a8:	00051600 	andeq	r1, r5, r0, lsl #12
 7ac:	0e031802 	cdpeq	8, 0, cr1, cr3, cr2, {0}
 7b0:	0b3b0b3a 	bleq	ec34a0 <__Vectors_Size+0xec32a8>
 7b4:	00001349 	andeq	r1, r0, r9, asr #6
 7b8:	11012e17 	tstne	r1, r7, lsl lr
 7bc:	40061201 	andmi	r1, r6, r1, lsl #4
 7c0:	3a0e0318 	bcc	381428 <__Vectors_Size+0x381230>
 7c4:	000b3b0b 	andeq	r3, fp, fp, lsl #22
 7c8:	11010000 	mrsne	r0, (UNDEF: 1)
 7cc:	130e2501 	movwne	r2, #58625	; 0xe501
 7d0:	100e0305 	andne	r0, lr, r5, lsl #6
 7d4:	110e1b17 	tstne	lr, r7, lsl fp
 7d8:	00175501 	andseq	r5, r7, r1, lsl #10
 7dc:	000f0200 	andeq	r0, pc, r0, lsl #4
 7e0:	00001349 	andeq	r1, r0, r9, asr #6
 7e4:	49001603 	stmdbmi	r0, {r0, r1, r9, sl, ip}
 7e8:	3a0e0313 	bcc	38143c <__Vectors_Size+0x381244>
 7ec:	00053b0b 	andeq	r3, r5, fp, lsl #22
 7f0:	01130400 	tsteq	r3, r0, lsl #8
 7f4:	0b3a0b0b 	bleq	e83428 <__Vectors_Size+0xe83230>
 7f8:	0000053b 	andeq	r0, r0, fp, lsr r5
 7fc:	03000d05 	movweq	r0, #3333	; 0xd05
 800:	3a13490e 	bcc	4d2c40 <__Vectors_Size+0x4d2a48>
 804:	38053b0b 	stmdacc	r5, {r0, r1, r3, r8, r9, fp, ip, sp}
 808:	0600000b 	streq	r0, [r0], -fp
 80c:	13490035 	movtne	r0, #36917	; 0x9035
 810:	16070000 	strne	r0, [r7], -r0
 814:	03134900 	tsteq	r3, #0, 18
 818:	3b0b3a0e 	blcc	2cf058 <__Vectors_Size+0x2cee60>
 81c:	0800000b 	stmdaeq	r0, {r0, r1, r3}
 820:	0e030024 	cdpeq	0, 0, cr0, cr3, cr4, {1}
 824:	0b0b0b3e 	bleq	2c3524 <__Vectors_Size+0x2c332c>
 828:	01090000 	mrseq	r0, (UNDEF: 9)
 82c:	00134901 	andseq	r4, r3, r1, lsl #18
 830:	00210a00 	eoreq	r0, r1, r0, lsl #20
 834:	0b371349 	bleq	dc5560 <__Vectors_Size+0xdc5368>
 838:	240b0000 	strcs	r0, [fp], #-0
 83c:	0b0e0300 	bleq	381444 <__Vectors_Size+0x38124c>
 840:	000b3e0b 	andeq	r3, fp, fp, lsl #28
 844:	01130c00 	tsteq	r3, r0, lsl #24
 848:	0b3a0b0b 	bleq	e8347c <__Vectors_Size+0xe83284>
 84c:	00000b3b 	andeq	r0, r0, fp, lsr fp
 850:	03000d0d 	movweq	r0, #3341	; 0xd0d
 854:	3a13490e 	bcc	4d2c94 <__Vectors_Size+0x4d2a9c>
 858:	380b3b0b 	stmdacc	fp, {r0, r1, r3, r8, r9, fp, ip, sp}
 85c:	0e00000b 	cdpeq	0, 0, cr0, cr0, cr11, {0}
 860:	0111012e 	tsteq	r1, lr, lsr #2
 864:	18400612 	stmdane	r0, {r1, r4, r9, sl}^
 868:	0b3a0e03 	bleq	e8407c <__Vectors_Size+0xe83e84>
 86c:	19270b3b 	stmdbne	r7!, {r0, r1, r3, r4, r5, r8, r9, fp}
 870:	0000193f 	andeq	r1, r0, pc, lsr r9
 874:	0200050f 	andeq	r0, r0, #62914560	; 0x3c00000
 878:	3a0e0318 	bcc	3814e0 <__Vectors_Size+0x3812e8>
 87c:	490b3b0b 	stmdbmi	fp, {r0, r1, r3, r8, r9, fp, ip, sp}
 880:	10000013 	andne	r0, r0, r3, lsl r0
 884:	0111012e 	tsteq	r1, lr, lsr #2
 888:	18400612 	stmdane	r0, {r1, r4, r9, sl}^
 88c:	0b3a0e03 	bleq	e840a0 <__Vectors_Size+0xe83ea8>
 890:	19270b3b 	stmdbne	r7!, {r0, r1, r3, r4, r5, r8, r9, fp}
 894:	193f1349 	ldmdbne	pc!, {r0, r3, r6, r8, r9, ip}	; <UNPREDICTABLE>
 898:	34110000 	ldrcc	r0, [r1], #-0
 89c:	03180200 	tsteq	r8, #0, 4
 8a0:	3b0b3a0e 	blcc	2cf0e0 <__Vectors_Size+0x2ceee8>
 8a4:	0013490b 	andseq	r4, r3, fp, lsl #18
	...

Disassembly of section .debug_frame:

00000000 <.debug_frame>:
TIM_WaitMicros():
D:\#Documents\UVISION\SMART_WAKE_UP/tim.c:4
   0:	00000030 	andeq	r0, r0, r0, lsr r0
   4:	ffffffff 			; <UNDEFINED> instruction: 0xffffffff
   8:	6d726103 	ldfvse	f6, [r2, #-12]!
   c:	002b6363 	eoreq	r6, fp, r3, ror #6
D:\#Documents\UVISION\SMART_WAKE_UP/tim.c:5
  10:	120e7c01 	andne	r7, lr, #256	; 0x100
  14:	0007000d 	andeq	r0, r7, sp
  18:	02070107 	andeq	r0, r7, #-1073741823	; 0xc0000001
D:\#Documents\UVISION\SMART_WAKE_UP/tim.c:6
  1c:	04080307 	streq	r0, [r8], #-775	; 0xfffffcf9
  20:	06080508 	streq	r0, [r8], -r8, lsl #10
  24:	08080708 	stmdaeq	r8, {r3, r8, r9, sl}
D:\#Documents\UVISION\SMART_WAKE_UP/tim.c:8
  28:	0a080908 	beq	202450 <__Vectors_Size+0x202258>
  2c:	0c070b08 			; <UNDEFINED> instruction: 0x0c070b08
  30:	00000e08 	andeq	r0, r0, r8, lsl #28
  34:	0000000c 	andeq	r0, r0, ip
D:\#Documents\UVISION\SMART_WAKE_UP/tim.c:52
  38:	00000000 	andeq	r0, r0, r0
  3c:	08000298 	stmdaeq	r0, {r3, r4, r7, r9}
D:\#Documents\UVISION\SMART_WAKE_UP/tim.c:8
  40:	0000001c 	andeq	r0, r0, ip, lsl r0
  44:	00000030 	andeq	r0, r0, r0, lsr r0
  48:	ffffffff 			; <UNDEFINED> instruction: 0xffffffff
  4c:	6d726103 	ldfvse	f6, [r2, #-12]!
  50:	002b6363 	eoreq	r6, fp, r3, ror #6
  54:	120e7c01 	andne	r7, lr, #256	; 0x100
D:\#Documents\UVISION\SMART_WAKE_UP/tim.c:58
  58:	0007000d 	andeq	r0, r7, sp
  5c:	02070107 	andeq	r0, r7, #-1073741823	; 0xc0000001
D:\#Documents\UVISION\SMART_WAKE_UP/tim.c:9
  60:	04080307 	streq	r0, [r8], #-775	; 0xfffffcf9
D:\#Documents\UVISION\SMART_WAKE_UP/tim.c:10
  64:	06080508 	streq	r0, [r8], -r8, lsl #10
GPIO_AnalogRead():
D:\#Documents\UVISION\SMART_WAKE_UP/gpio.c:61
  68:	08080708 	stmdaeq	r8, {r3, r8, r9, sl}
  6c:	0a080908 	beq	202494 <__Vectors_Size+0x20229c>
  70:	0c070b08 			; <UNDEFINED> instruction: 0x0c070b08
D:\#Documents\UVISION\SMART_WAKE_UP/gpio.c:63
  74:	00000e08 	andeq	r0, r0, r8, lsl #28
  78:	0000000c 	andeq	r0, r0, ip
URM37_Init():
D:\#Documents\UVISION\SMART_WAKE_UP/urm37.c:125
  7c:	00000044 	andeq	r0, r0, r4, asr #32
D:\#Documents\UVISION\SMART_WAKE_UP/urm37.c:126
  80:	08000200 	stmdaeq	r0, {r9}
  84:	0000002c 	andeq	r0, r0, ip, lsr #32
  88:	00000030 	andeq	r0, r0, r0, lsr r0
  8c:	ffffffff 			; <UNDEFINED> instruction: 0xffffffff
  90:	6d726103 	ldfvse	f6, [r2, #-12]!
  94:	002b6363 	eoreq	r6, fp, r3, ror #6
  98:	120e7c01 	andne	r7, lr, #256	; 0x100
D:\#Documents\UVISION\SMART_WAKE_UP/urm37.c:128
  9c:	0007000d 	andeq	r0, r7, sp
D:\#Documents\UVISION\SMART_WAKE_UP/urm37.c:129
  a0:	02070107 	andeq	r0, r7, #-1073741823	; 0xc0000001
  a4:	04080307 	streq	r0, [r8], #-775	; 0xfffffcf9
  a8:	06080508 	streq	r0, [r8], -r8, lsl #10
  ac:	08080708 	stmdaeq	r8, {r3, r8, r9, sl}
  b0:	0a080908 	beq	2024d8 <__Vectors_Size+0x2022e0>
  b4:	0c070b08 			; <UNDEFINED> instruction: 0x0c070b08
  b8:	00000e08 	andeq	r0, r0, r8, lsl #28
URM37_GetTemperature():
  bc:	0000000c 	andeq	r0, r0, ip
SystemCoreClockUpdate():
D:\#Documents\UVISION\SMART_WAKE_UP/RTE/Device/STM32F767ZITx/system_stm32f7xx.c:231
  c0:	00000088 	andeq	r0, r0, r8, lsl #1
D:\#Documents\UVISION\SMART_WAKE_UP/RTE/Device/STM32F767ZITx/system_stm32f7xx.c:449
  c4:	08000234 	stmdaeq	r0, {r2, r4, r5, r9}
  c8:	00000064 	andeq	r0, r0, r4, rrx
D:\#Documents\UVISION\SMART_WAKE_UP/RTE/Device/STM32F767ZITx/system_stm32f7xx.c:234
  cc:	00000010 	andeq	r0, r0, r0, lsl r0
  d0:	ffffffff 			; <UNDEFINED> instruction: 0xffffffff
  d4:	00040004 	andeq	r0, r4, r4
D:\#Documents\UVISION\SMART_WAKE_UP/RTE/Device/STM32F767ZITx/system_stm32f7xx.c:235
  d8:	0c0e7c01 	stceq	12, cr7, [lr], {1}
  dc:	0000000d 	andeq	r0, r0, sp
  e0:	00000060 	andeq	r0, r0, r0, rrx
  e4:	ffffffff 			; <UNDEFINED> instruction: 0xffffffff
  e8:	6d726103 	ldfvse	f6, [r2, #-12]!
D:\#Documents\UVISION\SMART_WAKE_UP/RTE/Device/STM32F767ZITx/system_stm32f7xx.c:238
  ec:	002b6363 	eoreq	r6, fp, r3, ror #6
  f0:	120e7c01 	andne	r7, lr, #256	; 0x100
  f4:	0007000d 	andeq	r0, r7, sp
  f8:	02070107 	andeq	r0, r7, #-1073741823	; 0xc0000001
  fc:	04080307 	streq	r0, [r8], #-775	; 0xfffffcf9
D:\#Documents\UVISION\SMART_WAKE_UP/RTE/Device/STM32F767ZITx/system_stm32f7xx.c:456
 100:	06080508 	streq	r0, [r8], -r8, lsl #10
D:\#Documents\UVISION\SMART_WAKE_UP/RTE/Device/STM32F767ZITx/system_stm32f7xx.c:457
 104:	08080708 	stmdaeq	r8, {r3, r8, r9, sl}
D:\#Documents\UVISION\SMART_WAKE_UP/RTE/Device/STM32F767ZITx/system_stm32f7xx.c:243
 108:	0a080908 	beq	202530 <__Vectors_Size+0x202338>
 10c:	0c070b08 			; <UNDEFINED> instruction: 0x0c070b08
 110:	80070e08 	andhi	r0, r7, r8, lsl #28
 114:	02810702 	addeq	r0, r1, #524288	; 0x80000
 118:	07028207 	streq	r8, [r2, -r7, lsl #4]
D:\#Documents\UVISION\SMART_WAKE_UP/RTE/Device/STM32F767ZITx/system_stm32f7xx.c:245
 11c:	84070283 	strhi	r0, [r7], #-643	; 0xfffffd7d
 120:	02850702 	addeq	r0, r5, #524288	; 0x80000
 124:	07028607 	streq	r8, [r2, -r7, lsl #12]
 128:	88080287 	stmdahi	r8, {r0, r1, r2, r7, r9}
D:\#Documents\UVISION\SMART_WAKE_UP/RTE/Device/STM32F767ZITx/system_stm32f7xx.c:246
 12c:	02890802 	addeq	r0, r9, #131072	; 0x20000
SH1106_DrawCircle():
D:\#Documents\UVISION\SMART_WAKE_UP/sh1106.c:461
 130:	08028a08 	stmdaeq	r2, {r3, r9, fp, pc}
 134:	8c08028b 	sfmhi	f0, 4, [r8], {139}	; 0x8b
 138:	028d0802 	addeq	r0, sp, #131072	; 0x20000
 13c:	08028e08 	stmdaeq	r2, {r3, r9, sl, fp, pc}
 140:	0000028f 	andeq	r0, r0, pc, lsl #5
 144:	00000030 	andeq	r0, r0, r0, lsr r0
 148:	ffffffff 			; <UNDEFINED> instruction: 0xffffffff
 14c:	6d726103 	ldfvse	f6, [r2, #-12]!
D:\#Documents\UVISION\SMART_WAKE_UP/sh1106.c:462
 150:	002b6363 	eoreq	r6, fp, r3, ror #6
 154:	120e7c02 	andne	r7, lr, #512	; 0x200
 158:	0007000d 	andeq	r0, r7, sp
 15c:	02070107 	andeq	r0, r7, #-1073741823	; 0xc0000001
 160:	04080307 	streq	r0, [r8], #-775	; 0xfffffcf9
 164:	06080508 	streq	r0, [r8], -r8, lsl #10
 168:	08080708 	stmdaeq	r8, {r3, r8, r9, sl}
 16c:	0a080908 	beq	202594 <__Vectors_Size+0x20239c>
 170:	0c070b08 			; <UNDEFINED> instruction: 0x0c070b08
 174:	00000e08 	andeq	r0, r0, r8, lsl #28
D:\#Documents\UVISION\SMART_WAKE_UP/sh1106.c:464
 178:	00000030 	andeq	r0, r0, r0, lsr r0
 17c:	ffffffff 			; <UNDEFINED> instruction: 0xffffffff
 180:	6d726103 	ldfvse	f6, [r2, #-12]!
 184:	002b6363 	eoreq	r6, fp, r3, ror #6
 188:	120e7c02 	andne	r7, lr, #512	; 0x200
 18c:	0008000d 	andeq	r0, r8, sp
 190:	02080108 	andeq	r0, r8, #8, 2
 194:	04080308 	streq	r0, [r8], #-776	; 0xfffffcf8
 198:	06080508 	streq	r0, [r8], -r8, lsl #10
 19c:	08080708 	stmdaeq	r8, {r3, r8, r9, sl}
D:\#Documents\UVISION\SMART_WAKE_UP/sh1106.c:465
 1a0:	0a080908 	beq	2025c8 <__Vectors_Size+0x2023d0>
SH1106_DrawFilledCircle():
D:\#Documents\UVISION\SMART_WAKE_UP/sh1106.c:465
 1a4:	0c080b08 			; <UNDEFINED> instruction: 0x0c080b08
 1a8:	00000e08 	andeq	r0, r0, r8, lsl #28
 1ac:	00000030 	andeq	r0, r0, r0, lsr r0
 1b0:	ffffffff 			; <UNDEFINED> instruction: 0xffffffff
 1b4:	6d726103 	ldfvse	f6, [r2, #-12]!
 1b8:	002b6363 	eoreq	r6, fp, r3, ror #6
 1bc:	120e7c01 	andne	r7, lr, #256	; 0x100
 1c0:	0007000d 	andeq	r0, r7, sp
 1c4:	02070107 	andeq	r0, r7, #-1073741823	; 0xc0000001
D:\#Documents\UVISION\SMART_WAKE_UP/sh1106.c:449
 1c8:	04080307 	streq	r0, [r8], #-775	; 0xfffffcf9
D:\#Documents\UVISION\SMART_WAKE_UP/sh1106.c:467
 1cc:	06080508 	streq	r0, [r8], -r8, lsl #10
 1d0:	08080708 	stmdaeq	r8, {r3, r8, r9, sl}
 1d4:	0a080908 	beq	2025fc <__Vectors_Size+0x202404>
 1d8:	0c070b08 			; <UNDEFINED> instruction: 0x0c070b08
 1dc:	00000e08 	andeq	r0, r0, r8, lsl #28
 1e0:	00000060 	andeq	r0, r0, r0, rrx
 1e4:	ffffffff 			; <UNDEFINED> instruction: 0xffffffff
 1e8:	6d726103 	ldfvse	f6, [r2, #-12]!
 1ec:	002b6363 	eoreq	r6, fp, r3, ror #6
 1f0:	120e7c02 	andne	r7, lr, #512	; 0x200
 1f4:	0007000d 	andeq	r0, r7, sp
 1f8:	02070107 	andeq	r0, r7, #-1073741823	; 0xc0000001
 1fc:	04080307 	streq	r0, [r8], #-775	; 0xfffffcf9
 200:	06080508 	streq	r0, [r8], -r8, lsl #10
 204:	08080708 	stmdaeq	r8, {r3, r8, r9, sl}
 208:	0a080908 	beq	202630 <__Vectors_Size+0x202438>
 20c:	0c070b08 			; <UNDEFINED> instruction: 0x0c070b08
 210:	80070e08 	andhi	r0, r7, r8, lsl #28
 214:	02810702 	addeq	r0, r1, #524288	; 0x80000
 218:	07028207 	streq	r8, [r2, -r7, lsl #4]
 21c:	84070283 	strhi	r0, [r7], #-643	; 0xfffffd7d
 220:	02850702 	addeq	r0, r5, #524288	; 0x80000
 224:	07028607 	streq	r8, [r2, -r7, lsl #12]
 228:	88080287 	stmdahi	r8, {r0, r1, r2, r7, r9}
 22c:	02890802 	addeq	r0, r9, #131072	; 0x20000
 230:	08028a08 	stmdaeq	r2, {r3, r9, fp, pc}
 234:	8c08028b 	sfmhi	f0, 4, [r8], {139}	; 0x8b
 238:	028d0802 	addeq	r0, sp, #131072	; 0x20000
 23c:	08028e08 	stmdaeq	r2, {r3, r9, sl, fp, pc}
 240:	0000028f 	andeq	r0, r0, pc, lsl #5
 244:	00000010 	andeq	r0, r0, r0, lsl r0
 248:	000000cc 	andeq	r0, r0, ip, asr #1
 24c:	08001b28 	stmdaeq	r0, {r3, r5, r8, r9, fp, ip}
 250:	000001d8 	ldrdeq	r0, [r0], -r8
 254:	00080e42 	andeq	r0, r8, r2, asr #28
 258:	00000010 	andeq	r0, r0, r0, lsl r0
 25c:	000000cc 	andeq	r0, r0, ip, asr #1
 260:	08001ae0 	stmdaeq	r0, {r5, r6, r7, r9, fp, ip}
 264:	00000044 	andeq	r0, r0, r4, asr #32
 268:	00080e42 	andeq	r0, r8, r2, asr #28
 26c:	00000010 	andeq	r0, r0, r0, lsl r0
 270:	000000cc 	andeq	r0, r0, ip, asr #1
 274:	00000000 	andeq	r0, r0, r0
 278:	00000030 	andeq	r0, r0, r0, lsr r0
 27c:	000c0e42 	andeq	r0, ip, r2, asr #28
 280:	00000010 	andeq	r0, r0, r0, lsl r0
 284:	000000cc 	andeq	r0, r0, ip, asr #1
 288:	00000000 	andeq	r0, r0, r0
 28c:	0000007a 	andeq	r0, r0, sl, ror r0
 290:	00080e42 	andeq	r0, r8, r2, asr #28
 294:	00000018 	andeq	r0, r0, r8, lsl r0
 298:	000000cc 	andeq	r0, r0, ip, asr #1
 29c:	08003400 	stmdaeq	r0, {sl, ip, sp}
 2a0:	0000008e 	andeq	r0, r0, lr, lsl #1
 2a4:	8e080e42 	cdphi	14, 0, cr0, cr8, cr2, {2}
 2a8:	42028701 	andmi	r8, r2, #262144	; 0x40000
 2ac:	0000100e 	andeq	r1, r0, lr
 2b0:	00000018 	andeq	r0, r0, r8, lsl r0
 2b4:	000000cc 	andeq	r0, r0, ip, asr #1
 2b8:	08001ed0 	stmdaeq	r0, {r4, r6, r7, r9, sl, fp, ip}
 2bc:	000000c0 	andeq	r0, r0, r0, asr #1
 2c0:	8e080e42 	cdphi	14, 0, cr0, cr8, cr2, {2}
 2c4:	42028701 	andmi	r8, r2, #262144	; 0x40000
 2c8:	0000180e 	andeq	r1, r0, lr, lsl #16
 2cc:	0000001c 	andeq	r0, r0, ip, lsl r0
 2d0:	000000cc 	andeq	r0, r0, ip, asr #1
 2d4:	08001d00 	stmdaeq	r0, {r8, sl, fp, ip}
 2d8:	000001ca 	andeq	r0, r0, sl, asr #3
 2dc:	8e100e42 	cdphi	14, 1, cr0, cr0, cr2, {2}
 2e0:	85028701 	strhi	r8, [r2, #-1793]	; 0xfffff8ff
 2e4:	42048403 	andmi	r8, r4, #50331648	; 0x3000000
 2e8:	0000600e 	andeq	r6, r0, lr
 2ec:	00000018 	andeq	r0, r0, r8, lsl r0
 2f0:	000000cc 	andeq	r0, r0, ip, asr #1
 2f4:	08001f90 	stmdaeq	r0, {r4, r7, r8, r9, sl, fp, ip}
 2f8:	0000013e 	andeq	r0, r0, lr, lsr r1
 2fc:	8e080e42 	cdphi	14, 0, cr0, cr8, cr2, {2}
 300:	42028701 	andmi	r8, r2, #262144	; 0x40000
 304:	0000100e 	andeq	r1, r0, lr
 308:	00000018 	andeq	r0, r0, r8, lsl r0
 30c:	000000cc 	andeq	r0, r0, ip, asr #1
 310:	08002af0 	stmdaeq	r0, {r4, r5, r6, r7, r9, fp, sp}
 314:	000000ae 	andeq	r0, r0, lr, lsr #1
 318:	8e080e42 	cdphi	14, 0, cr0, cr8, cr2, {2}
 31c:	42028701 	andmi	r8, r2, #262144	; 0x40000
 320:	0000280e 	andeq	r2, r0, lr, lsl #16
 324:	00000018 	andeq	r0, r0, r8, lsl r0
 328:	000000cc 	andeq	r0, r0, ip, asr #1
 32c:	08002ba0 	stmdaeq	r0, {r5, r7, r8, r9, fp, sp}
 330:	00000458 	andeq	r0, r0, r8, asr r4
 334:	8e080e42 	cdphi	14, 0, cr0, cr8, cr2, {2}
 338:	42028701 	andmi	r8, r2, #262144	; 0x40000
 33c:	0000180e 	andeq	r1, r0, lr, lsl #16
 340:	00000018 	andeq	r0, r0, r8, lsl r0
 344:	000000cc 	andeq	r0, r0, ip, asr #1
 348:	08002ff8 	stmdaeq	r0, {r3, r4, r5, r6, r7, r8, r9, sl, fp, sp}
 34c:	00000236 	andeq	r0, r0, r6, lsr r2
 350:	8e080e42 	cdphi	14, 0, cr0, cr8, cr2, {2}
 354:	42028701 	andmi	r8, r2, #262144	; 0x40000
 358:	0000180e 	andeq	r1, r0, lr, lsl #16
 35c:	00000018 	andeq	r0, r0, r8, lsl r0
 360:	000000cc 	andeq	r0, r0, ip, asr #1
 364:	08003230 	stmdaeq	r0, {r4, r5, r9, ip, sp}
 368:	000001d0 	ldrdeq	r0, [r0], -r0	; <UNPREDICTABLE>
 36c:	8e080e42 	cdphi	14, 0, cr0, cr8, cr2, {2}
 370:	42028701 	andmi	r8, r2, #262144	; 0x40000
 374:	0000180e 	andeq	r1, r0, lr, lsl #16
 378:	00000010 	andeq	r0, r0, r0, lsl r0
 37c:	000000cc 	andeq	r0, r0, ip, asr #1
 380:	00000000 	andeq	r0, r0, r0
 384:	00000066 	andeq	r0, r0, r6, rrx
 388:	00080e42 	andeq	r0, r8, r2, asr #28
 38c:	00000010 	andeq	r0, r0, r0, lsl r0
 390:	000000cc 	andeq	r0, r0, ip, asr #1
 394:	08002918 	stmdaeq	r0, {r3, r4, r8, fp, sp}
 398:	00000068 	andeq	r0, r0, r8, rrx
 39c:	00080e42 	andeq	r0, r8, r2, asr #28
 3a0:	00000018 	andeq	r0, r0, r8, lsl r0
 3a4:	000000cc 	andeq	r0, r0, ip, asr #1
 3a8:	00000000 	andeq	r0, r0, r0
 3ac:	000000ba 	strheq	r0, [r0], -sl
 3b0:	8e080e42 	cdphi	14, 0, cr0, cr8, cr2, {2}
 3b4:	42028701 	andmi	r8, r2, #262144	; 0x40000
 3b8:	0000100e 	andeq	r1, r0, lr
 3bc:	00000010 	andeq	r0, r0, r0, lsl r0
 3c0:	000000cc 	andeq	r0, r0, ip, asr #1
 3c4:	00000000 	andeq	r0, r0, r0
 3c8:	00000042 	andeq	r0, r0, r2, asr #32
 3cc:	00080e42 	andeq	r0, r8, r2, asr #28
 3d0:	00000010 	andeq	r0, r0, r0, lsl r0
 3d4:	000000cc 	andeq	r0, r0, ip, asr #1
 3d8:	00000000 	andeq	r0, r0, r0
 3dc:	00000030 	andeq	r0, r0, r0, lsr r0
 3e0:	00040e42 	andeq	r0, r4, r2, asr #28
 3e4:	00000010 	andeq	r0, r0, r0, lsl r0
 3e8:	000000cc 	andeq	r0, r0, ip, asr #1
 3ec:	00000000 	andeq	r0, r0, r0
 3f0:	00000076 	andeq	r0, r0, r6, ror r0
 3f4:	00040e42 	andeq	r0, r4, r2, asr #28
 3f8:	00000010 	andeq	r0, r0, r0, lsl r0
 3fc:	000000cc 	andeq	r0, r0, ip, asr #1
 400:	08002980 	stmdaeq	r0, {r7, r8, fp, sp}
 404:	000000f2 	strdeq	r0, [r0], -r2
 408:	00080e42 	andeq	r0, r8, r2, asr #28
 40c:	00000010 	andeq	r0, r0, r0, lsl r0
 410:	000000cc 	andeq	r0, r0, ip, asr #1
 414:	00000000 	andeq	r0, r0, r0
 418:	000000c0 	andeq	r0, r0, r0, asr #1
 41c:	000c0e42 	andeq	r0, ip, r2, asr #28
 420:	00000010 	andeq	r0, r0, r0, lsl r0
 424:	000000cc 	andeq	r0, r0, ip, asr #1
 428:	00000000 	andeq	r0, r0, r0
 42c:	00000060 	andeq	r0, r0, r0, rrx
 430:	00040e42 	andeq	r0, r4, r2, asr #28
 434:	0000000c 	andeq	r0, r0, ip
 438:	000000cc 	andeq	r0, r0, ip, asr #1
 43c:	08001708 	stmdaeq	r0, {r3, r8, r9, sl, ip}
 440:	00000090 	muleq	r0, r0, r0
 444:	00000010 	andeq	r0, r0, r0, lsl r0
 448:	000000cc 	andeq	r0, r0, ip, asr #1
 44c:	080016c8 	stmdaeq	r0, {r3, r6, r7, r9, sl, ip}
 450:	00000018 	andeq	r0, r0, r8, lsl r0
 454:	00040e42 	andeq	r0, r4, r2, asr #28
 458:	00000010 	andeq	r0, r0, r0, lsl r0
 45c:	000000cc 	andeq	r0, r0, ip, asr #1
 460:	080016e0 	stmdaeq	r0, {r5, r6, r7, r9, sl, ip}
 464:	00000024 	andeq	r0, r0, r4, lsr #32
 468:	00040e42 	andeq	r0, r4, r2, asr #28
 46c:	00000010 	andeq	r0, r0, r0, lsl r0
 470:	000000cc 	andeq	r0, r0, ip, asr #1
 474:	08001798 	stmdaeq	r0, {r3, r4, r7, r8, r9, sl, ip}
 478:	00000188 	andeq	r0, r0, r8, lsl #3
 47c:	00180e42 	andseq	r0, r8, r2, asr #28
 480:	00000010 	andeq	r0, r0, r0, lsl r0
 484:	000000cc 	andeq	r0, r0, ip, asr #1
 488:	08001920 	stmdaeq	r0, {r5, r8, fp, ip}
 48c:	000000d0 	ldrdeq	r0, [r0], -r0	; <UNPREDICTABLE>
 490:	00180e42 	andseq	r0, r8, r2, asr #28
 494:	00000018 	andeq	r0, r0, r8, lsl r0
 498:	000000cc 	andeq	r0, r0, ip, asr #1
 49c:	08002530 	stmdaeq	r0, {r4, r5, r8, sl, sp}
 4a0:	00000064 	andeq	r0, r0, r4, rrx
 4a4:	8e080e42 	cdphi	14, 0, cr0, cr8, cr2, {2}
 4a8:	42028701 	andmi	r8, r2, #262144	; 0x40000
 4ac:	0000100e 	andeq	r1, r0, lr
 4b0:	00000018 	andeq	r0, r0, r8, lsl r0
 4b4:	000000cc 	andeq	r0, r0, ip, asr #1
 4b8:	08002598 	stmdaeq	r0, {r3, r4, r7, r8, sl, sp}
 4bc:	00000032 	andeq	r0, r0, r2, lsr r0
 4c0:	8e080e42 	cdphi	14, 0, cr0, cr8, cr2, {2}
 4c4:	42028701 	andmi	r8, r2, #262144	; 0x40000
 4c8:	0000100e 	andeq	r1, r0, lr
 4cc:	00000018 	andeq	r0, r0, r8, lsl r0
 4d0:	000000cc 	andeq	r0, r0, ip, asr #1
 4d4:	080025d0 	stmdaeq	r0, {r4, r6, r7, r8, sl, sp}
 4d8:	00000036 	andeq	r0, r0, r6, lsr r0
 4dc:	8e080e42 	cdphi	14, 0, cr0, cr8, cr2, {2}
 4e0:	42028701 	andmi	r8, r2, #262144	; 0x40000
 4e4:	0000180e 	andeq	r1, r0, lr, lsl #16
 4e8:	00000010 	andeq	r0, r0, r0, lsl r0
 4ec:	000000cc 	andeq	r0, r0, ip, asr #1
 4f0:	08002628 	stmdaeq	r0, {r3, r5, r9, sl, sp}
 4f4:	000000ae 	andeq	r0, r0, lr, lsr #1
 4f8:	000c0e42 	andeq	r0, ip, r2, asr #28
 4fc:	0000001c 	andeq	r0, r0, ip, lsl r0
 500:	000000cc 	andeq	r0, r0, ip, asr #1
 504:	08002340 	stmdaeq	r0, {r6, r8, r9, sp}
 508:	00000122 	andeq	r0, r0, r2, lsr #2
 50c:	8e100e42 	cdphi	14, 1, cr0, cr0, cr2, {2}
 510:	85028701 	strhi	r8, [r2, #-1793]	; 0xfffff8ff
 514:	42048403 	andmi	r8, r4, #50331648	; 0x3000000
 518:	0000780e 	andeq	r7, r0, lr, lsl #16
 51c:	0000001c 	andeq	r0, r0, ip, lsl r0
 520:	000000cc 	andeq	r0, r0, ip, asr #1
 524:	08002100 	stmdaeq	r0, {r8, sp}
 528:	0000010e 	andeq	r0, r0, lr, lsl #2
 52c:	8e100e42 	cdphi	14, 1, cr0, cr0, cr2, {2}
 530:	85028701 	strhi	r8, [r2, #-1793]	; 0xfffff8ff
 534:	42048403 	andmi	r8, r4, #50331648	; 0x3000000
 538:	0000400e 	andeq	r4, r0, lr
 53c:	00000018 	andeq	r0, r0, r8, lsl r0
 540:	000000cc 	andeq	r0, r0, ip, asr #1
 544:	08002210 	stmdaeq	r0, {r4, r9, sp}
 548:	00000130 	andeq	r0, r0, r0, lsr r1
 54c:	8e080e42 	cdphi	14, 0, cr0, cr8, cr2, {2}
 550:	42028701 	andmi	r8, r2, #262144	; 0x40000
 554:	0000380e 	andeq	r3, r0, lr, lsl #16
 558:	00000018 	andeq	r0, r0, r8, lsl r0
 55c:	000000cc 	andeq	r0, r0, ip, asr #1
 560:	00000000 	andeq	r0, r0, r0
 564:	00000108 	andeq	r0, r0, r8, lsl #2
 568:	8e080e42 	cdphi	14, 0, cr0, cr8, cr2, {2}
 56c:	42028701 	andmi	r8, r2, #262144	; 0x40000
 570:	0000180e 	andeq	r1, r0, lr, lsl #16
 574:	00000018 	andeq	r0, r0, r8, lsl r0
 578:	000000cc 	andeq	r0, r0, ip, asr #1
 57c:	00000000 	andeq	r0, r0, r0
 580:	000000be 	strheq	r0, [r0], -lr
 584:	8e080e42 	cdphi	14, 0, cr0, cr8, cr2, {2}
 588:	42028701 	andmi	r8, r2, #262144	; 0x40000
 58c:	0000180e 	andeq	r1, r0, lr, lsl #16
 590:	00000018 	andeq	r0, r0, r8, lsl r0
 594:	000000cc 	andeq	r0, r0, ip, asr #1
 598:	00000000 	andeq	r0, r0, r0
 59c:	000001a2 	andeq	r0, r0, r2, lsr #3
 5a0:	8e080e42 	cdphi	14, 0, cr0, cr8, cr2, {2}
 5a4:	42028701 	andmi	r8, r2, #262144	; 0x40000
 5a8:	0000180e 	andeq	r1, r0, lr, lsl #16
 5ac:	00000018 	andeq	r0, r0, r8, lsl r0
 5b0:	000000cc 	andeq	r0, r0, ip, asr #1
 5b4:	00000000 	andeq	r0, r0, r0
 5b8:	000001ce 	andeq	r0, r0, lr, asr #3
 5bc:	8e080e42 	cdphi	14, 0, cr0, cr8, cr2, {2}
 5c0:	42028701 	andmi	r8, r2, #262144	; 0x40000
 5c4:	0000200e 	andeq	r2, r0, lr
 5c8:	00000010 	andeq	r0, r0, r0, lsl r0
 5cc:	000000cc 	andeq	r0, r0, ip, asr #1
 5d0:	080020d0 	stmdaeq	r0, {r4, r6, r7, sp}
 5d4:	0000002e 	andeq	r0, r0, lr, lsr #32
 5d8:	00040e42 	andeq	r0, r4, r2, asr #28
 5dc:	00000018 	andeq	r0, r0, r8, lsl r0
 5e0:	000000cc 	andeq	r0, r0, ip, asr #1
 5e4:	08002468 	stmdaeq	r0, {r3, r5, r6, sl, sp}
 5e8:	0000008a 	andeq	r0, r0, sl, lsl #1
 5ec:	8e080e42 	cdphi	14, 0, cr0, cr8, cr2, {2}
 5f0:	42028701 	andmi	r8, r2, #262144	; 0x40000
 5f4:	0000100e 	andeq	r1, r0, lr
 5f8:	0000000c 	andeq	r0, r0, ip
 5fc:	000000cc 	andeq	r0, r0, ip, asr #1
 600:	080026d8 	stmdaeq	r0, {r3, r4, r6, r7, r9, sl, sp}
 604:	000000e6 	andeq	r0, r0, r6, ror #1
 608:	00000018 	andeq	r0, r0, r8, lsl r0
 60c:	000000cc 	andeq	r0, r0, ip, asr #1
 610:	080024f8 	stmdaeq	r0, {r3, r4, r5, r6, r7, sl, sp}
 614:	00000034 	andeq	r0, r0, r4, lsr r0
 618:	8e080e42 	cdphi	14, 0, cr0, cr8, cr2, {2}
 61c:	42028701 	andmi	r8, r2, #262144	; 0x40000
 620:	0000180e 	andeq	r1, r0, lr, lsl #16
 624:	00000018 	andeq	r0, r0, r8, lsl r0
 628:	000000cc 	andeq	r0, r0, ip, asr #1
 62c:	08002608 	stmdaeq	r0, {r3, r9, sl, sp}
 630:	00000020 	andeq	r0, r0, r0, lsr #32
 634:	8e080e42 	cdphi	14, 0, cr0, cr8, cr2, {2}
 638:	42028701 	andmi	r8, r2, #262144	; 0x40000
 63c:	0000100e 	andeq	r1, r0, lr
 640:	00000010 	andeq	r0, r0, r0, lsl r0
 644:	000000cc 	andeq	r0, r0, ip, asr #1
 648:	080027c0 	stmdaeq	r0, {r6, r7, r8, r9, sl, sp}
 64c:	0000006e 	andeq	r0, r0, lr, rrx
 650:	00040e42 	andeq	r0, r4, r2, asr #28
 654:	00000014 	andeq	r0, r0, r4, lsl r0
 658:	000000cc 	andeq	r0, r0, ip, asr #1
 65c:	080014c8 	stmdaeq	r0, {r3, r6, r7, sl, ip}
 660:	00000020 	andeq	r0, r0, r0, lsr #32
 664:	8e080e42 	cdphi	14, 0, cr0, cr8, cr2, {2}
 668:	00028701 	andeq	r8, r2, r1, lsl #14
 66c:	00000014 	andeq	r0, r0, r4, lsl r0
 670:	000000cc 	andeq	r0, r0, ip, asr #1
 674:	080014e8 	stmdaeq	r0, {r3, r5, r6, r7, sl, ip}
 678:	00000112 	andeq	r0, r0, r2, lsl r1
 67c:	8e080e42 	cdphi	14, 0, cr0, cr8, cr2, {2}
 680:	00028401 	andeq	r8, r2, r1, lsl #8
 684:	00000018 	andeq	r0, r0, r8, lsl r0
 688:	000000cc 	andeq	r0, r0, ip, asr #1
 68c:	08001600 	stmdaeq	r0, {r9, sl, ip}
 690:	00000048 	andeq	r0, r0, r8, asr #32
 694:	8e080e42 	cdphi	14, 0, cr0, cr8, cr2, {2}
 698:	42028701 	andmi	r8, r2, #262144	; 0x40000
 69c:	0000180e 	andeq	r1, r0, lr, lsl #16
 6a0:	00000018 	andeq	r0, r0, r8, lsl r0
 6a4:	000000cc 	andeq	r0, r0, ip, asr #1
 6a8:	08001668 	stmdaeq	r0, {r3, r5, r6, r9, sl, ip}
 6ac:	0000005a 	andeq	r0, r0, sl, asr r0
 6b0:	8e080e42 	cdphi	14, 0, cr0, cr8, cr2, {2}
 6b4:	42028701 	andmi	r8, r2, #262144	; 0x40000
 6b8:	0000100e 	andeq	r1, r0, lr
 6bc:	0000000c 	andeq	r0, r0, ip
 6c0:	000000cc 	andeq	r0, r0, ip, asr #1
 6c4:	080019f0 	stmdaeq	r0, {r4, r5, r6, r7, r8, fp, ip}
 6c8:	0000003c 	andeq	r0, r0, ip, lsr r0
 6cc:	0000000c 	andeq	r0, r0, ip
 6d0:	000000cc 	andeq	r0, r0, ip, asr #1
 6d4:	08001a30 	stmdaeq	r0, {r4, r5, r9, fp, ip}
 6d8:	0000003c 	andeq	r0, r0, ip, lsr r0
 6dc:	0000000c 	andeq	r0, r0, ip
 6e0:	000000cc 	andeq	r0, r0, ip, asr #1
 6e4:	08001aa8 	stmdaeq	r0, {r3, r5, r7, r9, fp, ip}
 6e8:	00000032 	andeq	r0, r0, r2, lsr r0
 6ec:	0000000c 	andeq	r0, r0, ip
 6f0:	000000cc 	andeq	r0, r0, ip, asr #1
 6f4:	08001a70 	stmdaeq	r0, {r4, r5, r6, r9, fp, ip}
 6f8:	00000032 	andeq	r0, r0, r2, lsr r0
 6fc:	0000000c 	andeq	r0, r0, ip
 700:	000000cc 	andeq	r0, r0, ip, asr #1
 704:	08001648 	stmdaeq	r0, {r3, r6, r9, sl, ip}
 708:	0000001a 	andeq	r0, r0, sl, lsl r0
 70c:	0000000c 	andeq	r0, r0, ip
 710:	000000cc 	andeq	r0, r0, ip, asr #1
 714:	08002848 	stmdaeq	r0, {r3, r6, fp, sp}
 718:	000000ca 	andeq	r0, r0, sl, asr #1
 71c:	00000010 	andeq	r0, r0, r0, lsl r0
 720:	000000cc 	andeq	r0, r0, ip, asr #1
 724:	08002aa8 	stmdaeq	r0, {r3, r5, r7, r9, fp, sp}
 728:	00000042 	andeq	r0, r0, r2, asr #32
 72c:	00080e42 	andeq	r0, r8, r2, asr #28
 730:	00000010 	andeq	r0, r0, r0, lsl r0
 734:	000000cc 	andeq	r0, r0, ip, asr #1
 738:	08002a78 	stmdaeq	r0, {r3, r4, r5, r6, r9, fp, sp}
 73c:	00000030 	andeq	r0, r0, r0, lsr r0
 740:	00040e42 	andeq	r0, r4, r2, asr #28
 744:	0000000c 	andeq	r0, r0, ip
 748:	000000e0 	andeq	r0, r0, r0, ror #1
 74c:	0800038c 	stmdaeq	r0, {r2, r3, r7, r8, r9}
 750:	00000008 	andeq	r0, r0, r8
 754:	0000000c 	andeq	r0, r0, ip
 758:	000000e0 	andeq	r0, r0, r0, ror #1
 75c:	08000394 	stmdaeq	r0, {r2, r4, r7, r8, r9}
 760:	00000002 	andeq	r0, r0, r2
 764:	0000000c 	andeq	r0, r0, ip
 768:	000000e0 	andeq	r0, r0, r0, ror #1
 76c:	08000396 	stmdaeq	r0, {r1, r2, r4, r7, r8, r9}
 770:	00000002 	andeq	r0, r0, r2
 774:	0000000c 	andeq	r0, r0, ip
 778:	000000e0 	andeq	r0, r0, r0, ror #1
 77c:	08000398 	stmdaeq	r0, {r3, r4, r7, r8, r9}
 780:	00000002 	andeq	r0, r0, r2
 784:	0000000c 	andeq	r0, r0, ip
 788:	000000e0 	andeq	r0, r0, r0, ror #1
 78c:	0800039a 	stmdaeq	r0, {r1, r3, r4, r7, r8, r9}
 790:	00000002 	andeq	r0, r0, r2
 794:	0000000c 	andeq	r0, r0, ip
 798:	000000e0 	andeq	r0, r0, r0, ror #1
 79c:	0800039c 	stmdaeq	r0, {r2, r3, r4, r7, r8, r9}
 7a0:	00000002 	andeq	r0, r0, r2
 7a4:	0000000c 	andeq	r0, r0, ip
 7a8:	000000e0 	andeq	r0, r0, r0, ror #1
 7ac:	0800039e 	stmdaeq	r0, {r1, r2, r3, r4, r7, r8, r9}
 7b0:	00000002 	andeq	r0, r0, r2
 7b4:	0000000c 	andeq	r0, r0, ip
 7b8:	000000e0 	andeq	r0, r0, r0, ror #1
 7bc:	080003a0 	stmdaeq	r0, {r5, r7, r8, r9}
 7c0:	00000002 	andeq	r0, r0, r2
 7c4:	0000000c 	andeq	r0, r0, ip
 7c8:	000000e0 	andeq	r0, r0, r0, ror #1
 7cc:	080003a2 	stmdaeq	r0, {r1, r5, r7, r8, r9}
 7d0:	00000002 	andeq	r0, r0, r2
 7d4:	0000000c 	andeq	r0, r0, ip
 7d8:	000000e0 	andeq	r0, r0, r0, ror #1
 7dc:	080003a4 	stmdaeq	r0, {r2, r5, r7, r8, r9}
 7e0:	00000002 	andeq	r0, r0, r2
 7e4:	0000000c 	andeq	r0, r0, ip
 7e8:	000000e0 	andeq	r0, r0, r0, ror #1
 7ec:	080003a6 	stmdaeq	r0, {r1, r2, r5, r7, r8, r9}
 7f0:	00000002 	andeq	r0, r0, r2
 7f4:	0000000c 	andeq	r0, r0, ip
 7f8:	000000cc 	andeq	r0, r0, ip, asr #1
 7fc:	08002830 	stmdaeq	r0, {r4, r5, fp, sp}
 800:	00000012 	andeq	r0, r0, r2, lsl r0
 804:	00000010 	andeq	r0, r0, r0, lsl r0
 808:	000000cc 	andeq	r0, r0, ip, asr #1
 80c:	00000000 	andeq	r0, r0, r0
 810:	0000012e 	andeq	r0, r0, lr, lsr #2
 814:	00180e42 	andseq	r0, r8, r2, asr #28
 818:	00000014 	andeq	r0, r0, r4, lsl r0
 81c:	00000144 	andeq	r0, r0, r4, asr #2
 820:	080003cc 	stmdaeq	r0, {r2, r3, r6, r7, r8, r9}
 824:	00000020 	andeq	r0, r0, r0, lsr #32
 828:	847c1341 	ldrbthi	r1, [ip], #-833	; 0xfffffcbf
 82c:	00018e02 	andeq	r8, r1, r2, lsl #28
 830:	0000000c 	andeq	r0, r0, ip
 834:	00000178 	andeq	r0, r0, r8, ror r1
 838:	080003f0 	stmdaeq	r0, {r4, r5, r6, r7, r8, r9}
 83c:	00000002 	andeq	r0, r0, r2
 840:	0000000c 	andeq	r0, r0, ip
 844:	00000144 	andeq	r0, r0, r4, asr #2
 848:	080003f2 	stmdaeq	r0, {r1, r4, r5, r6, r7, r8, r9}
 84c:	00000002 	andeq	r0, r0, r2
 850:	0000000c 	andeq	r0, r0, ip
 854:	00000144 	andeq	r0, r0, r4, asr #2
 858:	080003f4 	stmdaeq	r0, {r2, r4, r5, r6, r7, r8, r9}
 85c:	00000002 	andeq	r0, r0, r2
 860:	0000000c 	andeq	r0, r0, ip
 864:	000001ac 	andeq	r0, r0, ip, lsr #3
 868:	080001f8 	stmdaeq	r0, {r3, r4, r5, r6, r7, r8}
 86c:	00000008 	andeq	r0, r0, r8
 870:	00000018 	andeq	r0, r0, r8, lsl r0
 874:	00000144 	andeq	r0, r0, r4, asr #2
 878:	080003f6 	stmdaeq	r0, {r1, r2, r4, r5, r6, r7, r8, r9}
 87c:	0000002c 	andeq	r0, r0, ip, lsr #32
 880:	847c1341 	ldrbthi	r1, [ip], #-833	; 0xfffffcbf
 884:	86038504 	strhi	r8, [r3], -r4, lsl #10
 888:	00018e02 	andeq	r8, r1, r2, lsl #28
 88c:	00000018 	andeq	r0, r0, r8, lsl r0
 890:	00000144 	andeq	r0, r0, r4, asr #2
 894:	08000422 	stmdaeq	r0, {r1, r5, sl}
 898:	00000022 	andeq	r0, r0, r2, lsr #32
 89c:	847c1341 	ldrbthi	r1, [ip], #-833	; 0xfffffcbf
 8a0:	86038504 	strhi	r8, [r3], -r4, lsl #10
 8a4:	00018e02 	andeq	r8, r1, r2, lsl #28
 8a8:	0000000c 	andeq	r0, r0, ip
 8ac:	00000144 	andeq	r0, r0, r4, asr #2
 8b0:	08000444 	stmdaeq	r0, {r2, r6, sl}
 8b4:	00000012 	andeq	r0, r0, r2, lsl r0
 8b8:	0000000c 	andeq	r0, r0, ip
 8bc:	00000144 	andeq	r0, r0, r4, asr #2
 8c0:	08000456 	stmdaeq	r0, {r1, r2, r4, r6, sl}
 8c4:	00000012 	andeq	r0, r0, r2, lsl r0
 8c8:	00000018 	andeq	r0, r0, r8, lsl r0
 8cc:	00000144 	andeq	r0, r0, r4, asr #2
 8d0:	08000468 	stmdaeq	r0, {r3, r5, r6, sl}
 8d4:	00000052 	andeq	r0, r0, r2, asr r0
 8d8:	847c1341 	ldrbthi	r1, [ip], #-833	; 0xfffffcbf
 8dc:	86038504 	strhi	r8, [r3], -r4, lsl #10
 8e0:	00018e02 	andeq	r8, r1, r2, lsl #28
 8e4:	00000024 	andeq	r0, r0, r4, lsr #32
 8e8:	00000144 	andeq	r0, r0, r4, asr #2
 8ec:	080004bc 	stmdaeq	r0, {r2, r3, r4, r5, r7, sl}
 8f0:	00000068 	andeq	r0, r0, r8, rrx
 8f4:	847a1342 	ldrbthi	r1, [sl], #-834	; 0xfffffcbe
 8f8:	86058506 	strhi	r8, [r5], -r6, lsl #10
 8fc:	88038704 	stmdahi	r3, {r2, r8, r9, sl, pc}
 900:	70018e02 	andvc	r8, r1, r2, lsl #28
 904:	c5c40013 	strbgt	r0, [r4, #19]
 908:	cec8c7c6 	cdpgt	7, 12, cr12, cr8, cr6, {6}
 90c:	0000000c 	andeq	r0, r0, ip
 910:	00000144 	andeq	r0, r0, r4, asr #2
 914:	08000534 	stmdaeq	r0, {r2, r4, r5, r8, sl}
 918:	00000028 	andeq	r0, r0, r8, lsr #32
 91c:	0000000c 	andeq	r0, r0, ip
 920:	00000144 	andeq	r0, r0, r4, asr #2
 924:	0800055c 	stmdaeq	r0, {r2, r3, r4, r6, r8, sl}
 928:	0000000a 	andeq	r0, r0, sl
 92c:	00000018 	andeq	r0, r0, r8, lsl r0
 930:	00000144 	andeq	r0, r0, r4, asr #2
 934:	08000566 	stmdaeq	r0, {r1, r2, r5, r6, r8, sl}
 938:	00000020 	andeq	r0, r0, r0, lsr #32
 93c:	8e7f1341 	cdphi	3, 7, cr1, cr15, cr1, {2}
 940:	70134101 	andsvc	r4, r3, r1, lsl #2
 944:	007f134d 	rsbseq	r1, pc, sp, asr #6
 948:	0000000c 	andeq	r0, r0, ip
 94c:	00000144 	andeq	r0, r0, r4, asr #2
 950:	0800058c 	stmdaeq	r0, {r2, r3, r7, r8, sl}
 954:	0000000a 	andeq	r0, r0, sl
 958:	00000024 	andeq	r0, r0, r4, lsr #32
 95c:	00000144 	andeq	r0, r0, r4, asr #2
 960:	08000598 	stmdaeq	r0, {r3, r4, r7, r8, sl}
 964:	000000b6 	strheq	r0, [r0], -r6
 968:	84721342 	ldrbthi	r1, [r2], #-834	; 0xfffffcbe
 96c:	8609850a 	strhi	r8, [r9], -sl, lsl #10
 970:	88078708 	stmdahi	r7, {r3, r8, r9, sl, pc}
 974:	8a058906 	bhi	162d94 <__Vectors_Size+0x162b9c>
 978:	8e038b04 	vmlahi.f64	d8, d3, d4
 97c:	00000001 	andeq	r0, r0, r1
 980:	00000024 	andeq	r0, r0, r4, lsr #32
 984:	00000144 	andeq	r0, r0, r4, asr #2
 988:	08000654 	stmdaeq	r0, {r2, r4, r6, r9, sl}
 98c:	0000006c 	andeq	r0, r0, ip, rrx
 990:	847a1342 	ldrbthi	r1, [sl], #-834	; 0xfffffcbe
 994:	86058506 	strhi	r8, [r5], -r6, lsl #10
 998:	88038704 	stmdahi	r3, {r2, r8, r9, sl, pc}
 99c:	72018e02 	andvc	r8, r1, #2, 28
 9a0:	c5c40013 	strbgt	r0, [r4, #19]
 9a4:	cec8c7c6 	cdpgt	7, 12, cr12, cr8, cr6, {6}
 9a8:	00000018 	andeq	r0, r0, r8, lsl r0
 9ac:	00000144 	andeq	r0, r0, r4, asr #2
 9b0:	080006d0 	stmdaeq	r0, {r4, r6, r7, r9, sl}
 9b4:	00000044 	andeq	r0, r0, r4, asr #32
 9b8:	847e1341 	ldrbthi	r1, [lr], #-833	; 0xfffffcbf
 9bc:	5f018502 	svcpl	0x00018502
 9c0:	c5c40013 	strbgt	r0, [r4, #19]
 9c4:	00000018 	andeq	r0, r0, r8, lsl r0
 9c8:	00000144 	andeq	r0, r0, r4, asr #2
 9cc:	08000714 	stmdaeq	r0, {r2, r4, r8, r9, sl}
 9d0:	00000018 	andeq	r0, r0, r8, lsl r0
 9d4:	847e1341 	ldrbthi	r1, [lr], #-833	; 0xfffffcbf
 9d8:	49018e02 	stmdbmi	r1, {r1, r9, sl, fp, pc}
 9dc:	cec40013 	mcrgt	0, 6, r0, cr4, cr3, {0}
 9e0:	0000000c 	andeq	r0, r0, ip
 9e4:	00000144 	andeq	r0, r0, r4, asr #2
 9e8:	0800072c 	stmdaeq	r0, {r2, r3, r5, r8, r9, sl}
 9ec:	0000000c 	andeq	r0, r0, ip
 9f0:	00000024 	andeq	r0, r0, r4, lsr #32
 9f4:	00000144 	andeq	r0, r0, r4, asr #2
 9f8:	08000740 	stmdaeq	r0, {r6, r8, r9, sl}
 9fc:	00000056 	andeq	r0, r0, r6, asr r0
 a00:	847c1341 	ldrbthi	r1, [ip], #-833	; 0xfffffcbf
 a04:	86038504 	strhi	r8, [r3], -r4, lsl #10
 a08:	65018702 	strvs	r8, [r1, #-1794]	; 0xfffff8fe
 a0c:	c400130a 	strgt	r1, [r0], #-778	; 0xfffffcf6
 a10:	42c7c6c5 	sbcmi	ip, r7, #206569472	; 0xc500000
 a14:	0000000b 	andeq	r0, r0, fp
 a18:	00000020 	andeq	r0, r0, r0, lsr #32
 a1c:	00000144 	andeq	r0, r0, r4, asr #2
 a20:	08000796 	stmdaeq	r0, {r1, r2, r4, r7, r8, r9, sl}
 a24:	0000001c 	andeq	r0, r0, ip, lsl r0
 a28:	847c1341 	ldrbthi	r1, [ip], #-833	; 0xfffffcbf
 a2c:	86038504 	strhi	r8, [r3], -r4, lsl #10
 a30:	4b018e02 	blmi	64240 <__Vectors_Size+0x64048>
 a34:	c5c40013 	strbgt	r0, [r4, #19]
 a38:	0000cec6 	andeq	ip, r0, r6, asr #29
 a3c:	0000000c 	andeq	r0, r0, ip
 a40:	00000144 	andeq	r0, r0, r4, asr #2
 a44:	080007b2 	stmdaeq	r0, {r1, r4, r5, r7, r8, r9, sl}
 a48:	0000000c 	andeq	r0, r0, ip
 a4c:	0000000c 	andeq	r0, r0, ip
 a50:	00000144 	andeq	r0, r0, r4, asr #2
 a54:	080007be 	stmdaeq	r0, {r1, r2, r3, r4, r5, r7, r8, r9, sl}
 a58:	00000012 	andeq	r0, r0, r2, lsl r0
 a5c:	00000024 	andeq	r0, r0, r4, lsr #32
 a60:	00000144 	andeq	r0, r0, r4, asr #2
 a64:	080007d4 	stmdaeq	r0, {r2, r4, r6, r7, r8, r9, sl}
 a68:	00000184 	andeq	r0, r0, r4, lsl #3
 a6c:	84761342 	ldrbthi	r1, [r6], #-834	; 0xfffffcbe
 a70:	8609850a 	strhi	r8, [r9], -sl, lsl #10
 a74:	88078708 	stmdahi	r7, {r3, r8, r9, sl, pc}
 a78:	8a058906 	bhi	162e98 <__Vectors_Size+0x162ca0>
 a7c:	8e038b04 	vmlahi.f64	d8, d3, d4
 a80:	00000001 	andeq	r0, r0, r1
 a84:	0000000c 	andeq	r0, r0, ip
 a88:	000000e0 	andeq	r0, r0, r0, ror #1
 a8c:	08003cd2 	stmdaeq	r0, {r1, r4, r6, r7, sl, fp, ip, sp}
 a90:	00000004 	andeq	r0, r0, r4
 a94:	0000000c 	andeq	r0, r0, ip
 a98:	000000e0 	andeq	r0, r0, r0, ror #1
 a9c:	08003cd6 	stmdaeq	r0, {r1, r2, r4, r6, r7, sl, fp, ip, sp}
 aa0:	00000004 	andeq	r0, r0, r4
 aa4:	00000018 	andeq	r0, r0, r8, lsl r0
 aa8:	000001ac 	andeq	r0, r0, ip, lsr #3
 aac:	0800095c 	stmdaeq	r0, {r2, r3, r4, r6, r8, fp}
 ab0:	0000008a 	andeq	r0, r0, sl, lsl #1
 ab4:	847d1342 	ldrbthi	r1, [sp], #-834	; 0xfffffcbe
 ab8:	8e028503 	cfsh32hi	mvfx8, mvfx2, #3
 abc:	00000001 	andeq	r0, r0, r1
 ac0:	00000020 	andeq	r0, r0, r0, lsr #32
 ac4:	00000144 	andeq	r0, r0, r4, asr #2
 ac8:	080009e6 	stmdaeq	r0, {r1, r2, r5, r6, r7, r8, fp}
 acc:	000000b2 	strheq	r0, [r0], -r2
 ad0:	84781342 	ldrbthi	r1, [r8], #-834	; 0xfffffcbe
 ad4:	86078508 	strhi	r8, [r7], -r8, lsl #10
 ad8:	88058706 	stmdahi	r5, {r1, r2, r8, r9, sl, pc}
 adc:	8a038904 	bhi	e2ef4 <__Vectors_Size+0xe2cfc>
 ae0:	00018e02 	andeq	r8, r1, r2, lsl #28
 ae4:	0000002c 	andeq	r0, r0, ip, lsr #32
 ae8:	00000144 	andeq	r0, r0, r4, asr #2
 aec:	08000a98 	stmdaeq	r0, {r3, r4, r7, r9, fp}
 af0:	000001b0 			; <UNDEFINED> instruction: 0x000001b0
 af4:	84731342 	ldrbthi	r1, [r3], #-834	; 0xfffffcbe
 af8:	86088509 	strhi	r8, [r8], -r9, lsl #10
 afc:	88068707 	stmdahi	r6, {r0, r1, r2, r8, r9, sl, pc}
 b00:	8a048905 	bhi	122f1c <__Vectors_Size+0x122d24>
 b04:	8e028b03 	vmlahi.f64	d8, d2, d3
 b08:	68134501 	ldmdavs	r3, {r0, r8, sl, lr}
 b0c:	130a4902 	movwne	r4, #43266	; 0xa902
 b10:	000b4277 	andeq	r4, fp, r7, ror r2
 b14:	0000002c 	andeq	r0, r0, ip, lsr #32
 b18:	00000144 	andeq	r0, r0, r4, asr #2
 b1c:	08000c48 	stmdaeq	r0, {r3, r6, sl, fp}
 b20:	0000026c 	andeq	r0, r0, ip, ror #4
 b24:	84771342 	ldrbthi	r1, [r7], #-834	; 0xfffffcbe
 b28:	86088509 	strhi	r8, [r8], -r9, lsl #10
 b2c:	88068707 	stmdahi	r6, {r0, r1, r2, r8, r9, sl, pc}
 b30:	8a048905 	bhi	122f4c <__Vectors_Size+0x122d54>
 b34:	8e028b03 	vmlahi.f64	d8, d2, d3
 b38:	66134601 	ldrvs	r4, [r3], -r1, lsl #12
 b3c:	13012d03 	movwne	r2, #7427	; 0x1d03
 b40:	00000077 	andeq	r0, r0, r7, ror r0
 b44:	0000002c 	andeq	r0, r0, ip, lsr #32
 b48:	00000144 	andeq	r0, r0, r4, asr #2
 b4c:	08000eb4 	stmdaeq	r0, {r2, r4, r5, r7, r9, sl, fp}
 b50:	000002f4 	strdeq	r0, [r0], -r4
 b54:	84771342 	ldrbthi	r1, [r7], #-834	; 0xfffffcbe
 b58:	86088509 	strhi	r8, [r8], -r9, lsl #10
 b5c:	88068707 	stmdahi	r6, {r0, r1, r2, r8, r9, sl, pc}
 b60:	8a048905 	bhi	122f7c <__Vectors_Size+0x122d84>
 b64:	8e028b03 	vmlahi.f64	d8, d2, d3
 b68:	6e134601 	cfmsub32vs	mvax0, mvfx4, mvfx3, mvfx1
 b6c:	0a016403 	beq	59b80 <__Vectors_Size+0x59988>
 b70:	0b437713 	bleq	10de7c4 <__Vectors_Size+0x10de5cc>
 b74:	00000014 	andeq	r0, r0, r4, lsl r0
 b78:	00000144 	andeq	r0, r0, r4, asr #2
 b7c:	080011b0 	stmdaeq	r0, {r4, r5, r7, r8, ip}
 b80:	00000014 	andeq	r0, r0, r4, lsl r0
 b84:	847e1341 	ldrbthi	r1, [lr], #-833	; 0xfffffcbf
 b88:	00018e02 	andeq	r8, r1, r2, lsl #28
 b8c:	0000000c 	andeq	r0, r0, ip
 b90:	00000144 	andeq	r0, r0, r4, asr #2
 b94:	080011c4 	stmdaeq	r0, {r2, r6, r7, r8, ip}
 b98:	00000010 	andeq	r0, r0, r0, lsl r0
 b9c:	0000000c 	andeq	r0, r0, ip
 ba0:	00000144 	andeq	r0, r0, r4, asr #2
 ba4:	080011d4 	stmdaeq	r0, {r2, r4, r6, r7, r8, ip}
 ba8:	00000008 	andeq	r0, r0, r8
 bac:	00000014 	andeq	r0, r0, r4, lsl r0
 bb0:	00000144 	andeq	r0, r0, r4, asr #2
 bb4:	080011dc 	stmdaeq	r0, {r2, r3, r4, r6, r7, r8, ip}
 bb8:	00000014 	andeq	r0, r0, r4, lsl r0
 bbc:	847e1341 	ldrbthi	r1, [lr], #-833	; 0xfffffcbf
 bc0:	00018e02 	andeq	r8, r1, r2, lsl #28
 bc4:	0000000c 	andeq	r0, r0, ip
 bc8:	00000144 	andeq	r0, r0, r4, asr #2
 bcc:	080011f0 	stmdaeq	r0, {r4, r5, r6, r7, r8, ip}
 bd0:	00000010 	andeq	r0, r0, r0, lsl r0
 bd4:	0000000c 	andeq	r0, r0, ip
 bd8:	00000144 	andeq	r0, r0, r4, asr #2
 bdc:	08001200 	stmdaeq	r0, {r9, ip}
 be0:	00000008 	andeq	r0, r0, r8
 be4:	00000028 	andeq	r0, r0, r8, lsr #32
 be8:	00000144 	andeq	r0, r0, r4, asr #2
 bec:	08001208 	stmdaeq	r0, {r3, r9, ip}
 bf0:	00000048 	andeq	r0, r0, r8, asr #32
 bf4:	847a1342 	ldrbthi	r1, [sl], #-834	; 0xfffffcbe
 bf8:	86058506 	strhi	r8, [r5], -r6, lsl #10
 bfc:	88038704 	stmdahi	r3, {r2, r8, r9, sl, pc}
 c00:	5d018e02 	stcpl	14, cr8, [r1, #-8]
 c04:	c400130a 	strgt	r1, [r0], #-778	; 0xfffffcf6
 c08:	c8c7c6c5 	stmiagt	r7, {r0, r2, r6, r7, r9, sl, lr, pc}^
 c0c:	000b42ce 	andeq	r4, fp, lr, asr #5
 c10:	00000018 	andeq	r0, r0, r8, lsl r0
 c14:	000001ac 	andeq	r0, r0, ip, lsr #3
 c18:	08001250 	stmdaeq	r0, {r4, r6, r9, ip}
 c1c:	0000004a 	andeq	r0, r0, sl, asr #32
 c20:	857e1358 	ldrbhi	r1, [lr, #-856]!	; 0xfffffca8
 c24:	48018e02 	stmdami	r1, {r1, r9, sl, fp, pc}
 c28:	cec50013 	mcrgt	0, 6, r0, cr5, cr3, {0}
 c2c:	00000014 	andeq	r0, r0, r4, lsl r0
 c30:	000001ac 	andeq	r0, r0, ip, lsr #3
 c34:	0800129c 	stmdaeq	r0, {r2, r3, r4, r7, r9, ip}
 c38:	00000010 	andeq	r0, r0, r0, lsl r0
 c3c:	847e1342 	ldrbthi	r1, [lr], #-834	; 0xfffffcbe
 c40:	00018e02 	andeq	r8, r1, r2, lsl #28
 c44:	0000000c 	andeq	r0, r0, ip
 c48:	000001ac 	andeq	r0, r0, ip, lsr #3
 c4c:	080012ac 	stmdaeq	r0, {r2, r3, r5, r7, r9, ip}
 c50:	00000008 	andeq	r0, r0, r8
 c54:	0000001c 	andeq	r0, r0, ip, lsl r0
 c58:	00000144 	andeq	r0, r0, r4, asr #2
 c5c:	080012b4 	stmdaeq	r0, {r2, r4, r5, r7, r9, ip}
 c60:	00000070 	andeq	r0, r0, r0, ror r0
 c64:	847a1342 	ldrbthi	r1, [sl], #-834	; 0xfffffcbe
 c68:	86058506 	strhi	r8, [r5], -r6, lsl #10
 c6c:	88038704 	stmdahi	r3, {r2, r8, r9, sl, pc}
 c70:	00018e02 	andeq	r8, r1, r2, lsl #28
 c74:	00000028 	andeq	r0, r0, r8, lsr #32
 c78:	00000144 	andeq	r0, r0, r4, asr #2
 c7c:	08001334 	stmdaeq	r0, {r2, r4, r5, r8, r9, ip}
 c80:	000000e0 	andeq	r0, r0, r0, ror #1
 c84:	84781342 	ldrbthi	r1, [r8], #-834	; 0xfffffcbe
 c88:	86078508 	strhi	r8, [r7], -r8, lsl #10
 c8c:	88058706 	stmdahi	r5, {r1, r2, r8, r9, sl, pc}
 c90:	8a038904 	bhi	e30a8 <__Vectors_Size+0xe2eb0>
 c94:	43018e02 	movwmi	r8, #7682	; 0x1e02
 c98:	69026e13 	stmdbvs	r2, {r0, r1, r4, r9, sl, fp, sp, lr}
 c9c:	00007813 	andeq	r7, r0, r3, lsl r8
 ca0:	0000000c 	andeq	r0, r0, ip
 ca4:	000001ac 	andeq	r0, r0, ip, lsr #3
 ca8:	0800348e 	stmdaeq	r0, {r1, r2, r3, r7, sl, ip, sp}
 cac:	0000003e 	andeq	r0, r0, lr, lsr r0
 cb0:	0000000c 	andeq	r0, r0, ip
 cb4:	000001ac 	andeq	r0, r0, ip, lsr #3
 cb8:	08003512 	stmdaeq	r0, {r1, r4, r8, sl, ip, sp}
 cbc:	00000060 	andeq	r0, r0, r0, rrx
 cc0:	0000000c 	andeq	r0, r0, ip
 cc4:	000001ac 	andeq	r0, r0, ip, lsr #3
 cc8:	080034cc 	stmdaeq	r0, {r2, r3, r6, r7, sl, ip, sp}
 ccc:	00000046 	andeq	r0, r0, r6, asr #32
 cd0:	00000028 	andeq	r0, r0, r8, lsr #32
 cd4:	000001ac 	andeq	r0, r0, ip, lsr #3
 cd8:	080039b2 	stmdaeq	r0, {r1, r4, r5, r7, r8, fp, ip, sp}
 cdc:	0000002a 	andeq	r0, r0, sl, lsr #32
 ce0:	877c1344 	ldrbhi	r1, [ip, -r4, asr #6]!
 ce4:	8b038a04 	blhi	e34fc <__Vectors_Size+0xe3304>
 ce8:	42018e02 	andmi	r8, r1, #2, 28
 cec:	07847913 	usada8eq	r4, r3, r9, r7
 cf0:	05860685 	streq	r0, [r6, #1669]	; 0x685
 cf4:	c47d1360 	ldrbtgt	r1, [sp], #-864	; 0xfffffca0
 cf8:	00c7c6c5 	sbceq	ip, r7, r5, asr #13
 cfc:	00000028 	andeq	r0, r0, r8, lsr #32
 d00:	000001ac 	andeq	r0, r0, ip, lsr #3
 d04:	08003988 	stmdaeq	r0, {r3, r7, r8, fp, ip, sp}
 d08:	0000002a 	andeq	r0, r0, sl, lsr #32
 d0c:	877c1344 	ldrbhi	r1, [ip, -r4, asr #6]!
 d10:	8b038a04 	blhi	e3528 <__Vectors_Size+0xe3330>
 d14:	42018e02 	andmi	r8, r1, #2, 28
 d18:	07847913 	usada8eq	r4, r3, r9, r7
 d1c:	05860685 	streq	r0, [r6, #1669]	; 0x685
 d20:	c47d1360 	ldrbtgt	r1, [sp], #-864	; 0xfffffca0
 d24:	00c7c6c5 	sbceq	ip, r7, r5, asr #13
 d28:	00000020 	andeq	r0, r0, r0, lsr #32
 d2c:	000001ac 	andeq	r0, r0, ip, lsr #3
 d30:	080038ac 	stmdaeq	r0, {r2, r3, r5, r7, fp, ip, sp}
 d34:	000000dc 	ldrdeq	r0, [r0], -ip
 d38:	847c1350 	ldrbthi	r1, [ip], #-848	; 0xfffffcb0
 d3c:	42018e02 	andmi	r8, r1, #2, 28
 d40:	13627a13 	cmnne	r2, #77824	; 0x13000
 d44:	0013447e 	andseq	r4, r3, lr, ror r4
 d48:	0000cec4 	andeq	ip, r0, r4, asr #29
 d4c:	00000018 	andeq	r0, r0, r8, lsl r0
 d50:	000001ac 	andeq	r0, r0, ip, lsr #3
 d54:	080039dc 	stmdaeq	r0, {r2, r3, r4, r6, r7, r8, fp, ip, sp}
 d58:	00000244 	andeq	r0, r0, r4, asr #4
 d5c:	887c1370 	ldmdahi	ip!, {r4, r5, r6, r8, r9, ip}^
 d60:	8e028b03 	vmlahi.f64	d8, d2, d3
 d64:	00000001 	andeq	r0, r0, r1
 d68:	00000030 	andeq	r0, r0, r0, lsr r0
 d6c:	000001ac 	andeq	r0, r0, ip, lsr #3
 d70:	08003574 	stmdaeq	r0, {r2, r4, r5, r6, r8, sl, ip, sp}
 d74:	000002b8 			; <UNDEFINED> instruction: 0x000002b8
 d78:	877c1360 	ldrbhi	r1, [ip, -r0, ror #6]!
 d7c:	8b038804 	blhi	e2d94 <__Vectors_Size+0xe2b9c>
 d80:	42018e02 	andmi	r8, r1, #2, 28
 d84:	76037a13 			; <UNDEFINED> instruction: 0x76037a13
 d88:	13460a02 	movtne	r0, #27138	; 0x6a02
 d8c:	44c8c77e 	strbmi	ip, [r8], #1918	; 0x77e
 d90:	7e13440b 	cfmulsvc	mvf4, mvf3, mvf11
 d94:	1344c8c7 	movtne	ip, #18631	; 0x48c7
 d98:	00cecb00 	sbceq	ip, lr, r0, lsl #22
 d9c:	00000014 	andeq	r0, r0, r4, lsl r0
 da0:	000001ac 	andeq	r0, r0, ip, lsr #3
 da4:	08003c60 	stmdaeq	r0, {r5, r6, sl, fp, ip, sp}
 da8:	0000002c 	andeq	r0, r0, ip, lsr #32
 dac:	847e1342 	ldrbthi	r1, [lr], #-834	; 0xfffffcbe
 db0:	00018e02 	andeq	r8, r1, r2, lsl #28
 db4:	00000018 	andeq	r0, r0, r8, lsl r0
 db8:	00000144 	andeq	r0, r0, r4, asr #2
 dbc:	08001418 	stmdaeq	r0, {r3, r4, sl, ip}
 dc0:	00000012 	andeq	r0, r0, r2, lsl r0
 dc4:	847e1341 	ldrbthi	r1, [lr], #-833	; 0xfffffcbf
 dc8:	46018e02 	strmi	r8, [r1], -r2, lsl #28
 dcc:	cec40013 	mcrgt	0, 6, r0, cr4, cr3, {0}
 dd0:	00000014 	andeq	r0, r0, r4, lsl r0
 dd4:	000001e0 	andeq	r0, r0, r0, ror #3
 dd8:	08003c20 	stmdaeq	r0, {r5, sl, fp, ip, sp}
 ddc:	00000030 	andeq	r0, r0, r0, lsr r0
 de0:	567e1341 	ldrbtpl	r1, [lr], -r1, asr #6
 de4:	00000013 	andeq	r0, r0, r3, lsl r0
 de8:	0000000c 	andeq	r0, r0, ip
 dec:	000001ac 	andeq	r0, r0, ip, lsr #3
 df0:	0800142c 	stmdaeq	r0, {r2, r3, r5, sl, ip}
 df4:	00000008 	andeq	r0, r0, r8
 df8:	00000014 	andeq	r0, r0, r4, lsl r0
 dfc:	000001ac 	andeq	r0, r0, ip, lsr #3
 e00:	08003c8c 	stmdaeq	r0, {r2, r3, r7, sl, fp, ip, sp}
 e04:	0000002c 	andeq	r0, r0, ip, lsr #32
 e08:	847e1342 	ldrbthi	r1, [lr], #-834	; 0xfffffcbe
 e0c:	00018e02 	andeq	r8, r1, r2, lsl #28
 e10:	00000020 	andeq	r0, r0, r0, lsr #32
 e14:	000001ac 	andeq	r0, r0, ip, lsr #3
 e18:	08001438 	stmdaeq	r0, {r3, r4, r5, sl, ip}
 e1c:	0000007c 	andeq	r0, r0, ip, ror r0
 e20:	847e1342 	ldrbthi	r1, [lr], #-834	; 0xfffffcbe
 e24:	02018502 	andeq	r8, r1, #8388608	; 0x800000
 e28:	c4001350 	strgt	r1, [r0], #-848	; 0xfffffcb0
 e2c:	021366c5 	andseq	r6, r3, #206569472	; 0xc500000
 e30:	0000c5c4 	andeq	ip, r0, r4, asr #11
 e34:	0000000c 	andeq	r0, r0, ip
 e38:	000000e0 	andeq	r0, r0, r0, ror #1
 e3c:	08003cb8 	stmdaeq	r0, {r3, r4, r5, r7, sl, fp, ip, sp}
 e40:	0000001a 	andeq	r0, r0, sl, lsl r0
 e44:	0000000c 	andeq	r0, r0, ip
 e48:	00000144 	andeq	r0, r0, r4, asr #2
 e4c:	080014b4 	stmdaeq	r0, {r2, r4, r5, r7, sl, ip}
 e50:	00000008 	andeq	r0, r0, r8
 e54:	0000000c 	andeq	r0, r0, ip
 e58:	000001ac 	andeq	r0, r0, ip, lsr #3
 e5c:	080014c0 	stmdaeq	r0, {r6, r7, sl, ip}
 e60:	00000002 	andeq	r0, r0, r2
 e64:	0000000c 	andeq	r0, r0, ip
 e68:	00000144 	andeq	r0, r0, r4, asr #2
 e6c:	08003c50 	stmdaeq	r0, {r4, r6, sl, fp, ip, sp}
 e70:	0000000e 	andeq	r0, r0, lr

Disassembly of section .debug_info:

00000000 <.debug_info>:
TIM_WaitMicros():
D:\#Documents\UVISION\SMART_WAKE_UP/tim.c:4
       0:	0000060e 	andeq	r0, r0, lr, lsl #12
       4:	00000004 	andeq	r0, r0, r4
       8:	01040000 	mrseq	r0, (UNDEF: 4)
       c:	00000000 	andeq	r0, r0, r0
D:\#Documents\UVISION\SMART_WAKE_UP/tim.c:5
      10:	0044000c 	subeq	r0, r4, ip
      14:	00000000 	andeq	r0, r0, r0
      18:	00700000 	rsbseq	r0, r0, r0
	...
D:\#Documents\UVISION\SMART_WAKE_UP/tim.c:6
      24:	94020000 	strls	r0, [r2], #-0
D:\#Documents\UVISION\SMART_WAKE_UP/tim.c:8
      28:	37000000 	strcc	r0, [r0, -r0]
      2c:	02000000 	andeq	r0, r0, #0
      30:	0003057c 	andeq	r0, r3, ip, ror r5
      34:	03000000 	movweq	r0, #0
D:\#Documents\UVISION\SMART_WAKE_UP/tim.c:52
      38:	00000042 	andeq	r0, r0, r2, asr #32
      3c:	000000b1 	strheq	r0, [r0], -r1
D:\#Documents\UVISION\SMART_WAKE_UP/tim.c:8
      40:	a4044001 	strge	r4, [r4], #-1
      44:	07000000 	streq	r0, [r0, -r0]
      48:	00ba0204 	adcseq	r0, sl, r4, lsl #4
      4c:	005a0000 	subseq	r0, sl, r0
      50:	7d020000 	stcvc	0, cr0, [r2, #-0]
      54:	00000305 	andeq	r0, r0, r5, lsl #6
D:\#Documents\UVISION\SMART_WAKE_UP/tim.c:58
      58:	66050000 	strvs	r0, [r5], -r0
      5c:	06000000 	streq	r0, [r0], -r0
D:\#Documents\UVISION\SMART_WAKE_UP/tim.c:9
      60:	0000007d 	andeq	r0, r0, sp, ror r0
D:\#Documents\UVISION\SMART_WAKE_UP/tim.c:10
      64:	6b070010 	blvs	1c00ac <__Vectors_Size+0x1bfeb4>
GPIO_AnalogRead():
D:\#Documents\UVISION\SMART_WAKE_UP/gpio.c:61
      68:	03000000 	movweq	r0, #0
      6c:	00000076 	andeq	r0, r0, r6, ror r0
      70:	000000d6 	ldrdeq	r0, [r0], -r6
D:\#Documents\UVISION\SMART_WAKE_UP/gpio.c:63
      74:	c8043e01 	stmdagt	r4, {r0, r9, sl, fp, ip, sp}
      78:	08000000 	stmdaeq	r0, {}	; <UNPREDICTABLE>
URM37_Init():
D:\#Documents\UVISION\SMART_WAKE_UP/urm37.c:125
      7c:	00de0801 	sbcseq	r0, lr, r1, lsl #16
D:\#Documents\UVISION\SMART_WAKE_UP/urm37.c:126
      80:	07080000 	streq	r0, [r8, -r0]
      84:	0000f202 	andeq	pc, r0, r2, lsl #4
      88:	00009500 	andeq	r9, r0, r0, lsl #10
      8c:	057e0200 	ldrbeq	r0, [lr, #-512]!	; 0xfffffe00
      90:	00000003 	andeq	r0, r0, r3
      94:	00660500 	rsbeq	r0, r6, r0, lsl #10
      98:	7d060000 	stcvc	0, cr0, [r6, #-0]
D:\#Documents\UVISION\SMART_WAKE_UP/urm37.c:128
      9c:	08000000 	stmdaeq	r0, {}	; <UNPREDICTABLE>
D:\#Documents\UVISION\SMART_WAKE_UP/urm37.c:129
      a0:	00a60900 	adceq	r0, r6, r0, lsl #18
      a4:	b20a0000 	andlt	r0, sl, #0
      a8:	59000000 	stmdbpl	r0, {}	; <UNPREDICTABLE>
      ac:	03000002 	movweq	r0, #2
      b0:	ac0b0201 	sfmge	f0, 4, [fp], {1}
      b4:	01cc0302 	biceq	r0, ip, r2, lsl #6
      b8:	0001000c 	andeq	r0, r1, ip
URM37_GetTemperature():
      bc:	00036900 	andeq	r6, r3, r0, lsl #18
SystemCoreClockUpdate():
D:\#Documents\UVISION\SMART_WAKE_UP/RTE/Device/STM32F767ZITx/system_stm32f7xx.c:231
      c0:	01ce0300 	biceq	r0, lr, r0, lsl #6
D:\#Documents\UVISION\SMART_WAKE_UP/RTE/Device/STM32F767ZITx/system_stm32f7xx.c:449
      c4:	01060c00 	tsteq	r6, r0, lsl #24
      c8:	036e0000 	cmneq	lr, #0
D:\#Documents\UVISION\SMART_WAKE_UP/RTE/Device/STM32F767ZITx/system_stm32f7xx.c:234
      cc:	cf030000 	svcgt	0x00030000
      d0:	0b0c0401 	bleq	3010dc <__Vectors_Size+0x300ee4>
      d4:	6e000001 	cdpvs	0, 0, cr0, cr0, cr1, {0}
D:\#Documents\UVISION\SMART_WAKE_UP/RTE/Device/STM32F767ZITx/system_stm32f7xx.c:235
      d8:	03000003 	movweq	r0, #3
      dc:	0c0801d0 	stfeqs	f0, [r8], {208}	; 0xd0
      e0:	00000110 	andeq	r0, r0, r0, lsl r1
      e4:	0000036e 	andeq	r0, r0, lr, ror #6
      e8:	0c01d103 	stfeqd	f5, [r1], {3}
D:\#Documents\UVISION\SMART_WAKE_UP/RTE/Device/STM32F767ZITx/system_stm32f7xx.c:238
      ec:	0001160c 	andeq	r1, r1, ip, lsl #12
      f0:	00036e00 	andeq	r6, r3, r0, lsl #28
      f4:	01d20300 	bicseq	r0, r2, r0, lsl #6
      f8:	011a0c10 	tsteq	sl, r0, lsl ip
      fc:	036e0000 	cmneq	lr, #0
D:\#Documents\UVISION\SMART_WAKE_UP/RTE/Device/STM32F767ZITx/system_stm32f7xx.c:456
     100:	d3030000 	movwle	r0, #12288	; 0x3000
D:\#Documents\UVISION\SMART_WAKE_UP/RTE/Device/STM32F767ZITx/system_stm32f7xx.c:457
     104:	1e0c1401 	cdpne	4, 0, cr1, cr12, cr1, {0}
D:\#Documents\UVISION\SMART_WAKE_UP/RTE/Device/STM32F767ZITx/system_stm32f7xx.c:243
     108:	73000001 	movwvc	r0, #1
     10c:	03000003 	movweq	r0, #3
     110:	0c1801d4 	ldfeqs	f0, [r8], {212}	; 0xd4
     114:	00000123 	andeq	r0, r0, r3, lsr #2
     118:	0000036e 	andeq	r0, r0, lr, ror #6
D:\#Documents\UVISION\SMART_WAKE_UP/RTE/Device/STM32F767ZITx/system_stm32f7xx.c:245
     11c:	2401d503 	strcs	sp, [r1], #-1283	; 0xfffffafd
     120:	0001290c 	andeq	r2, r1, ip, lsl #18
     124:	00036e00 	andeq	r6, r3, r0, lsl #28
     128:	01d60300 	bicseq	r0, r6, r0, lsl #6
D:\#Documents\UVISION\SMART_WAKE_UP/RTE/Device/STM32F767ZITx/system_stm32f7xx.c:246
     12c:	012e0c28 			; <UNDEFINED> instruction: 0x012e0c28
SH1106_DrawCircle():
D:\#Documents\UVISION\SMART_WAKE_UP/sh1106.c:461
     130:	036e0000 	cmneq	lr, #0
     134:	d7030000 	strle	r0, [r3, -r0]
     138:	330c2c01 	movwcc	r2, #52225	; 0xcc01
     13c:	6e000001 	cdpvs	0, 0, cr0, cr0, cr1, {0}
     140:	03000003 	movweq	r0, #3
     144:	0c3001d8 	ldfeqs	f0, [r0], #-864	; 0xfffffca0
     148:	00000138 	andeq	r0, r0, r8, lsr r1
     14c:	0000036e 	andeq	r0, r0, lr, ror #6
D:\#Documents\UVISION\SMART_WAKE_UP/sh1106.c:462
     150:	3401d903 	strcc	sp, [r1], #-2307	; 0xfffff6fd
     154:	00013e0c 	andeq	r3, r1, ip, lsl #28
     158:	00036e00 	andeq	r6, r3, r0, lsl #28
     15c:	01da0300 	bicseq	r0, sl, r0, lsl #6
     160:	01430c38 	cmpeq	r3, r8, lsr ip
     164:	036e0000 	cmneq	lr, #0
     168:	db030000 	blle	c0170 <__Vectors_Size+0xbff78>
     16c:	480c3c01 	stmdami	ip, {r0, sl, fp, ip, sp}
     170:	84000001 	strhi	r0, [r0], #-1
     174:	03000003 	movweq	r0, #3
D:\#Documents\UVISION\SMART_WAKE_UP/sh1106.c:464
     178:	0c4001dc 	stfeqe	f0, [r0], {220}	; 0xdc
     17c:	0000014f 	andeq	r0, r0, pc, asr #2
     180:	00000369 	andeq	r0, r0, r9, ror #6
     184:	4801dd03 	stmdami	r1, {r0, r1, r8, sl, fp, ip, lr, pc}
     188:	0001560c 	andeq	r5, r1, ip, lsl #12
     18c:	00036900 	andeq	r6, r3, r0, lsl #18
     190:	01de0300 	bicseq	r0, lr, r0, lsl #6
     194:	015d0c4c 	cmpeq	sp, ip, asr #24
     198:	03900000 	orrseq	r0, r0, #0
     19c:	df030000 	svcle	0x00030000
D:\#Documents\UVISION\SMART_WAKE_UP/sh1106.c:465
     1a0:	640c5001 	strvs	r5, [ip], #-1
SH1106_DrawFilledCircle():
D:\#Documents\UVISION\SMART_WAKE_UP/sh1106.c:465
     1a4:	9c000001 	stcls	0, cr0, [r0], {1}
     1a8:	03000003 	movweq	r0, #3
     1ac:	0c6001e0 	stfeqe	f0, [r0], #-896	; 0xfffffc80
     1b0:	0000016c 	andeq	r0, r0, ip, ror #2
     1b4:	000003a8 	andeq	r0, r0, r8, lsr #7
     1b8:	7401e103 	strvc	lr, [r1], #-259	; 0xfffffefd
     1bc:	0001760c 	andeq	r7, r1, ip, lsl #12
     1c0:	00036900 	andeq	r6, r3, r0, lsl #18
     1c4:	01e20300 	mvneq	r0, r0, lsl #6
D:\#Documents\UVISION\SMART_WAKE_UP/sh1106.c:449
     1c8:	017c0c78 	cmneq	ip, r8, ror ip
D:\#Documents\UVISION\SMART_WAKE_UP/sh1106.c:467
     1cc:	03690000 	cmneq	r9, #0
     1d0:	e3030000 	movw	r0, #12288	; 0x3000
     1d4:	800c7c01 	andhi	r7, ip, r1, lsl #24
     1d8:	69000001 	stmdbvs	r0, {r0}
     1dc:	03000003 	movweq	r0, #3
     1e0:	0c8001e4 	stfeqs	f0, [r0], {228}	; 0xe4
     1e4:	00000187 	andeq	r0, r0, r7, lsl #3
     1e8:	0000036e 	andeq	r0, r0, lr, ror #6
     1ec:	8401e503 	strhi	lr, [r1], #-1283	; 0xfffffafd
     1f0:	00018e0c 	andeq	r8, r1, ip, lsl #28
     1f4:	00036e00 	andeq	r6, r3, r0, lsl #28
     1f8:	01e60300 	mvneq	r0, r0, lsl #6
     1fc:	01940c88 	orrseq	r0, r4, r8, lsl #25
     200:	03b40000 			; <UNDEFINED> instruction: 0x03b40000
     204:	e7030000 	str	r0, [r3, -r0]
     208:	9e0d8c01 	cdpls	12, 0, cr8, cr13, cr1, {0}
     20c:	6e000001 	cdpvs	0, 0, cr0, cr0, cr1, {0}
     210:	03000003 	movweq	r0, #3
     214:	020001e8 	andeq	r0, r0, #232, 2	; 0x3a
     218:	0001a30d 	andeq	sl, r1, sp, lsl #6
     21c:	0003c000 	andeq	ip, r3, r0
     220:	01e90300 	mvneq	r0, r0, lsl #6
     224:	ad0d0204 	sfmge	f0, 4, [sp, #-16]
     228:	69000001 	stmdbvs	r0, {r0}
     22c:	03000003 	movweq	r0, #3
     230:	024001ea 	subeq	r0, r0, #-2147483590	; 0x8000003a
     234:	0001b30d 	andeq	fp, r1, sp, lsl #6
     238:	00036900 	andeq	r6, r3, r0, lsl #18
     23c:	01eb0300 	mvneq	r0, r0, lsl #6
     240:	b90d0244 	stmdblt	sp, {r2, r6, r9}
     244:	69000001 	stmdbvs	r0, {r0}
     248:	03000003 	movweq	r0, #3
     24c:	024801ec 	subeq	r0, r8, #236, 2	; 0x3b
     250:	0001bf0d 	andeq	fp, r1, sp, lsl #30
     254:	0003a800 	andeq	sl, r3, r0, lsl #16
     258:	01ed0300 	mvneq	r0, r0, lsl #6
     25c:	c90d024c 	stmdbgt	sp, {r2, r3, r6, r9}
     260:	6e000001 	cdpvs	0, 0, cr0, cr0, cr1, {0}
     264:	03000003 	movweq	r0, #3
     268:	025001ee 	subseq	r0, r0, #-2147483589	; 0x8000003b
     26c:	0001d10d 	andeq	sp, r1, sp, lsl #2
     270:	0003a800 	andeq	sl, r3, r0, lsl #16
     274:	01ef0300 	mvneq	r0, r0, lsl #6
     278:	db0d0254 	blle	340bd0 <__Vectors_Size+0x3409d8>
     27c:	6e000001 	cdpvs	0, 0, cr0, cr0, cr1, {0}
     280:	03000003 	movweq	r0, #3
     284:	025801f0 	subseq	r0, r8, #240, 2	; 0x3c
     288:	0001e30d 	andeq	lr, r1, sp, lsl #6
     28c:	00036e00 	andeq	r6, r3, r0, lsl #28
     290:	01f10300 	mvnseq	r0, r0, lsl #6
     294:	eb0d025c 	bl	340c0c <__Vectors_Size+0x340a14>
     298:	6e000001 	cdpvs	0, 0, cr0, cr0, cr1, {0}
     29c:	03000003 	movweq	r0, #3
     2a0:	026001f2 	rsbeq	r0, r0, #-2147483588	; 0x8000003c
     2a4:	0001f10d 	andeq	pc, r1, sp, lsl #2
     2a8:	00036e00 	andeq	r6, r3, r0, lsl #28
     2ac:	01f30300 	mvnseq	r0, r0, lsl #6
     2b0:	f90d0264 			; <UNDEFINED> instruction: 0xf90d0264
     2b4:	6e000001 	cdpvs	0, 0, cr0, cr0, cr1, {0}
     2b8:	03000003 	movweq	r0, #3
     2bc:	026801f4 	rsbeq	r0, r8, #244, 2	; 0x3d
     2c0:	0002010d 	andeq	r0, r2, sp, lsl #2
     2c4:	00036e00 	andeq	r6, r3, r0, lsl #28
     2c8:	01f50300 	mvnseq	r0, r0, lsl #6
     2cc:	070d026c 	streq	r0, [sp, -ip, ror #4]
     2d0:	6e000002 	cdpvs	0, 0, cr0, cr0, cr2, {0}
     2d4:	03000003 	movweq	r0, #3
     2d8:	027001f6 	rsbseq	r0, r0, #-2147483587	; 0x8000003d
     2dc:	0002100d 	andeq	r1, r2, sp
     2e0:	00036e00 	andeq	r6, r3, r0, lsl #28
     2e4:	01f70300 	mvnseq	r0, r0, lsl #6
     2e8:	170d0274 	smlsdxne	sp, r4, r2, r0
     2ec:	6e000002 	cdpvs	0, 0, cr0, cr0, cr2, {0}
     2f0:	03000003 	movweq	r0, #3
     2f4:	027801f8 	rsbseq	r0, r8, #248, 2	; 0x3e
     2f8:	00021e0d 	andeq	r1, r2, sp, lsl #28
     2fc:	0003cc00 	andeq	ip, r3, r0, lsl #24
     300:	01f90300 	mvnseq	r0, r0, lsl #6
     304:	280d027c 	stmdacs	sp, {r2, r3, r4, r5, r6, r9}
     308:	6e000002 	cdpvs	0, 0, cr0, cr0, cr2, {0}
     30c:	03000003 	movweq	r0, #3
     310:	029001fa 	addseq	r0, r0, #-2147483586	; 0x8000003e
     314:	00022f0d 	andeq	r2, r2, sp, lsl #30
     318:	00036e00 	andeq	r6, r3, r0, lsl #28
     31c:	01fb0300 	mvnseq	r0, r0, lsl #6
     320:	360d0294 			; <UNDEFINED> instruction: 0x360d0294
     324:	6e000002 	cdpvs	0, 0, cr0, cr0, cr2, {0}
     328:	03000003 	movweq	r0, #3
     32c:	029801fc 	addseq	r0, r8, #252, 2	; 0x3f
     330:	00023d0d 	andeq	r3, r2, sp, lsl #26
     334:	00036e00 	andeq	r6, r3, r0, lsl #28
     338:	01fd0300 	mvnseq	r0, r0, lsl #6
     33c:	420d029c 	andmi	r0, sp, #156, 4	; 0xc0000009
     340:	6e000002 	cdpvs	0, 0, cr0, cr0, cr2, {0}
     344:	03000003 	movweq	r0, #3
     348:	02a001fe 	adceq	r0, r0, #-2147483585	; 0x8000003f
     34c:	0002490d 	andeq	r4, r2, sp, lsl #18
     350:	0003a800 	andeq	sl, r3, r0, lsl #16
     354:	01ff0300 	mvnseq	r0, r0, lsl #6
     358:	530d02a4 	movwpl	r0, #53924	; 0xd2a4
     35c:	6e000002 	cdpvs	0, 0, cr0, cr0, cr2, {0}
     360:	03000003 	movweq	r0, #3
     364:	02a80200 	adceq	r0, r8, #0, 4
     368:	036e0700 	cmneq	lr, #0, 14
     36c:	370e0000 	strcc	r0, [lr, -r0]
     370:	05000000 	streq	r0, [r0, #-0]
     374:	0000037f 	andeq	r0, r0, pc, ror r3
     378:	00007d06 	andeq	r7, r0, r6, lsl #26
     37c:	0e000c00 	cdpeq	12, 0, cr0, cr0, cr0, {0}
     380:	0000006b 	andeq	r0, r0, fp, rrx
     384:	00036905 	andeq	r6, r3, r5, lsl #18
     388:	007d0600 	rsbseq	r0, sp, r0, lsl #12
     38c:	00020000 	andeq	r0, r2, r0
     390:	00036905 	andeq	r6, r3, r5, lsl #18
     394:	007d0600 	rsbseq	r0, sp, r0, lsl #12
     398:	00040000 	andeq	r0, r4, r0
     39c:	00036905 	andeq	r6, r3, r5, lsl #18
     3a0:	007d0600 	rsbseq	r0, sp, r0, lsl #12
     3a4:	00050000 	andeq	r0, r5, r0
     3a8:	00003705 	andeq	r3, r0, r5, lsl #14
     3ac:	007d0600 	rsbseq	r0, sp, r0, lsl #12
     3b0:	00010000 	andeq	r0, r1, r0
     3b4:	00003705 	andeq	r3, r0, r5, lsl #14
     3b8:	007d0600 	rsbseq	r0, sp, r0, lsl #12
     3bc:	005d0000 	subseq	r0, sp, r0
     3c0:	00003705 	andeq	r3, r0, r5, lsl #14
     3c4:	007d0600 	rsbseq	r0, sp, r0, lsl #12
     3c8:	000f0000 	andeq	r0, pc, r0
     3cc:	00003705 	andeq	r3, r0, r5, lsl #14
     3d0:	007d0600 	rsbseq	r0, sp, r0, lsl #12
     3d4:	00050000 	andeq	r0, r5, r0
     3d8:	0003dd09 	andeq	sp, r3, r9, lsl #26
     3dc:	03e90a00 	mvneq	r0, #0, 20
     3e0:	03480000 	movteq	r0, #32768	; 0x8000
     3e4:	11040000 	mrsne	r0, (UNDEF: 4)
     3e8:	04940f03 	ldreq	r0, [r4], #3843	; 0xf03
     3ec:	620c02ed 	andvs	r0, ip, #-805306354	; 0xd000000e
     3f0:	6e000002 	cdpvs	0, 0, cr0, cr0, cr2, {0}
     3f4:	04000003 	streq	r0, [r0], #-3
     3f8:	0c0002ef 	sfmeq	f0, 4, [r0], {239}	; 0xef
     3fc:	00000265 	andeq	r0, r0, r5, ror #4
     400:	0000036e 	andeq	r0, r0, lr, ror #6
     404:	0402f004 	streq	pc, [r2], #-4
     408:	00026d0c 	andeq	r6, r2, ip, lsl #26
     40c:	00036e00 	andeq	r6, r3, r0, lsl #28
     410:	02f10400 	rscseq	r0, r1, #0, 8
     414:	02720c08 	rsbseq	r0, r2, #8, 24	; 0x800
     418:	036e0000 	cmneq	lr, #0
     41c:	f2040000 	vhadd.s8	d0, d4, d0
     420:	760c0c02 	strvc	r0, [ip], -r2, lsl #24
     424:	6e000002 	cdpvs	0, 0, cr0, cr0, cr2, {0}
     428:	04000003 	streq	r0, [r0], #-3
     42c:	0c1002f3 	lfmeq	f0, 4, [r0], {243}	; 0xf3
     430:	0000027f 	andeq	r0, r0, pc, ror r2
     434:	0000036e 	andeq	r0, r0, lr, ror #6
     438:	1402f404 	strne	pc, [r2], #-1028	; 0xfffffbfc
     43c:	0002880c 	andeq	r8, r2, ip, lsl #16
     440:	00036e00 	andeq	r6, r3, r0, lsl #28
     444:	02f50400 	rscseq	r0, r5, #0, 8
     448:	016c0c18 	cmneq	ip, r8, lsl ip
     44c:	00370000 	eorseq	r0, r7, r0
     450:	f6040000 			; <UNDEFINED> instruction: 0xf6040000
     454:	910c1c02 	tstls	ip, r2, lsl #24
     458:	6e000002 	cdpvs	0, 0, cr0, cr0, cr2, {0}
     45c:	04000003 	streq	r0, [r0], #-3
     460:	0c2002f7 	sfmeq	f0, 4, [r0], #-988	; 0xfffffc24
     464:	0000029a 	muleq	r0, sl, r2
     468:	0000036e 	andeq	r0, r0, lr, ror #6
     46c:	2402f804 	strcs	pc, [r2], #-2052	; 0xfffff7fc
     470:	0002a30c 	andeq	sl, r2, ip, lsl #6
     474:	00059c00 	andeq	r9, r5, r0, lsl #24
     478:	02f90400 	rscseq	r0, r9, #0, 8
     47c:	02ad0c28 	adceq	r0, sp, #40, 24	; 0x2800
     480:	036e0000 	cmneq	lr, #0
     484:	fa040000 	blx	10048c <__Vectors_Size+0x100294>
     488:	b50c3002 	strlt	r3, [ip, #-2]
     48c:	6e000002 	cdpvs	0, 0, cr0, cr0, cr2, {0}
     490:	04000003 	streq	r0, [r0], #-3
     494:	0c3402fb 	lfmeq	f0, 4, [r4], #-1004	; 0xfffffc14
     498:	000002bd 			; <UNDEFINED> instruction: 0x000002bd
     49c:	0000036e 	andeq	r0, r0, lr, ror #6
     4a0:	3802fc04 	stmdacc	r2, {r2, sl, fp, ip, sp, lr, pc}
     4a4:	0002c50c 	andeq	ip, r2, ip, lsl #10
     4a8:	00003700 	andeq	r3, r0, r0, lsl #14
     4ac:	02fd0400 	rscseq	r0, sp, #0, 8
     4b0:	02cf0c3c 	sbceq	r0, pc, #60, 24	; 0x3c00
     4b4:	036e0000 	cmneq	lr, #0
     4b8:	fe040000 	cdp2	0, 0, cr0, cr4, cr0, {0}
     4bc:	d70c4002 	strle	r4, [ip, -r2]
     4c0:	6e000002 	cdpvs	0, 0, cr0, cr0, cr2, {0}
     4c4:	04000003 	streq	r0, [r0], #-3
     4c8:	0c4402ff 	sfmeq	f0, 2, [r4], {255}	; 0xff
     4cc:	00000194 	muleq	r0, r4, r1
     4d0:	0000059c 	muleq	r0, ip, r5
     4d4:	48030004 	stmdami	r3, {r2}
     4d8:	0002df0c 	andeq	sp, r2, ip, lsl #30
     4dc:	00036e00 	andeq	r6, r3, r0, lsl #28
     4e0:	03010400 	movweq	r0, #5120	; 0x1400
     4e4:	02e90c50 	rsceq	r0, r9, #80, 24	; 0x5000
     4e8:	036e0000 	cmneq	lr, #0
     4ec:	02040000 	andeq	r0, r4, #0
     4f0:	f30c5403 	vshl.u8	d5, d3, d12
     4f4:	6e000002 	cdpvs	0, 0, cr0, cr0, cr2, {0}
     4f8:	04000003 	streq	r0, [r0], #-3
     4fc:	0c580303 	mrrceq	3, 0, r0, r8, cr3
     500:	000001a3 	andeq	r0, r0, r3, lsr #3
     504:	00000037 	andeq	r0, r0, r7, lsr r0
     508:	5c030404 	cfstrspl	mvf0, [r3], {4}
     50c:	0002fd0c 	andeq	pc, r2, ip, lsl #26
     510:	00036e00 	andeq	r6, r3, r0, lsl #28
     514:	03050400 	movweq	r0, #21504	; 0x5400
     518:	03070c60 	movweq	r0, #31840	; 0x7c60
     51c:	036e0000 	cmneq	lr, #0
     520:	06040000 	streq	r0, [r4], -r0
     524:	bf0c6403 	svclt	0x000c6403
     528:	9c000001 	stcls	0, cr0, [r0], {1}
     52c:	04000005 	streq	r0, [r0], #-5
     530:	0c680307 	stcleq	3, cr0, [r8], #-28	; 0xffffffe4
     534:	00000311 	andeq	r0, r0, r1, lsl r3
     538:	0000036e 	andeq	r0, r0, lr, ror #6
     53c:	70030804 	andvc	r0, r3, r4, lsl #16
     540:	0003160c 	andeq	r1, r3, ip, lsl #12
     544:	00036e00 	andeq	r6, r3, r0, lsl #28
     548:	03090400 	movweq	r0, #37888	; 0x9400
     54c:	01d10c74 	bicseq	r0, r1, r4, ror ip
     550:	059c0000 	ldreq	r0, [ip]
     554:	0a040000 	beq	10055c <__Vectors_Size+0x100364>
     558:	1a0c7803 	bne	31e56c <__Vectors_Size+0x31e374>
     55c:	6e000003 	cdpvs	0, 0, cr0, cr0, cr3, {0}
     560:	04000003 	streq	r0, [r0], #-3
     564:	0c80030b 	stceq	3, cr0, [r0], {11}
     568:	00000320 	andeq	r0, r0, r0, lsr #6
     56c:	0000036e 	andeq	r0, r0, lr, ror #6
     570:	84030c04 	strhi	r0, [r3], #-3076	; 0xfffff3fc
     574:	00032b0c 	andeq	r2, r3, ip, lsl #22
     578:	00036e00 	andeq	r6, r3, r0, lsl #28
     57c:	030d0400 	movweq	r0, #54272	; 0xd400
     580:	03360c88 	teqeq	r6, #136, 24	; 0x8800
     584:	036e0000 	cmneq	lr, #0
     588:	0e040000 	cdpeq	0, 0, cr0, cr4, cr0, {0}
     58c:	3f0c8c03 	svccc	0x000c8c03
     590:	6e000003 	cdpvs	0, 0, cr0, cr0, cr3, {0}
     594:	04000003 	streq	r0, [r0], #-3
     598:	0090030f 	addseq	r0, r0, pc, lsl #6
     59c:	00003705 	andeq	r3, r0, r5, lsl #14
     5a0:	007d0600 	rsbseq	r0, sp, r0, lsl #12
     5a4:	00020000 	andeq	r0, r2, r0
     5a8:	00283010 	eoreq	r3, r8, r0, lsl r0
     5ac:	00001208 	andeq	r1, r0, r8, lsl #4
     5b0:	545d0100 	ldrbpl	r0, [sp], #-256	; 0xffffff00
     5b4:	02000003 	andeq	r0, r0, #3
     5b8:	00001197 	muleq	r0, r7, r1
     5bc:	012e0000 			; <UNDEFINED> instruction: 0x012e0000
     5c0:	5d010000 	stcpl	0, cr0, [r1, #-0]
     5c4:	0000035f 	andeq	r0, r0, pc, asr r3
     5c8:	0212c802 	andseq	ip, r2, #131072	; 0x20000
     5cc:	03751491 	cmneq	r5, #-1862270976	; 0x91000000
     5d0:	ca020000 	bgt	805d8 <__Vectors_Size+0x803e0>
     5d4:	00000037 	andeq	r0, r0, r7, lsr r0
     5d8:	10910212 	addsne	r0, r1, r2, lsl r2
     5dc:	00000379 	andeq	r0, r0, r9, ror r3
     5e0:	0037ca02 	eorseq	ip, r7, r2, lsl #20
     5e4:	02120000 	andseq	r0, r2, #0
     5e8:	03800c91 	orreq	r0, r0, #37120	; 0x9100
     5ec:	ca020000 	bgt	805f4 <__Vectors_Size+0x803fc>
     5f0:	00000037 	andeq	r0, r0, r7, lsr r0
     5f4:	08910212 	ldmeq	r1, {r1, r4, r9}
     5f8:	00000385 	andeq	r0, r0, r5, lsl #7
     5fc:	0037ca02 	eorseq	ip, r7, r2, lsl #20
     600:	02120000 	andseq	r0, r2, #0
     604:	038f0491 	orreq	r0, pc, #-1862270976	; 0x91000000
     608:	ca020000 	bgt	80610 <__Vectors_Size+0x80418>
     60c:	00000037 	andeq	r0, r0, r7, lsr r0
     610:	01bc0000 			; <UNDEFINED> instruction: 0x01bc0000
     614:	00030000 	andeq	r0, r3, r0
     618:	000000e7 	andeq	r0, r0, r7, ror #1
     61c:	54520104 	ldrbpl	r0, [r2], #-260	; 0xfffffefc
     620:	65442f45 	strbvs	r2, [r4, #-3909]	; 0xfffff0bb
     624:	65636976 	strbvs	r6, [r3, #-2422]!	; 0xfffff68a
     628:	4d54532f 	ldclmi	3, cr5, [r4, #-188]	; 0xffffff44
     62c:	37463233 	smlaldxcc	r3, r6, r3, r2
     630:	495a3736 	ldmdbmi	sl, {r1, r2, r4, r5, r8, r9, sl, ip, sp}^
     634:	732f7854 			; <UNDEFINED> instruction: 0x732f7854
     638:	74726174 	ldrbtvc	r6, [r2], #-372	; 0xfffffe8c
     63c:	735f7075 	cmpvc	pc, #117	; 0x75
     640:	32336d74 	eorscc	r6, r3, #116, 26	; 0x1d00
     644:	37363766 	ldrcc	r3, [r6, -r6, ror #14]!
     648:	732e7878 			; <UNDEFINED> instruction: 0x732e7878
     64c:	6d6f4300 	stclvs	3, cr4, [pc, #-0]	; 654 <__Vectors_Size+0x45c>
     650:	656e6f70 	strbvs	r6, [lr, #-3952]!	; 0xfffff090
     654:	203a746e 	eorscs	r7, sl, lr, ror #8
     658:	206d7241 	rsbcs	r7, sp, r1, asr #4
     65c:	706d6f43 	rsbvc	r6, sp, r3, asr #30
     660:	72656c69 	rsbvc	r6, r5, #26880	; 0x6900
     664:	726f6620 	rsbvc	r6, pc, #32, 12	; 0x2000000
     668:	626d4520 	rsbvs	r4, sp, #32, 10	; 0x8000000
     66c:	65646465 	strbvs	r6, [r4, #-1125]!	; 0xfffffb9b
     670:	2e362064 	cdpcs	0, 3, cr2, cr6, cr4, {3}
     674:	54203931 	strtpl	r3, [r0], #-2353	; 0xfffff6cf
     678:	3a6c6f6f 	bcc	1b1c43c <__Vectors_Size+0x1b1c244>
     67c:	6d726120 	ldfvse	f6, [r2, #-128]!	; 0xffffff80
     680:	206d7361 	rsbcs	r7, sp, r1, ror #6
     684:	3765355b 			; <UNDEFINED> instruction: 0x3765355b
     688:	30626333 	rsbcc	r6, r2, r3, lsr r3
     68c:	44005d30 	strmi	r5, [r0], #-3376	; 0xfffff2d0
     690:	44235c3a 	strtmi	r5, [r3], #-3130	; 0xfffff3c6
     694:	6d75636f 	ldclvs	3, cr6, [r5, #-444]!	; 0xfffffe44
     698:	73746e65 	cmnvc	r4, #1616	; 0x650
     69c:	4956555c 	ldmdbmi	r6, {r2, r3, r4, r6, r8, sl, ip, lr}^
     6a0:	4e4f4953 			; <UNDEFINED> instruction: 0x4e4f4953
     6a4:	414d535c 	cmpmi	sp, ip, asr r3
     6a8:	575f5452 			; <UNDEFINED> instruction: 0x575f5452
     6ac:	5f454b41 	svcpl	0x00454b41
     6b0:	8c005055 	stchi	0, cr5, [r0], {85}	; 0x55
     6b4:	b4080003 	strlt	r0, [r8], #-3
     6b8:	40080003 	andmi	r0, r8, r3
     6bc:	02000002 	andeq	r0, r0, #2
     6c0:	65736552 	ldrbvs	r6, [r3, #-1362]!	; 0xfffffaae
     6c4:	61485f74 	hvcvs	34292	; 0x85f4
     6c8:	656c646e 	strbvs	r6, [ip, #-1134]!	; 0xfffffb92
     6cc:	038c0072 	orreq	r0, ip, #114	; 0x72
     6d0:	03940800 	orrseq	r0, r4, #0, 16
     6d4:	4e020800 	cdpmi	8, 0, cr0, cr2, cr0, {0}
     6d8:	485f494d 	ldmdami	pc, {r0, r2, r3, r6, r8, fp, lr}^	; <UNPREDICTABLE>
     6dc:	6c646e61 	stclvs	14, cr6, [r4], #-388	; 0xfffffe7c
     6e0:	94007265 	strls	r7, [r0], #-613	; 0xfffffd9b
     6e4:	96080003 	strls	r0, [r8], -r3
     6e8:	02080003 	andeq	r0, r8, #3
     6ec:	64726148 	ldrbtvs	r6, [r2], #-328	; 0xfffffeb8
     6f0:	6c756146 	ldfvse	f6, [r5], #-280	; 0xfffffee8
     6f4:	61485f74 	hvcvs	34292	; 0x85f4
     6f8:	656c646e 	strbvs	r6, [ip, #-1134]!	; 0xfffffb92
     6fc:	03960072 	orrseq	r0, r6, #114	; 0x72
     700:	03980800 	orrseq	r0, r8, #0, 16
     704:	4d020800 	stcmi	8, cr0, [r2, #-0]
     708:	614d6d65 	cmpvs	sp, r5, ror #26
     70c:	6567616e 	strbvs	r6, [r7, #-366]!	; 0xfffffe92
     710:	6e61485f 	mcrvs	8, 3, r4, cr1, cr15, {2}
     714:	72656c64 	rsbvc	r6, r5, #100, 24	; 0x6400
     718:	00039800 	andeq	r9, r3, r0, lsl #16
     71c:	00039a08 	andeq	r9, r3, r8, lsl #20
     720:	75420208 	strbvc	r0, [r2, #-520]	; 0xfffffdf8
     724:	75614673 	strbvc	r4, [r1, #-1651]!	; 0xfffff98d
     728:	485f746c 	ldmdami	pc, {r2, r3, r5, r6, sl, ip, sp, lr}^	; <UNPREDICTABLE>
     72c:	6c646e61 	stclvs	14, cr6, [r4], #-388	; 0xfffffe7c
     730:	9a007265 	bls	1d0cc <__Vectors_Size+0x1ced4>
     734:	9c080003 	stcls	0, cr0, [r8], {3}
     738:	02080003 	andeq	r0, r8, #3
     73c:	67617355 			; <UNDEFINED> instruction: 0x67617355
     740:	75614665 	strbvc	r4, [r1, #-1637]!	; 0xfffff99b
     744:	485f746c 	ldmdami	pc, {r2, r3, r5, r6, sl, ip, sp, lr}^	; <UNPREDICTABLE>
     748:	6c646e61 	stclvs	14, cr6, [r4], #-388	; 0xfffffe7c
     74c:	9c007265 	sfmls	f7, 4, [r0], {101}	; 0x65
     750:	9e080003 	cdpls	0, 0, cr0, cr8, cr3, {0}
     754:	02080003 	andeq	r0, r8, #3
     758:	5f435653 	svcpl	0x00435653
     75c:	646e6148 	strbtvs	r6, [lr], #-328	; 0xfffffeb8
     760:	0072656c 	rsbseq	r6, r2, ip, ror #10
     764:	0800039e 	stmdaeq	r0, {r1, r2, r3, r4, r7, r8, r9}
     768:	080003a0 	stmdaeq	r0, {r5, r7, r8, r9}
     76c:	62654402 	rsbvs	r4, r5, #33554432	; 0x2000000
     770:	6f4d6775 	svcvs	0x004d6775
     774:	61485f6e 	cmpvs	r8, lr, ror #30
     778:	656c646e 	strbvs	r6, [ip, #-1134]!	; 0xfffffb92
     77c:	03a00072 	moveq	r0, #114	; 0x72
     780:	03a20800 			; <UNDEFINED> instruction: 0x03a20800
     784:	50020800 	andpl	r0, r2, r0, lsl #16
     788:	53646e65 	cmnpl	r4, #1616	; 0x650
     78c:	61485f56 	cmpvs	r8, r6, asr pc
     790:	656c646e 	strbvs	r6, [ip, #-1134]!	; 0xfffffb92
     794:	03a20072 			; <UNDEFINED> instruction: 0x03a20072
     798:	03a40800 			; <UNDEFINED> instruction: 0x03a40800
     79c:	53020800 	movwpl	r0, #10240	; 0x2800
     7a0:	69547379 	ldmdbvs	r4, {r0, r3, r4, r5, r6, r8, r9, ip, sp, lr}^
     7a4:	485f6b63 	ldmdami	pc, {r0, r1, r5, r6, r8, r9, fp, sp, lr}^	; <UNPREDICTABLE>
     7a8:	6c646e61 	stclvs	14, cr6, [r4], #-388	; 0xfffffe7c
     7ac:	a4007265 	strge	r7, [r0], #-613	; 0xfffffd9b
     7b0:	a6080003 	strge	r0, [r8], -r3
     7b4:	02080003 	andeq	r0, r8, #3
     7b8:	61666544 	cmnvs	r6, r4, asr #10
     7bc:	5f746c75 	svcpl	0x00746c75
     7c0:	646e6148 	strbtvs	r6, [lr], #-328	; 0xfffffeb8
     7c4:	0072656c 	rsbseq	r6, r2, ip, ror #10
     7c8:	080003a6 	stmdaeq	r0, {r1, r2, r5, r7, r8, r9}
     7cc:	080003a8 	stmdaeq	r0, {r3, r5, r7, r8, r9}
     7d0:	0d960000 	ldceq	0, cr0, [r6]
     7d4:	00040000 	andeq	r0, r4, r0
     7d8:	00000107 	andeq	r0, r0, r7, lsl #2
     7dc:	03940104 	orrseq	r0, r4, #4, 2
     7e0:	000c0000 	andeq	r0, ip, r0
     7e4:	000003d8 	ldrdeq	r0, [r0], -r8
     7e8:	000002bc 			; <UNDEFINED> instruction: 0x000002bc
     7ec:	000003e2 	andeq	r0, r0, r2, ror #7
     7f0:	00000000 	andeq	r0, r0, r0
     7f4:	00000018 	andeq	r0, r0, r8, lsl r0
     7f8:	00040602 	andeq	r0, r4, r2, lsl #12
     7fc:	00003700 	andeq	r3, r0, r0, lsl #14
     800:	050b0200 	streq	r0, [fp, #-512]	; 0xfffffe00
     804:	02348403 	eorseq	r8, r4, #50331648	; 0x3000000
     808:	003c0320 	eorseq	r0, ip, r0, lsr #6
     80c:	47040000 	strmi	r0, [r4, -r0]
     810:	24000000 	strcs	r0, [r0], #-0
     814:	01000004 	tsteq	r0, r4
     818:	0416053e 	ldreq	r0, [r6], #-1342	; 0xfffffac2
     81c:	01080000 	mrseq	r0, (UNDEF: 8)
     820:	00042c02 	andeq	r2, r4, r2, lsl #24
     824:	00003700 	andeq	r3, r0, r0, lsl #14
     828:	050c0200 	streq	r0, [ip, #-512]	; 0xfffffe00
     82c:	02348003 	eorseq	r8, r4, #3
     830:	043f0220 	ldrteq	r0, [pc], #-544	; 838 <__Vectors_Size+0x640>
     834:	00370000 	eorseq	r0, r7, r0
     838:	0d020000 	stceq	0, cr0, [r2, #-0]
     83c:	34820305 	strcc	r0, [r2], #773	; 0x305
     840:	51022002 	tstpl	r2, r2
     844:	37000004 	strcc	r0, [r0, -r4]
     848:	02000000 	andeq	r0, r0, #0
     84c:	8103050e 	tsthi	r3, lr, lsl #10
     850:	02200234 	eoreq	r0, r0, #52, 4	; 0x40000003
     854:	00000462 	andeq	r0, r0, r2, ror #8
     858:	00000037 	andeq	r0, r0, r7, lsr r0
     85c:	03050f02 	movweq	r0, #24322	; 0x5f02
     860:	20023483 	andcs	r3, r2, r3, lsl #9
     864:	00037f06 	andeq	r7, r3, r6, lsl #30
     868:	30030100 	andcc	r0, r3, r0, lsl #2
     86c:	00047c07 	andeq	r7, r4, r7, lsl #24
     870:	90077200 	andls	r7, r7, r0, lsl #4
     874:	74000004 	strvc	r0, [r0], #-4
     878:	0004a607 	andeq	sl, r4, r7, lsl #12
     87c:	b4077500 	strlt	r7, [r7], #-1280	; 0xfffffb00
     880:	76000004 	strvc	r0, [r0], -r4
     884:	0004c407 	andeq	ip, r4, r7, lsl #8
     888:	d0077b00 	andle	r7, r7, r0, lsl #22
     88c:	7c000004 	stcvc	0, cr0, [r0], {4}
     890:	0004e207 	andeq	lr, r4, r7, lsl #4
     894:	ee077e00 	cdp	14, 0, cr7, cr7, cr0, {0}
     898:	7f000004 	svcvc	0x00000004
     89c:	0004fb07 	andeq	pc, r4, r7, lsl #22
     8a0:	05070000 	streq	r0, [r7, #-0]
     8a4:	01000005 	tsteq	r0, r5
     8a8:	00050e07 	andeq	r0, r5, r7, lsl #28
     8ac:	1e070200 	cdpne	2, 0, cr0, cr7, cr0, {0}
     8b0:	03000005 	movweq	r0, #5
     8b4:	00052c07 	andeq	r2, r5, r7, lsl #24
     8b8:	37070400 	strcc	r0, [r7, -r0, lsl #8]
     8bc:	05000005 	streq	r0, [r0, #-5]
     8c0:	00054007 	andeq	r4, r5, r7
     8c4:	4b070600 	blmi	1c20cc <__Vectors_Size+0x1c1ed4>
     8c8:	07000005 	streq	r0, [r0, -r5]
     8cc:	00055607 	andeq	r5, r5, r7, lsl #12
     8d0:	61070800 	tstvs	r7, r0, lsl #16
     8d4:	09000005 	stmdbeq	r0, {r0, r2}
     8d8:	00056c07 	andeq	r6, r5, r7, lsl #24
     8dc:	77070a00 	strvc	r0, [r7, -r0, lsl #20]
     8e0:	0b000005 	bleq	8fc <__Vectors_Size+0x704>
     8e4:	00058907 	andeq	r8, r5, r7, lsl #18
     8e8:	9b070c00 	blls	1c38f0 <__Vectors_Size+0x1c36f8>
     8ec:	0d000005 	stceq	0, cr0, [r0, #-20]	; 0xffffffec
     8f0:	0005ad07 	andeq	sl, r5, r7, lsl #26
     8f4:	bf070e00 	svclt	0x00070e00
     8f8:	0f000005 	svceq	0x00000005
     8fc:	0005d107 	andeq	sp, r5, r7, lsl #2
     900:	e3071000 	movw	r1, #28672	; 0x7000
     904:	11000005 	tstne	r0, r5
     908:	0005f507 	andeq	pc, r5, r7, lsl #10
     90c:	fe071200 	cdp2	2, 0, cr1, cr7, cr0, {0}
     910:	13000005 	movwne	r0, #5
     914:	00060b07 	andeq	r0, r6, r7, lsl #22
     918:	19071400 	stmdbne	r7, {sl, ip}
     91c:	15000006 	strne	r0, [r0, #-6]
     920:	00062707 	andeq	r2, r6, r7, lsl #14
     924:	35071600 	strcc	r1, [r7, #-1536]	; 0xfffffa00
     928:	17000006 	strne	r0, [r0, -r6]
     92c:	00064207 	andeq	r4, r6, r7, lsl #4
     930:	55071800 	strpl	r1, [r7, #-2048]	; 0xfffff800
     934:	19000006 	stmdbne	r0, {r1, r2}
     938:	00066807 	andeq	r6, r6, r7, lsl #16
     93c:	80071a00 	andhi	r1, r7, r0, lsl #20
     940:	1b000006 	blne	960 <__Vectors_Size+0x768>
     944:	00068d07 	andeq	r8, r6, r7, lsl #26
     948:	97071c00 	strls	r1, [r7, -r0, lsl #24]
     94c:	1d000006 	stcne	0, cr0, [r0, #-24]	; 0xffffffe8
     950:	0006a107 	andeq	sl, r6, r7, lsl #2
     954:	ab071e00 	blge	1c815c <__Vectors_Size+0x1c7f64>
     958:	1f000006 	svcne	0x00000006
     95c:	0006b807 	andeq	fp, r6, r7, lsl #16
     960:	c5072000 	strgt	r2, [r7, #-0]
     964:	21000006 	tstcs	r0, r6
     968:	0006d207 	andeq	sp, r6, r7, lsl #4
     96c:	df072200 	svcle	0x00072200
     970:	23000006 	movwcs	r0, #6
     974:	0006e907 	andeq	lr, r6, r7, lsl #18
     978:	f3072400 	vshl.u8	d2, d0, d7
     97c:	25000006 	strcs	r0, [r0, #-6]
     980:	0006ff07 	andeq	pc, r6, r7, lsl #30
     984:	0b072600 	bleq	1ca18c <__Vectors_Size+0x1c9f94>
     988:	27000007 	strcs	r0, [r0, -r7]
     98c:	00071707 	andeq	r1, r7, r7, lsl #14
     990:	26072800 	strcs	r2, [r7], -r0, lsl #16
     994:	29000007 	stmdbcs	r0, {r0, r1, r2}
     998:	00073507 	andeq	r3, r7, r7, lsl #10
     99c:	46072a00 	strmi	r2, [r7], -r0, lsl #20
     9a0:	2b000007 	blcs	9c4 <__Vectors_Size+0x7cc>
     9a4:	00075a07 	andeq	r5, r7, r7, lsl #20
     9a8:	6d072c00 	stcvs	12, cr2, [r7, #-0]
     9ac:	2d000007 	stccs	0, cr0, [r0, #-28]	; 0xffffffe4
     9b0:	00078507 	andeq	r8, r7, r7, lsl #10
     9b4:	92072e00 	andls	r2, r7, #0, 28
     9b8:	2f000007 	svccs	0x00000007
     9bc:	0007a407 	andeq	sl, r7, r7, lsl #8
     9c0:	ad073000 	stcge	0, cr3, [r7, #-0]
     9c4:	31000007 	tstcc	r0, r7
     9c8:	0007b907 	andeq	fp, r7, r7, lsl #18
     9cc:	c3073200 	movwgt	r3, #29184	; 0x7200
     9d0:	33000007 	movwcc	r0, #7
     9d4:	0007cd07 	andeq	ip, r7, r7, lsl #26
     9d8:	d8073400 	stmdale	r7, {sl, ip, sp}
     9dc:	35000007 	strcc	r0, [r0, #-7]
     9e0:	0007e307 	andeq	lr, r7, r7, lsl #6
     9e4:	f1073600 			; <UNDEFINED> instruction: 0xf1073600
     9e8:	37000007 	strcc	r0, [r0, -r7]
     9ec:	0007fb07 	andeq	pc, r7, r7, lsl #22
     9f0:	0d073800 	stceq	8, cr3, [r7, #-0]
     9f4:	39000008 	stmdbcc	r0, {r3}
     9f8:	00081f07 	andeq	r1, r8, r7, lsl #30
     9fc:	31073a00 	tstcc	r7, r0, lsl #20
     a00:	3b000008 	blcc	a28 <__Vectors_Size+0x830>
     a04:	00084307 	andeq	r4, r8, r7, lsl #6
     a08:	55073c00 	strpl	r3, [r7, #-3072]	; 0xfffff400
     a0c:	3d000008 	stccc	0, cr0, [r0, #-32]	; 0xffffffe0
     a10:	00085e07 	andeq	r5, r8, r7, lsl #28
     a14:	6c073e00 	stcvs	14, cr3, [r7], {-0}
     a18:	3f000008 	svccc	0x00000008
     a1c:	00087907 	andeq	r7, r8, r7, lsl #18
     a20:	0700c000 	streq	ip, [r0, -r0]
     a24:	00000887 	andeq	r0, r0, r7, lsl #17
     a28:	950700c1 	strls	r0, [r7, #-193]	; 0xffffff3f
     a2c:	c2000008 	andgt	r0, r0, #8
     a30:	08a30700 	stmiaeq	r3!, {r8, r9, sl}
     a34:	00c30000 	sbceq	r0, r3, r0
     a38:	0008af07 	andeq	sl, r8, r7, lsl #30
     a3c:	0700c400 	streq	ip, [r0, -r0, lsl #8]
     a40:	000008c1 	andeq	r0, r0, r1, asr #17
     a44:	d30700c5 	movwle	r0, #28869	; 0x70c5
     a48:	c6000008 	strgt	r0, [r0], -r8
     a4c:	08e50700 	stmiaeq	r5!, {r8, r9, sl}^
     a50:	00c70000 	sbceq	r0, r7, r0
     a54:	0008f107 	andeq	pc, r8, r7, lsl #2
     a58:	0700c800 	streq	ip, [r0, -r0, lsl #16]
     a5c:	000008fe 	strdeq	r0, [r0], -lr
     a60:	0b0700c9 	bleq	1c0d8c <__Vectors_Size+0x1c0b94>
     a64:	ca000009 	bgt	a90 <__Vectors_Size+0x898>
     a68:	091f0700 	ldmdbeq	pc, {r8, r9, sl}	; <UNPREDICTABLE>
     a6c:	00cb0000 	sbceq	r0, fp, r0
     a70:	00093207 	andeq	r3, r9, r7, lsl #4
     a74:	0700cc00 	streq	ip, [r0, -r0, lsl #24]
     a78:	00000943 	andeq	r0, r0, r3, asr #18
     a7c:	4f0700cd 	svcmi	0x000700cd
     a80:	ce000009 	cdpgt	0, 0, cr0, cr0, cr9, {0}
     a84:	09590700 	ldmdbeq	r9, {r8, r9, sl}^
     a88:	00d00000 	sbcseq	r0, r0, r0
     a8c:	00096207 	andeq	r6, r9, r7, lsl #4
     a90:	0700d100 	streq	sp, [r0, -r0, lsl #2]
     a94:	0000096b 	andeq	r0, r0, fp, ror #18
     a98:	760700d2 			; <UNDEFINED> instruction: 0x760700d2
     a9c:	d3000009 	movwle	r0, #9
     aa0:	09810700 	stmibeq	r1, {r8, r9, sl}
     aa4:	00d40000 	sbcseq	r0, r4, r0
     aa8:	00098b07 	andeq	r8, r9, r7, lsl #22
     aac:	0700d500 	streq	sp, [r0, -r0, lsl #10]
     ab0:	00000995 	muleq	r0, r5, r9
     ab4:	9f0700d6 	svcls	0x000700d6
     ab8:	d7000009 	strle	r0, [r0, -r9]
     abc:	09a90700 	stmibeq	r9!, {r8, r9, sl}
     ac0:	00d80000 	sbcseq	r0, r8, r0
     ac4:	0009b307 	andeq	fp, r9, r7, lsl #6
     ac8:	0700d900 	streq	sp, [r0, -r0, lsl #18]
     acc:	000009c0 	andeq	r0, r0, r0, asr #19
     ad0:	cb0700da 	blgt	1c0e40 <__Vectors_Size+0x1c0c48>
     ad4:	db000009 	blle	b00 <__Vectors_Size+0x908>
     ad8:	09d50700 	ldmibeq	r5, {r8, r9, sl}^
     adc:	00dc0000 	sbcseq	r0, ip, r0
     ae0:	0009e207 	andeq	lr, r9, r7, lsl #4
     ae4:	0700dd00 	streq	sp, [r0, -r0, lsl #26]
     ae8:	000009ee 	andeq	r0, r0, lr, ror #19
     aec:	f70700de 			; <UNDEFINED> instruction: 0xf70700de
     af0:	df000009 	svcle	0x00000009
     af4:	0a040700 	beq	1026fc <__Vectors_Size+0x102504>
     af8:	00e00000 	rsceq	r0, r0, r0
     afc:	000a1107 	andeq	r1, sl, r7, lsl #2
     b00:	0700e100 	streq	lr, [r0, -r0, lsl #2]
     b04:	00000a1f 	andeq	r0, r0, pc, lsl sl
     b08:	300700e3 	andcc	r0, r7, r3, ror #1
     b0c:	e400000a 	str	r0, [r0], #-10
     b10:	0a410700 	beq	1042718 <__Vectors_Size+0x1042520>
     b14:	00e50000 	rsceq	r0, r5, r0
     b18:	000a5207 	andeq	r5, sl, r7, lsl #4
     b1c:	0700e600 	streq	lr, [r0, -r0, lsl #12]
     b20:	00000a63 	andeq	r0, r0, r3, ror #20
     b24:	6f0700e7 	svcvs	0x000700e7
     b28:	e800000a 	stmda	r0, {r1, r3}
     b2c:	0a7c0700 	beq	1f02734 <__Vectors_Size+0x1f0253c>
     b30:	00e90000 	rsceq	r0, r9, r0
     b34:	000a8a07 	andeq	r8, sl, r7, lsl #20
     b38:	0700ea00 	streq	lr, [r0, -r0, lsl #20]
     b3c:	00000a98 	muleq	r0, r8, sl
     b40:	a60700eb 	strge	r0, [r7], -fp, ror #1
     b44:	ec00000a 	stc	0, cr0, [r0], {10}
     b48:	0ab00700 	beq	fec02750 <__initial_sp+0xdebde8a8>
     b4c:	00ed0000 	rsceq	r0, sp, r0
     b50:	04700500 	ldrbteq	r0, [r0], #-1280	; 0xfffffb00
     b54:	01060000 	mrseq	r0, (UNDEF: 6)
     b58:	00038b08 	andeq	r8, r3, r8, lsl #22
     b5c:	03970900 	orrseq	r0, r7, #0, 18
     b60:	0bfd0000 	bleq	fff40b68 <__initial_sp+0xdff1ccc0>
     b64:	11030000 	mrsne	r0, (UNDEF: 3)
     b68:	03940a03 	orrseq	r0, r4, #12288	; 0x3000
     b6c:	bb0b02ed 	bllt	2c1728 <__Vectors_Size+0x2c1530>
     b70:	4a00000a 	bmi	ba0 <__Vectors_Size+0x9a8>
     b74:	03000005 	movweq	r0, #5
     b78:	0b0002ef 	bleq	173c <__Vectors_Size+0x1544>
     b7c:	00000ad4 	ldrdeq	r0, [r0], -r4
     b80:	0000054a 	andeq	r0, r0, sl, asr #10
     b84:	0402f003 	streq	pc, [r2], #-3
     b88:	000adc0b 	andeq	sp, sl, fp, lsl #24
     b8c:	00054a00 	andeq	r4, r5, r0, lsl #20
     b90:	02f10300 	rscseq	r0, r1, #0, 6
     b94:	0ae10b08 	beq	ff8437bc <__initial_sp+0xdf81f914>
     b98:	054a0000 	strbeq	r0, [sl, #-0]
     b9c:	f2030000 	vhadd.s8	d0, d3, d0
     ba0:	e50b0c02 	str	r0, [fp, #-3074]	; 0xfffff3fe
     ba4:	4a00000a 	bmi	bd4 <__Vectors_Size+0x9dc>
     ba8:	03000005 	movweq	r0, #5
     bac:	0b1002f3 	bleq	401780 <__Vectors_Size+0x401588>
     bb0:	00000aee 	andeq	r0, r0, lr, ror #21
     bb4:	0000054a 	andeq	r0, r0, sl, asr #10
     bb8:	1402f403 	strne	pc, [r2], #-1027	; 0xfffffbfd
     bbc:	000af70b 	andeq	pc, sl, fp, lsl #14
     bc0:	00054a00 	andeq	r4, r5, r0, lsl #20
     bc4:	02f50300 	rscseq	r0, r5, #0, 6
     bc8:	0b000b18 	bleq	3830 <__Vectors_Size+0x3638>
     bcc:	054f0000 	strbeq	r0, [pc, #-0]	; bd4 <__Vectors_Size+0x9dc>
     bd0:	f6030000 			; <UNDEFINED> instruction: 0xf6030000
     bd4:	0a0b1c02 	beq	2c7be4 <__Vectors_Size+0x2c79ec>
     bd8:	4a00000b 	bmi	c0c <__Vectors_Size+0xa14>
     bdc:	03000005 	movweq	r0, #5
     be0:	0b2002f7 	bleq	8017c4 <__Vectors_Size+0x8015cc>
     be4:	00000b13 	andeq	r0, r0, r3, lsl fp
     be8:	0000054a 	andeq	r0, r0, sl, asr #10
     bec:	2402f803 	strcs	pc, [r2], #-2051	; 0xfffff7fd
     bf0:	000b1c0b 	andeq	r1, fp, fp, lsl #24
     bf4:	00056100 	andeq	r6, r5, r0, lsl #2
     bf8:	02f90300 	rscseq	r0, r9, #0, 6
     bfc:	0b3a0b28 	bleq	e838a4 <__Vectors_Size+0xe836ac>
     c00:	054a0000 	strbeq	r0, [sl, #-0]
     c04:	fa030000 	blx	c0c0c <__Vectors_Size+0xc0a14>
     c08:	420b3002 	andmi	r3, fp, #2
     c0c:	4a00000b 	bmi	c40 <__Vectors_Size+0xa48>
     c10:	03000005 	movweq	r0, #5
     c14:	0b3402fb 	bleq	d01808 <__Vectors_Size+0xd01610>
     c18:	00000b4a 	andeq	r0, r0, sl, asr #22
     c1c:	0000054a 	andeq	r0, r0, sl, asr #10
     c20:	3802fc03 	stmdacc	r2, {r0, r1, sl, fp, ip, sp, lr, pc}
     c24:	000b520b 	andeq	r5, fp, fp, lsl #4
     c28:	00054f00 	andeq	r4, r5, r0, lsl #30
     c2c:	02fd0300 	rscseq	r0, sp, #0, 6
     c30:	0b5c0b3c 	bleq	1703928 <__Vectors_Size+0x1703730>
     c34:	054a0000 	strbeq	r0, [sl, #-0]
     c38:	fe030000 	cdp2	0, 0, cr0, cr3, cr0, {0}
     c3c:	640b4002 	strvs	r4, [fp], #-2
     c40:	4a00000b 	bmi	c74 <__Vectors_Size+0xa7c>
     c44:	03000005 	movweq	r0, #5
     c48:	0b4402ff 	bleq	110184c <__Vectors_Size+0x1101654>
     c4c:	00000b6c 	andeq	r0, r0, ip, ror #22
     c50:	00000561 	andeq	r0, r0, r1, ror #10
     c54:	48030003 	stmdami	r3, {r0, r1}
     c58:	000b760b 	andeq	r7, fp, fp, lsl #12
     c5c:	00054a00 	andeq	r4, r5, r0, lsl #20
     c60:	03010300 	movweq	r0, #4864	; 0x1300
     c64:	0b800b50 	bleq	fe0039ac <__initial_sp+0xddfdfb04>
     c68:	054a0000 	strbeq	r0, [sl, #-0]
     c6c:	02030000 	andeq	r0, r3, #0
     c70:	8a0b5403 	bhi	2d5c84 <__Vectors_Size+0x2d5a8c>
     c74:	4a00000b 	bmi	ca8 <__Vectors_Size+0xab0>
     c78:	03000005 	movweq	r0, #5
     c7c:	0b580303 	bleq	1601890 <__Vectors_Size+0x1601698>
     c80:	00000b94 	muleq	r0, r4, fp
     c84:	0000054f 	andeq	r0, r0, pc, asr #10
     c88:	5c030403 	cfstrspl	mvf0, [r3], {3}
     c8c:	000b9e0b 	andeq	r9, fp, fp, lsl #28
     c90:	00054a00 	andeq	r4, r5, r0, lsl #20
     c94:	03050300 	movweq	r0, #21248	; 0x5300
     c98:	0ba80b60 	bleq	fea03a20 <__initial_sp+0xde9dfb78>
     c9c:	054a0000 	strbeq	r0, [sl, #-0]
     ca0:	06030000 	streq	r0, [r3], -r0
     ca4:	b20b6403 	andlt	r6, fp, #50331648	; 0x3000000
     ca8:	6100000b 	tstvs	r0, fp
     cac:	03000005 	movweq	r0, #5
     cb0:	0b680307 	bleq	1a018d4 <__Vectors_Size+0x1a016dc>
     cb4:	00000bbc 			; <UNDEFINED> instruction: 0x00000bbc
     cb8:	0000054a 	andeq	r0, r0, sl, asr #10
     cbc:	70030803 	andvc	r0, r3, r3, lsl #16
     cc0:	000bc10b 	andeq	ip, fp, fp, lsl #2
     cc4:	00054a00 	andeq	r4, r5, r0, lsl #20
     cc8:	03090300 	movweq	r0, #37632	; 0x9300
     ccc:	0bc50b74 	bleq	ff143aa4 <__initial_sp+0xdf11fbfc>
     cd0:	05610000 	strbeq	r0, [r1, #-0]!
     cd4:	0a030000 	beq	c0cdc <__Vectors_Size+0xc0ae4>
     cd8:	cf0b7803 	svcgt	0x000b7803
     cdc:	4a00000b 	bmi	d10 <__Vectors_Size+0xb18>
     ce0:	03000005 	movweq	r0, #5
     ce4:	0b80030b 	bleq	fe001918 <__initial_sp+0xddfdda70>
     ce8:	00000bd5 	ldrdeq	r0, [r0], -r5
     cec:	0000054a 	andeq	r0, r0, sl, asr #10
     cf0:	84030c03 	strhi	r0, [r3], #-3075	; 0xfffff3fd
     cf4:	000be00b 	andeq	lr, fp, fp
     cf8:	00054a00 	andeq	r4, r5, r0, lsl #20
     cfc:	030d0300 	movweq	r0, #54016	; 0xd300
     d00:	0beb0b88 	bleq	ffac3b28 <__initial_sp+0xdfa9fc80>
     d04:	054a0000 	strbeq	r0, [sl, #-0]
     d08:	0e030000 	cdpeq	0, 0, cr0, cr3, cr0, {0}
     d0c:	f40b8c03 			; <UNDEFINED> instruction: 0xf40b8c03
     d10:	4a00000b 	bmi	d44 <__Vectors_Size+0xb4c>
     d14:	03000005 	movweq	r0, #5
     d18:	0090030f 	addseq	r0, r0, pc, lsl #6
     d1c:	00054f03 	andeq	r4, r5, r3, lsl #30
     d20:	055a0400 	ldrbeq	r0, [sl, #-1024]	; 0xfffffc00
     d24:	0acb0000 	beq	ff2c0d2c <__initial_sp+0xdf29ce84>
     d28:	40010000 	andmi	r0, r1, r0
     d2c:	000abe05 	andeq	fp, sl, r5, lsl #28
     d30:	0c040700 	stceq	7, cr0, [r4], {-0}
     d34:	0000054f 	andeq	r0, r0, pc, asr #10
     d38:	00056d0d 	andeq	r6, r5, sp, lsl #26
     d3c:	0e000200 	cdpeq	2, 0, cr0, cr0, cr0, {0}
     d40:	00000b26 	andeq	r0, r0, r6, lsr #22
     d44:	79080708 	stmdbvc	r8, {r3, r8, r9, sl}
     d48:	09000005 	stmdbeq	r0, {r0, r2}
     d4c:	00000585 	andeq	r0, r0, r5, lsl #11
     d50:	00000c24 	andeq	r0, r0, r4, lsr #24
     d54:	0a022b03 	beq	8b968 <__Vectors_Size+0x8b770>
     d58:	02230318 	eoreq	r0, r3, #24, 6	; 0x60000000
     d5c:	000c090b 	andeq	r0, ip, fp, lsl #18
     d60:	00054a00 	andeq	r4, r5, r0, lsl #20
     d64:	02250300 	eoreq	r0, r5, #0, 6
     d68:	0c0d0b00 			; <UNDEFINED> instruction: 0x0c0d0b00
     d6c:	054a0000 	strbeq	r0, [sl, #-0]
     d70:	26030000 	strcs	r0, [r3], -r0
     d74:	110b0402 	tstne	fp, r2, lsl #8
     d78:	4a00000c 	bmi	db0 <__Vectors_Size+0xbb8>
     d7c:	03000005 	movweq	r0, #5
     d80:	0b080227 	bleq	201624 <__Vectors_Size+0x20142c>
     d84:	00000c16 	andeq	r0, r0, r6, lsl ip
     d88:	0000054a 	andeq	r0, r0, sl, asr #10
     d8c:	0c022803 	stceq	8, cr2, [r2], {3}
     d90:	000c1b0b 	andeq	r1, ip, fp, lsl #22
     d94:	00054a00 	andeq	r4, r5, r0, lsl #20
     d98:	02290300 	eoreq	r0, r9, #0, 6
     d9c:	0c210b10 			; <UNDEFINED> instruction: 0x0c210b10
     da0:	054a0000 	strbeq	r0, [sl, #-0]
     da4:	2a030000 	bcs	c0dac <__Vectors_Size+0xc0bb4>
     da8:	08001402 	stmdaeq	r0, {r1, sl, ip}
     dac:	000005de 	ldrdeq	r0, [r0], -lr
     db0:	0005ea09 	andeq	lr, r5, r9, lsl #20
     db4:	000ca800 	andeq	sl, ip, r0, lsl #16
     db8:	03d70300 	bicseq	r0, r7, #0, 6
     dbc:	ba03680a 	blt	dadec <__Vectors_Size+0xdabf4>
     dc0:	0c310b03 			; <UNDEFINED> instruction: 0x0c310b03
     dc4:	054a0000 	strbeq	r0, [sl, #-0]
     dc8:	bc030000 	stclt	0, cr0, [r3], {-0}
     dcc:	350b0003 	strcc	r0, [fp, #-3]
     dd0:	4a00000c 	bmi	e08 <__Vectors_Size+0xc10>
     dd4:	03000005 	movweq	r0, #5
     dd8:	0b0403bd 	bleq	101cd4 <__Vectors_Size+0x101adc>
     ddc:	00000c39 	andeq	r0, r0, r9, lsr ip
     de0:	0000054a 	andeq	r0, r0, sl, asr #10
     de4:	0803be03 	stmdaeq	r3, {r0, r1, r9, sl, fp, ip, sp, pc}
     de8:	000c3e0b 	andeq	r3, ip, fp, lsl #28
     dec:	00054a00 	andeq	r4, r5, r0, lsl #20
     df0:	03bf0300 			; <UNDEFINED> instruction: 0x03bf0300
     df4:	0c430b0c 	mcrreq	11, 0, r0, r3, cr12
     df8:	054a0000 	strbeq	r0, [sl, #-0]
     dfc:	c0030000 	andgt	r0, r3, r0
     e00:	460b1003 	strmi	r1, [fp], -r3
     e04:	4a00000c 	bmi	e3c <__Vectors_Size+0xc44>
     e08:	03000005 	movweq	r0, #5
     e0c:	0b1403c1 	bleq	501d18 <__Vectors_Size+0x501b20>
     e10:	00000c4a 	andeq	r0, r0, sl, asr #24
     e14:	0000054a 	andeq	r0, r0, sl, asr #10
     e18:	1803c203 	stmdane	r3, {r0, r1, r9, lr, pc}
     e1c:	000c500b 	andeq	r5, ip, fp
     e20:	00054a00 	andeq	r4, r5, r0, lsl #20
     e24:	03c30300 	biceq	r0, r3, #0, 6
     e28:	0c560b1c 	vmoveq	r0, r6, d12
     e2c:	054a0000 	strbeq	r0, [sl, #-0]
     e30:	c4030000 	strgt	r0, [r3], #-0
     e34:	5b0b2003 	blpl	2c8e48 <__Vectors_Size+0x2c8c50>
     e38:	4a00000c 	bmi	e70 <__Vectors_Size+0xc78>
     e3c:	03000005 	movweq	r0, #5
     e40:	0b2403c5 	bleq	901d5c <__Vectors_Size+0x901b64>
     e44:	00000c5f 	andeq	r0, r0, pc, asr ip
     e48:	0000054a 	andeq	r0, r0, sl, asr #10
     e4c:	2803c603 	stmdacs	r3, {r0, r1, r9, sl, lr, pc}
     e50:	000c630b 	andeq	r6, ip, fp, lsl #6
     e54:	00054a00 	andeq	r4, r5, r0, lsl #20
     e58:	03c70300 	biceq	r0, r7, #0, 6
     e5c:	0c670b2c 			; <UNDEFINED> instruction: 0x0c670b2c
     e60:	054a0000 	strbeq	r0, [sl, #-0]
     e64:	c8030000 	stmdagt	r3, {}	; <UNPREDICTABLE>
     e68:	6b0b3003 	blvs	2cce7c <__Vectors_Size+0x2ccc84>
     e6c:	4a00000c 	bmi	ea4 <__Vectors_Size+0xcac>
     e70:	03000005 	movweq	r0, #5
     e74:	0b3403c9 	bleq	d01da0 <__Vectors_Size+0xd01ba8>
     e78:	00000c70 	andeq	r0, r0, r0, ror ip
     e7c:	0000054a 	andeq	r0, r0, sl, asr #10
     e80:	3803ca03 	stmdacc	r3, {r0, r1, r9, fp, lr, pc}
     e84:	000c750b 	andeq	r7, ip, fp, lsl #10
     e88:	00054a00 	andeq	r4, r5, r0, lsl #20
     e8c:	03cb0300 	biceq	r0, fp, #0, 6
     e90:	0c7a0b3c 			; <UNDEFINED> instruction: 0x0c7a0b3c
     e94:	054a0000 	strbeq	r0, [sl, #-0]
     e98:	cc030000 	stcgt	0, cr0, [r3], {-0}
     e9c:	7f0b4003 	svcvc	0x000b4003
     ea0:	4a00000c 	bmi	ed8 <__Vectors_Size+0xce0>
     ea4:	03000005 	movweq	r0, #5
     ea8:	0b4403cd 	bleq	1101de4 <__Vectors_Size+0x1101bec>
     eac:	00000c84 	andeq	r0, r0, r4, lsl #25
     eb0:	0000054a 	andeq	r0, r0, sl, asr #10
     eb4:	4803ce03 	stmdami	r3, {r0, r1, r9, sl, fp, lr, pc}
     eb8:	000c880b 	andeq	r8, ip, fp, lsl #16
     ebc:	00054a00 	andeq	r4, r5, r0, lsl #20
     ec0:	03cf0300 	biceq	r0, pc, #0, 6
     ec4:	0c8d0b4c 	vstmiaeq	sp, {d0-<overflow reg d37>}
     ec8:	054a0000 	strbeq	r0, [sl, #-0]
     ecc:	d0030000 	andle	r0, r3, r0
     ed0:	900b5003 	andls	r5, fp, r3
     ed4:	4a00000c 	bmi	f0c <__Vectors_Size+0xd14>
     ed8:	03000005 	movweq	r0, #5
     edc:	0b5403d1 	bleq	1501e28 <__Vectors_Size+0x1501c30>
     ee0:	00000c96 	muleq	r0, r6, ip
     ee4:	0000054a 	andeq	r0, r0, sl, asr #10
     ee8:	5803d203 	stmdapl	r3, {r0, r1, r9, ip, lr, pc}
     eec:	000c9b0b 	andeq	r9, ip, fp, lsl #22
     ef0:	00054a00 	andeq	r4, r5, r0, lsl #20
     ef4:	03d30300 	bicseq	r0, r3, #0, 6
     ef8:	0ca00b5c 	vstmiaeq	r0!, {d0-<overflow reg d45>}
     efc:	054a0000 	strbeq	r0, [sl, #-0]
     f00:	d4030000 	strle	r0, [r3], #-0
     f04:	a40b6003 	strge	r6, [fp], #-3
     f08:	4a00000c 	bmi	f40 <__Vectors_Size+0xd48>
     f0c:	03000005 	movweq	r0, #5
     f10:	006403d5 	ldrdeq	r0, [r4], #-53	; 0xffffffcb	; <UNPREDICTABLE>
     f14:	00074708 	andeq	r4, r7, r8, lsl #14
     f18:	07530900 	ldrbeq	r0, [r3, -r0, lsl #18]
     f1c:	0ce50000 	stcleq	0, cr0, [r5]
     f20:	7b030000 	blvc	c0f28 <__Vectors_Size+0xc0d30>
     f24:	03280a02 			; <UNDEFINED> instruction: 0x03280a02
     f28:	b40b0270 	strlt	r0, [fp], #-624	; 0xfffffd90
     f2c:	4a00000c 	bmi	f64 <__Vectors_Size+0xd6c>
     f30:	03000005 	movweq	r0, #5
     f34:	0b000272 	bleq	1904 <__Vectors_Size+0x170c>
     f38:	00000cba 			; <UNDEFINED> instruction: 0x00000cba
     f3c:	0000054a 	andeq	r0, r0, sl, asr #10
     f40:	04027303 	streq	r7, [r2], #-771	; 0xfffffcfd
     f44:	000cc10b 	andeq	ip, ip, fp, lsl #2
     f48:	00054a00 	andeq	r4, r5, r0, lsl #20
     f4c:	02740300 	rsbseq	r0, r4, #0, 6
     f50:	0cc90b08 	vstmiaeq	r9, {d16-d19}
     f54:	054a0000 	strbeq	r0, [sl, #-0]
     f58:	75030000 	strvc	r0, [r3, #-0]
     f5c:	cf0b0c02 	svcgt	0x000b0c02
     f60:	4a00000c 	bmi	f98 <__Vectors_Size+0xda0>
     f64:	03000005 	movweq	r0, #5
     f68:	0b100276 	bleq	401948 <__Vectors_Size+0x401750>
     f6c:	00000cd3 	ldrdeq	r0, [r0], -r3
     f70:	0000054a 	andeq	r0, r0, sl, asr #10
     f74:	14027703 	strne	r7, [r2], #-1795	; 0xfffff8fd
     f78:	000cd70b 	andeq	sp, ip, fp, lsl #14
     f7c:	00054a00 	andeq	r4, r5, r0, lsl #20
     f80:	02780300 	rsbseq	r0, r8, #0, 6
     f84:	0cdc0b18 	vldmiaeq	ip, {d16-d27}
     f88:	054a0000 	strbeq	r0, [sl, #-0]
     f8c:	79030000 	stmdbvc	r3, {}	; <UNPREDICTABLE>
     f90:	e10b1c02 	tst	fp, r2, lsl #24
     f94:	ce00000c 	cdpgt	0, 0, cr0, cr0, cr12, {0}
     f98:	03000007 	movweq	r0, #7
     f9c:	0020027a 	eoreq	r0, r0, sl, ror r2
     fa0:	00054a0c 	andeq	r4, r5, ip, lsl #20
     fa4:	056d0d00 	strbeq	r0, [sp, #-3328]!	; 0xfffff300
     fa8:	00020000 	andeq	r0, r2, r0
     fac:	0007df08 	andeq	sp, r7, r8, lsl #30
     fb0:	07eb0900 	strbeq	r0, [fp, r0, lsl #18]!
     fb4:	0d170000 	ldceq	0, cr0, [r7, #-0]
     fb8:	89030000 	stmdbhi	r3, {}	; <UNPREDICTABLE>
     fbc:	03240a02 			; <UNDEFINED> instruction: 0x03240a02
     fc0:	f20b0281 	vhsub.s8	d0, d27, d1
     fc4:	4a00000c 	bmi	ffc <__Vectors_Size+0xe04>
     fc8:	03000005 	movweq	r0, #5
     fcc:	0b000283 	bleq	19e0 <__Vectors_Size+0x17e8>
     fd0:	00000cf9 	strdeq	r0, [r0], -r9
     fd4:	0000054a 	andeq	r0, r0, sl, asr #10
     fd8:	04028403 	streq	r8, [r2], #-1027	; 0xfffffbfd
     fdc:	000cfd0b 	andeq	pc, ip, fp, lsl #26
     fe0:	00083f00 	andeq	r3, r8, r0, lsl #30
     fe4:	02850300 	addeq	r0, r5, #0, 6
     fe8:	0d040b08 	vstreq	d0, [r4, #-32]	; 0xffffffe0
     fec:	054f0000 	strbeq	r0, [pc, #-0]	; ff4 <__Vectors_Size+0xdfc>
     ff0:	86030000 	strhi	r0, [r3], -r0
     ff4:	0d0b1802 	stceq	8, cr1, [fp, #-8]
     ff8:	4a00000d 	bmi	1034 <__Vectors_Size+0xe3c>
     ffc:	03000005 	movweq	r0, #5
    1000:	0b1c0287 	bleq	701a24 <__Vectors_Size+0x70182c>
    1004:	00000d11 	andeq	r0, r0, r1, lsl sp
    1008:	0000054a 	andeq	r0, r0, sl, asr #10
    100c:	20028803 	andcs	r8, r2, r3, lsl #16
    1010:	054a0c00 	strbeq	r0, [sl, #-3072]	; 0xfffff400
    1014:	6d0d0000 	stcvs	0, cr0, [sp, #-0]
    1018:	04000005 	streq	r0, [r0], #-5
    101c:	08560400 	ldmdaeq	r6, {sl}^
    1020:	0d2a0000 	stceq	0, cr0, [sl, #-0]
    1024:	3a010000 	bcc	4102c <__Vectors_Size+0x40e34>
    1028:	000d2605 	andeq	r2, sp, r5, lsl #12
    102c:	08040500 	stmdaeq	r4, {r8, sl}
    1030:	00000862 	andeq	r0, r0, r2, ror #16
    1034:	00086e09 	andeq	r6, r8, r9, lsl #28
    1038:	000d5300 	andeq	r5, sp, r0, lsl #6
    103c:	01b90400 			; <UNDEFINED> instruction: 0x01b90400
    1040:	040e040f 	streq	r0, [lr], #-1039	; 0xfffffbf1
    1044:	320b01aa 	andcc	r0, fp, #-2147483606	; 0x8000002a
    1048:	2700000d 	strcs	r0, [r0, -sp]
    104c:	04000009 	streq	r0, [r0], #-9
    1050:	0b0001ac 	bleq	1708 <__Vectors_Size+0x1510>
    1054:	00000b00 	andeq	r0, r0, r0, lsl #22
    1058:	00000933 	andeq	r0, r0, r3, lsr r9
    105c:	2001ad04 	andcs	sl, r1, r4, lsl #26
    1060:	000d370b 	andeq	r3, sp, fp, lsl #14
    1064:	00092700 	andeq	r2, r9, r0, lsl #14
    1068:	01ae0400 			; <UNDEFINED> instruction: 0x01ae0400
    106c:	0b1c0b80 	bleq	703e74 <__Vectors_Size+0x703c7c>
    1070:	09330000 	ldmdbeq	r3!, {}	; <UNPREDICTABLE>
    1074:	af040000 	svcge	0x00040000
    1078:	3c10a001 	ldccc	0, cr10, [r0], {1}
    107c:	2700000d 	strcs	r0, [r0, -sp]
    1080:	04000009 	streq	r0, [r0], #-9
    1084:	010001b0 			; <UNDEFINED> instruction: 0x010001b0
    1088:	000b5210 	andeq	r5, fp, r0, lsl r2
    108c:	00093300 	andeq	r3, r9, r0, lsl #6
    1090:	01b10400 			; <UNDEFINED> instruction: 0x01b10400
    1094:	41100120 	tstmi	r0, r0, lsr #2
    1098:	2700000d 	strcs	r0, [r0, -sp]
    109c:	04000009 	streq	r0, [r0], #-9
    10a0:	018001b2 			; <UNDEFINED> instruction: 0x018001b2
    10a4:	000b6c10 	andeq	r6, fp, r0, lsl ip
    10a8:	00093300 	andeq	r3, r9, r0, lsl #6
    10ac:	01b30400 			; <UNDEFINED> instruction: 0x01b30400
    10b0:	461001a0 	ldrmi	r0, [r0], -r0, lsr #3
    10b4:	2700000d 	strcs	r0, [r0, -sp]
    10b8:	04000009 	streq	r0, [r0], #-9
    10bc:	020001b4 	andeq	r0, r0, #180, 2	; 0x2d
    10c0:	000b9410 	andeq	r9, fp, r0, lsl r4
    10c4:	00093f00 	andeq	r3, r9, r0, lsl #30
    10c8:	01b50400 			; <UNDEFINED> instruction: 0x01b50400
    10cc:	4b100220 	blmi	401954 <__Vectors_Size+0x40175c>
    10d0:	4b00000d 	blmi	110c <__Vectors_Size+0xf14>
    10d4:	04000009 	streq	r0, [r0], #-9
    10d8:	030001b6 	movweq	r0, #438	; 0x1b6
    10dc:	000bb210 	andeq	fp, fp, r0, lsl r2
    10e0:	00095700 	andeq	r5, r9, r0, lsl #14
    10e4:	01b70400 			; <UNDEFINED> instruction: 0x01b70400
    10e8:	4e1003f0 	mrcmi	3, 0, r0, cr0, cr0, {7}
    10ec:	4a00000d 	bmi	1128 <__Vectors_Size+0xf30>
    10f0:	04000005 	streq	r0, [r0], #-5
    10f4:	0e0001b8 	mcreq	1, 0, r0, cr0, cr8, {5}
    10f8:	054a0c00 	strbeq	r0, [sl, #-3072]	; 0xfffff400
    10fc:	6d0d0000 	stcvs	0, cr0, [sp, #-0]
    1100:	08000005 	stmdaeq	r0, {r0, r2}
    1104:	054f0c00 	strbeq	r0, [pc, #-3072]	; 50c <__Vectors_Size+0x314>
    1108:	6d0d0000 	stcvs	0, cr0, [sp, #-0]
    110c:	18000005 	stmdane	r0, {r0, r2}
    1110:	054f0c00 	strbeq	r0, [pc, #-3072]	; 518 <__Vectors_Size+0x320>
    1114:	6d0d0000 	stcvs	0, cr0, [sp, #-0]
    1118:	38000005 	stmdacc	r0, {r0, r2}
    111c:	00370c00 	eorseq	r0, r7, r0, lsl #24
    1120:	6d0d0000 	stcvs	0, cr0, [sp, #-0]
    1124:	f0000005 			; <UNDEFINED> instruction: 0xf0000005
    1128:	054f0c00 	strbeq	r0, [pc, #-3072]	; 530 <__Vectors_Size+0x338>
    112c:	6d110000 	ldcvs	0, cr0, [r1, #-0]
    1130:	84000005 	strhi	r0, [r0], #-5
    1134:	69080002 	stmdbvs	r8, {r1}
    1138:	09000009 	stmdbeq	r0, {r0, r3}
    113c:	00000975 	andeq	r0, r0, r5, ror r9
    1140:	00000e7f 	andeq	r0, r0, pc, ror lr
    1144:	0f020104 	svceq	0x00020104
    1148:	cc0402ac 	sfmgt	f0, 4, [r4], {172}	; 0xac
    114c:	0d5d0b01 	vldreq	d16, [sp, #-4]
    1150:	0c2c0000 	stceq	0, cr0, [ip], #-0
    1154:	ce040000 	cdpgt	0, 0, cr0, cr4, cr0, {0}
    1158:	630b0001 	movwvs	r0, #45057	; 0xb001
    115c:	4a00000d 	bmi	1198 <__Vectors_Size+0xfa0>
    1160:	04000005 	streq	r0, [r0], #-5
    1164:	0b0401cf 	bleq	1018a8 <__Vectors_Size+0x1016b0>
    1168:	00000d68 	andeq	r0, r0, r8, ror #26
    116c:	0000054a 	andeq	r0, r0, sl, asr #10
    1170:	0801d004 	stmdaeq	r1, {r2, ip, lr, pc}
    1174:	000d6d0b 	andeq	r6, sp, fp, lsl #26
    1178:	00054a00 	andeq	r4, r5, r0, lsl #20
    117c:	01d10400 	bicseq	r0, r1, r0, lsl #8
    1180:	0d730b0c 	vldmdbeq	r3!, {d16-d21}
    1184:	054a0000 	strbeq	r0, [sl, #-0]
    1188:	d2040000 	andle	r0, r4, #0
    118c:	770b1001 	strvc	r1, [fp, -r1]
    1190:	4a00000d 	bmi	11cc <__Vectors_Size+0xfd4>
    1194:	04000005 	streq	r0, [r0], #-5
    1198:	0b1401d3 	bleq	5018ec <__Vectors_Size+0x5016f4>
    119c:	00000d7b 	andeq	r0, r0, fp, ror sp
    11a0:	00000c31 	andeq	r0, r0, r1, lsr ip
    11a4:	1801d404 	stmdane	r1, {r2, sl, ip, lr, pc}
    11a8:	000d800b 	andeq	r8, sp, fp
    11ac:	00054a00 	andeq	r4, r5, r0, lsl #20
    11b0:	01d50400 	bicseq	r0, r5, r0, lsl #8
    11b4:	0d860b24 	vstreq	d0, [r6, #144]	; 0x90
    11b8:	054a0000 	strbeq	r0, [sl, #-0]
    11bc:	d6040000 	strle	r0, [r4], -r0
    11c0:	8b0b2801 	blhi	2cb1cc <__Vectors_Size+0x2cafd4>
    11c4:	4a00000d 	bmi	1200 <__Vectors_Size+0x1008>
    11c8:	04000005 	streq	r0, [r0], #-5
    11cc:	0b2c01d7 	bleq	b01930 <__Vectors_Size+0xb01738>
    11d0:	00000d90 	muleq	r0, r0, sp
    11d4:	0000054a 	andeq	r0, r0, sl, asr #10
    11d8:	3001d804 	andcc	sp, r1, r4, lsl #16
    11dc:	000d950b 	andeq	r9, sp, fp, lsl #10
    11e0:	00054a00 	andeq	r4, r5, r0, lsl #20
    11e4:	01d90400 	bicseq	r0, r9, r0, lsl #8
    11e8:	0d9b0b34 	vldreq	d0, [fp, #208]	; 0xd0
    11ec:	054a0000 	strbeq	r0, [sl, #-0]
    11f0:	da040000 	ble	1011f8 <__Vectors_Size+0x101000>
    11f4:	a00b3801 	andge	r3, fp, r1, lsl #16
    11f8:	4a00000d 	bmi	1234 <__Vectors_Size+0x103c>
    11fc:	04000005 	streq	r0, [r0], #-5
    1200:	0b3c01db 	bleq	f01974 <__Vectors_Size+0xf0177c>
    1204:	00000da5 	andeq	r0, r0, r5, lsr #27
    1208:	00000c3d 	andeq	r0, r0, sp, lsr ip
    120c:	4001dc04 	andmi	sp, r1, r4, lsl #24
    1210:	000dac0b 	andeq	sl, sp, fp, lsl #24
    1214:	000c2c00 	andeq	r2, ip, r0, lsl #24
    1218:	01dd0400 	bicseq	r0, sp, r0, lsl #8
    121c:	0db30b48 			; <UNDEFINED> instruction: 0x0db30b48
    1220:	0c2c0000 	stceq	0, cr0, [ip], #-0
    1224:	de040000 	cdple	0, 0, cr0, cr4, cr0, {0}
    1228:	ba0b4c01 	blt	2d4234 <__Vectors_Size+0x2d403c>
    122c:	4900000d 	stmdbmi	r0, {r0, r2, r3}
    1230:	0400000c 	streq	r0, [r0], #-12
    1234:	0b5001df 	bleq	14019b8 <__Vectors_Size+0x14017c0>
    1238:	00000dc1 	andeq	r0, r0, r1, asr #27
    123c:	00000c55 	andeq	r0, r0, r5, asr ip
    1240:	6001e004 	andvs	lr, r1, r4
    1244:	000b000b 	andeq	r0, fp, fp
    1248:	000c6100 	andeq	r6, ip, r0, lsl #2
    124c:	01e10400 	mvneq	r0, r0, lsl #8
    1250:	0dc90b74 	vstreq	d16, [r9, #464]	; 0x1d0
    1254:	0c2c0000 	stceq	0, cr0, [ip], #-0
    1258:	e2040000 	and	r0, r4, #0
    125c:	cf0b7801 	svcgt	0x000b7801
    1260:	2c00000d 	stccs	0, cr0, [r0], {13}
    1264:	0400000c 	streq	r0, [r0], #-12
    1268:	0b7c01e3 	bleq	1f019fc <__Vectors_Size+0x1f01804>
    126c:	00000dd3 	ldrdeq	r0, [r0], -r3
    1270:	00000c2c 	andeq	r0, r0, ip, lsr #24
    1274:	8001e404 	andhi	lr, r1, r4, lsl #8
    1278:	000dda0b 	andeq	sp, sp, fp, lsl #20
    127c:	00054a00 	andeq	r4, r5, r0, lsl #20
    1280:	01e50400 	mvneq	r0, r0, lsl #8
    1284:	0de10b84 			; <UNDEFINED> instruction: 0x0de10b84
    1288:	054a0000 	strbeq	r0, [sl, #-0]
    128c:	e6040000 	str	r0, [r4], -r0
    1290:	6c0b8801 	stcvs	8, cr8, [fp], {1}
    1294:	6d00000b 	stcvs	0, cr0, [r0, #-44]	; 0xffffffd4
    1298:	0400000c 	streq	r0, [r0], #-12
    129c:	108c01e7 	addne	r0, ip, r7, ror #3
    12a0:	00000d4e 	andeq	r0, r0, lr, asr #26
    12a4:	0000054a 	andeq	r0, r0, sl, asr #10
    12a8:	0001e804 	andeq	lr, r1, r4, lsl #16
    12ac:	0b941002 	bleq	fe5052bc <__initial_sp+0xde4e1414>
    12b0:	0c790000 	ldcleq	0, cr0, [r9], #-0
    12b4:	e9040000 	stmdb	r4, {}	; <UNPREDICTABLE>
    12b8:	10020401 	andne	r0, r2, r1, lsl #8
    12bc:	00000de7 	andeq	r0, r0, r7, ror #27
    12c0:	00000c2c 	andeq	r0, r0, ip, lsr #24
    12c4:	4001ea04 	andmi	lr, r1, r4, lsl #20
    12c8:	0ded1002 	stcleq	0, cr1, [sp, #8]!
    12cc:	0c2c0000 	stceq	0, cr0, [ip], #-0
    12d0:	eb040000 	bl	1012d8 <__Vectors_Size+0x1010e0>
    12d4:	10024401 	andne	r4, r2, r1, lsl #8
    12d8:	00000df3 	strdeq	r0, [r0], -r3
    12dc:	00000c2c 	andeq	r0, r0, ip, lsr #24
    12e0:	4801ec04 	stmdami	r1, {r2, sl, fp, sp, lr, pc}
    12e4:	0bb21002 	bleq	fec852f4 <__initial_sp+0xdec6144c>
    12e8:	0c610000 	stcleq	0, cr0, [r1], #-0
    12ec:	ed040000 	stc	0, cr0, [r4, #-0]
    12f0:	10024c01 	andne	r4, r2, r1, lsl #24
    12f4:	00000df9 	strdeq	r0, [r0], -r9
    12f8:	0000054a 	andeq	r0, r0, sl, asr #10
    12fc:	5001ee04 	andpl	lr, r1, r4, lsl #28
    1300:	0bc51002 	bleq	ff145310 <__initial_sp+0xdf121468>
    1304:	0c610000 	stcleq	0, cr0, [r1], #-0
    1308:	ef040000 	svc	0x00040000
    130c:	10025401 	andne	r5, r2, r1, lsl #8
    1310:	00000e01 	andeq	r0, r0, r1, lsl #28
    1314:	0000054a 	andeq	r0, r0, sl, asr #10
    1318:	5801f004 	stmdapl	r1, {r2, ip, sp, lr, pc}
    131c:	0e091002 	cdpeq	0, 0, cr1, cr9, cr2, {0}
    1320:	054a0000 	strbeq	r0, [sl, #-0]
    1324:	f1040000 	cps	#0
    1328:	10025c01 	andne	r5, r2, r1, lsl #24
    132c:	00000e11 	andeq	r0, r0, r1, lsl lr
    1330:	0000054a 	andeq	r0, r0, sl, asr #10
    1334:	6001f204 	andvs	pc, r1, r4, lsl #4
    1338:	0e171002 	cdpeq	0, 1, cr1, cr7, cr2, {0}
    133c:	054a0000 	strbeq	r0, [sl, #-0]
    1340:	f3040000 	vhadd.u8	d0, d4, d0
    1344:	10026401 	andne	r6, r2, r1, lsl #8
    1348:	00000e1f 	andeq	r0, r0, pc, lsl lr
    134c:	0000054a 	andeq	r0, r0, sl, asr #10
    1350:	6801f404 	stmdavs	r1, {r2, sl, ip, sp, lr, pc}
    1354:	0e271002 	cdpeq	0, 2, cr1, cr7, cr2, {0}
    1358:	054a0000 	strbeq	r0, [sl, #-0]
    135c:	f5040000 			; <UNDEFINED> instruction: 0xf5040000
    1360:	10026c01 	andne	r6, r2, r1, lsl #24
    1364:	00000e2d 	andeq	r0, r0, sp, lsr #28
    1368:	0000054a 	andeq	r0, r0, sl, asr #10
    136c:	7001f604 	andvc	pc, r1, r4, lsl #12
    1370:	0e361002 	cdpeq	0, 3, cr1, cr6, cr2, {0}
    1374:	054a0000 	strbeq	r0, [sl, #-0]
    1378:	f7040000 			; <UNDEFINED> instruction: 0xf7040000
    137c:	10027401 	andne	r7, r2, r1, lsl #8
    1380:	00000e3d 	andeq	r0, r0, sp, lsr lr
    1384:	0000054a 	andeq	r0, r0, sl, asr #10
    1388:	7801f804 	stmdavc	r1, {r2, fp, ip, sp, lr, pc}
    138c:	0e441002 	cdpeq	0, 4, cr1, cr4, cr2, {0}
    1390:	0c850000 	stceq	0, cr0, [r5], {0}
    1394:	f9040000 			; <UNDEFINED> instruction: 0xf9040000
    1398:	10027c01 	andne	r7, r2, r1, lsl #24
    139c:	00000e4e 	andeq	r0, r0, lr, asr #28
    13a0:	0000054a 	andeq	r0, r0, sl, asr #10
    13a4:	9001fa04 	andls	pc, r1, r4, lsl #20
    13a8:	0e551002 	cdpeq	0, 5, cr1, cr5, cr2, {0}
    13ac:	054a0000 	strbeq	r0, [sl, #-0]
    13b0:	fb040000 	blx	1013ba <__Vectors_Size+0x1011c2>
    13b4:	10029401 	andne	r9, r2, r1, lsl #8
    13b8:	00000e5c 	andeq	r0, r0, ip, asr lr
    13bc:	0000054a 	andeq	r0, r0, sl, asr #10
    13c0:	9801fc04 	stmdals	r1, {r2, sl, fp, ip, sp, lr, pc}
    13c4:	0e631002 	cdpeq	0, 6, cr1, cr3, cr2, {0}
    13c8:	054a0000 	strbeq	r0, [sl, #-0]
    13cc:	fd040000 	stc2	0, cr0, [r4, #-0]
    13d0:	10029c01 	andne	r9, r2, r1, lsl #24
    13d4:	00000e68 	andeq	r0, r0, r8, ror #28
    13d8:	0000054a 	andeq	r0, r0, sl, asr #10
    13dc:	a001fe04 	andge	pc, r1, r4, lsl #28
    13e0:	0e6f1002 	cdpeq	0, 6, cr1, cr15, cr2, {0}
    13e4:	0c610000 	stcleq	0, cr0, [r1], #-0
    13e8:	ff040000 			; <UNDEFINED> instruction: 0xff040000
    13ec:	1002a401 	andne	sl, r2, r1, lsl #8
    13f0:	00000e79 	andeq	r0, r0, r9, ror lr
    13f4:	0000054a 	andeq	r0, r0, sl, asr #10
    13f8:	a8020004 	stmdage	r2, {r2}
    13fc:	4a120002 	bmi	48140c <__Vectors_Size+0x481214>
    1400:	0c000005 	stceq	0, cr0, [r0], {5}
    1404:	00000037 	andeq	r0, r0, r7, lsr r0
    1408:	00056d0d 	andeq	r6, r5, sp, lsl #26
    140c:	0c000c00 	stceq	12, cr0, [r0], {-0}
    1410:	00000c2c 	andeq	r0, r0, ip, lsr #24
    1414:	00056d0d 	andeq	r6, r5, sp, lsl #26
    1418:	0c000200 	sfmeq	f0, 4, [r0], {-0}
    141c:	00000c2c 	andeq	r0, r0, ip, lsr #24
    1420:	00056d0d 	andeq	r6, r5, sp, lsl #26
    1424:	0c000400 	cfstrseq	mvf0, [r0], {-0}
    1428:	00000c2c 	andeq	r0, r0, ip, lsr #24
    142c:	00056d0d 	andeq	r6, r5, sp, lsl #26
    1430:	0c000500 	cfstr32eq	mvfx0, [r0], {-0}
    1434:	0000054f 	andeq	r0, r0, pc, asr #10
    1438:	00056d0d 	andeq	r6, r5, sp, lsl #26
    143c:	0c000100 	stfeqs	f0, [r0], {-0}
    1440:	0000054f 	andeq	r0, r0, pc, asr #10
    1444:	00056d0d 	andeq	r6, r5, sp, lsl #26
    1448:	0c005d00 	stceq	13, cr5, [r0], {-0}
    144c:	0000054f 	andeq	r0, r0, pc, asr #10
    1450:	00056d0d 	andeq	r6, r5, sp, lsl #26
    1454:	0c000f00 	stceq	15, cr0, [r0], {-0}
    1458:	0000054f 	andeq	r0, r0, pc, asr #10
    145c:	00056d0d 	andeq	r6, r5, sp, lsl #26
    1460:	13000500 	movwne	r0, #1280	; 0x500
    1464:	080014c8 	stmdaeq	r0, {r3, r6, r7, sl, ip}
    1468:	00000020 	andeq	r0, r0, r0, lsr #32
    146c:	0e885d01 	cdpeq	13, 8, cr5, cr8, cr1, {0}
    1470:	57020000 	strpl	r0, [r2, -r0]
    1474:	0014e814 	andseq	lr, r4, r4, lsl r8
    1478:	00011208 	andeq	r1, r1, r8, lsl #4
    147c:	955d0100 	ldrbls	r0, [sp, #-256]	; 0xffffff00
    1480:	0200000e 	andeq	r0, r0, #14
    1484:	16001417 			; <UNDEFINED> instruction: 0x16001417
    1488:	00480800 	subeq	r0, r8, r0, lsl #16
    148c:	5d010000 	stcpl	0, cr0, [r1, #-0]
    1490:	00000ea6 	andeq	r0, r0, r6, lsr #29
    1494:	68143a02 	ldmdavs	r4, {r1, r9, fp, ip, sp}
    1498:	5a080016 	bpl	2014f8 <__Vectors_Size+0x201300>
    149c:	01000000 	mrseq	r0, (UNDEF: 0)
    14a0:	000ebd5d 	andeq	fp, lr, sp, asr sp
    14a4:	13480200 	movtne	r0, #33280	; 0x8200
    14a8:	080019f0 	stmdaeq	r0, {r4, r5, r6, r7, r8, fp, ip}
    14ac:	0000003c 	andeq	r0, r0, ip, lsr r0
    14b0:	0ecf5d01 	cdpeq	13, 12, cr5, cr15, cr1, {0}
    14b4:	62020000 	andvs	r0, r2, #0
    14b8:	001a3013 	andseq	r3, sl, r3, lsl r0
    14bc:	00003c08 	andeq	r3, r0, r8, lsl #24
    14c0:	e45d0100 	ldrb	r0, [sp], #-256	; 0xffffff00
    14c4:	0200000e 	andeq	r0, r0, #14
    14c8:	1aa8136d 	bne	fea06284 <__initial_sp+0xde9e23dc>
    14cc:	00320800 	eorseq	r0, r2, r0, lsl #16
    14d0:	5d010000 	stcpl	0, cr0, [r1, #-0]
    14d4:	00000ef5 	strdeq	r0, [r0], -r5
    14d8:	70137802 	andsvc	r7, r3, r2, lsl #16
    14dc:	3208001a 	andcc	r0, r8, #26
    14e0:	01000000 	mrseq	r0, (UNDEF: 0)
    14e4:	000f065d 	andeq	r0, pc, sp, asr r6	; <UNPREDICTABLE>
    14e8:	13820200 	orrne	r0, r2, #0, 4
    14ec:	08001648 	stmdaeq	r0, {r3, r6, r9, sl, ip}
    14f0:	0000001a 	andeq	r0, r0, sl, lsl r0
    14f4:	0f175d01 	svceq	0x00175d01
    14f8:	8c020000 	stchi	0, cr0, [r2], {-0}
    14fc:	00284813 	eoreq	r4, r8, r3, lsl r8
    1500:	0000ca08 	andeq	ip, r0, r8, lsl #20
    1504:	285d0100 	ldmdacs	sp, {r8}^
    1508:	0200000f 	andeq	r0, r0, #15
    150c:	2aa81592 	bcs	fea06b5c <__initial_sp+0xde9e2cb4>
    1510:	00420800 	subeq	r0, r2, r0, lsl #16
    1514:	5d010000 	stcpl	0, cr0, [r1, #-0]
    1518:	00000f38 	andeq	r0, r0, r8, lsr pc
    151c:	1607f904 	strne	pc, [r7], -r4, lsl #18
    1520:	5c079102 	stfpld	f1, [r7], {2}
    1524:	0400000f 	streq	r0, [r0], #-15
    1528:	0d8e07f9 	stceq	7, cr0, [lr, #996]	; 0x3e4
    152c:	02160000 	andseq	r0, r6, #0
    1530:	0f6b0091 	svceq	0x006b0091
    1534:	f9040000 			; <UNDEFINED> instruction: 0xf9040000
    1538:	00054f07 	andeq	r4, r5, r7, lsl #30
    153c:	78150000 	ldmdavc	r5, {}	; <UNPREDICTABLE>
    1540:	3008002a 	andcc	r0, r8, sl, lsr #32
    1544:	01000000 	mrseq	r0, (UNDEF: 0)
    1548:	000f4b5d 	andeq	r4, pc, sp, asr fp	; <UNPREDICTABLE>
    154c:	07770400 	ldrbeq	r0, [r7, -r0, lsl #8]!
    1550:	03910216 	orrseq	r0, r1, #1610612737	; 0x60000001
    1554:	00000f5c 	andeq	r0, r0, ip, asr pc
    1558:	8e077704 	cdphi	7, 0, cr7, cr7, cr4, {0}
    155c:	0000000d 	andeq	r0, r0, sp
    1560:	00009204 	andeq	r9, r0, r4, lsl #4
    1564:	000f6100 	andeq	r6, pc, r0, lsl #2
    1568:	00a80300 	adceq	r0, r8, r0, lsl #6
    156c:	00000b44 	andeq	r0, r0, r4, asr #22
    1570:	021e0004 	andseq	r0, lr, #4
    1574:	01040000 	mrseq	r0, (UNDEF: 4)
    1578:	00000f74 	andeq	r0, r0, r4, ror pc
    157c:	0fb8000c 	svceq	0x00b8000c
    1580:	06710000 	ldrbteq	r0, [r1], -r0
    1584:	0fc10000 	svceq	0x00c10000
    1588:	00000000 	andeq	r0, r0, r0
    158c:	00800000 	addeq	r0, r0, r0
    1590:	e5020000 	str	r0, [r2, #-0]
    1594:	3300000f 	movwcc	r0, #15
    1598:	02000000 	andeq	r0, r0, #0
    159c:	031f010f 	tsteq	pc, #-1073741821	; 0xc0000003
    15a0:	00000038 	andeq	r0, r0, r8, lsr r0
    15a4:	00004304 	andeq	r4, r0, r4, lsl #6
    15a8:	00100a00 	andseq	r0, r0, r0, lsl #20
    15ac:	053e0100 	ldreq	r0, [lr, #-256]!	; 0xffffff00
    15b0:	00000ffc 	strdeq	r0, [r0], -ip
    15b4:	12020108 	andne	r0, r2, #8, 2
    15b8:	33000010 	movwcc	r0, #16
    15bc:	02000000 	andeq	r0, r0, #0
    15c0:	027f0110 	rsbseq	r0, pc, #16, 2
    15c4:	00001029 	andeq	r1, r0, r9, lsr #32
    15c8:	00000033 	andeq	r0, r0, r3, lsr r0
    15cc:	20011102 	andcs	r1, r1, r2, lsl #2
    15d0:	00103d06 	andseq	r3, r0, r6, lsl #26
    15d4:	00007500 	andeq	r7, r0, r0, lsl #10
    15d8:	05300200 	ldreq	r0, [r0, #-512]!	; 0xfffffe00
    15dc:	02348b03 	eorseq	r8, r4, #3072	; 0xc00
    15e0:	00380720 	eorseq	r0, r8, r0, lsr #14
    15e4:	82080000 	andhi	r0, r8, #0
    15e8:	00000000 	andeq	r0, r0, r0
    15ec:	4b090004 	blmi	241604 <__Vectors_Size+0x24140c>
    15f0:	08000010 	stmdaeq	r0, {r4}
    15f4:	00430a07 	subeq	r0, r3, r7, lsl #20
    15f8:	107d0000 	rsbsne	r0, sp, r0
    15fc:	02010000 	andeq	r0, r1, #0
    1600:	105f0b29 	subsne	r0, pc, r9, lsr #22
    1604:	01800000 	orreq	r0, r0, r0
    1608:	0010650b 	andseq	r6, r0, fp, lsl #10
    160c:	6c0b4000 	stcvs	0, cr4, [fp], {-0}
    1610:	08000010 	stmdaeq	r0, {r4}
    1614:	00430a00 	subeq	r0, r3, r0, lsl #20
    1618:	119f0000 	orrsne	r0, pc, r0
    161c:	02010000 	andeq	r0, r1, #0
    1620:	108f0b0f 	addne	r0, pc, pc, lsl #22
    1624:	0b020000 	bleq	8162c <__Vectors_Size+0x81434>
    1628:	00001097 	muleq	r0, r7, r0
    162c:	109f0b10 	addsne	r0, pc, r0, lsl fp	; <UNPREDICTABLE>
    1630:	01b00000 	movseq	r0, r0
    1634:	0010a60b 	andseq	sl, r0, fp, lsl #12
    1638:	0b01ae00 	bleq	6ce40 <__Vectors_Size+0x6cc48>
    163c:	000010b2 	strheq	r1, [r0], -r2
    1640:	bd0b01af 	stflts	f0, [fp, #-700]	; 0xfffffd44
    1644:	d5000010 	strle	r0, [r0, #-16]
    1648:	10c90b01 	sbcne	r0, r9, r1, lsl #22
    164c:	01a80000 			; <UNDEFINED> instruction: 0x01a80000
    1650:	0010d40b 	andseq	sp, r0, fp, lsl #8
    1654:	0b01d300 	bleq	7625c <__Vectors_Size+0x76064>
    1658:	000010e3 	andeq	r1, r0, r3, ror #1
    165c:	10f50b40 	rscsne	r0, r5, r0, asr #22
    1660:	01ad0000 			; <UNDEFINED> instruction: 0x01ad0000
    1664:	0010fe0b 	andseq	pc, r0, fp, lsl #28
    1668:	0b01a100 	bleq	69a70 <__Vectors_Size+0x69878>
    166c:	0000110a 	andeq	r1, r0, sl, lsl #2
    1670:	1f0b01c8 	svcne	0x000b01c8
    1674:	da000011 	ble	16c0 <__Vectors_Size+0x14c8>
    1678:	112c0b01 			; <UNDEFINED> instruction: 0x112c0b01
    167c:	01810000 	orreq	r0, r1, r0
    1680:	0011390b 	andseq	r3, r1, fp, lsl #18
    1684:	0b01d900 	bleq	77a8c <__Vectors_Size+0x77894>
    1688:	00001147 	andeq	r1, r0, r7, asr #2
    168c:	500b01db 	ldrdpl	r0, [fp], -fp
    1690:	40000011 	andmi	r0, r0, r1, lsl r0
    1694:	00115b0b 	andseq	r5, r1, fp, lsl #22
    1698:	0b01a600 	bleq	6aea0 <__Vectors_Size+0x6aca8>
    169c:	0000116a 	andeq	r1, r0, sl, ror #2
    16a0:	7a0b01a7 	bvc	2c1d44 <__Vectors_Size+0x2c1b4c>
    16a4:	a4000011 	strge	r0, [r0], #-17	; 0xffffffef
    16a8:	118d0b01 	orrne	r0, sp, r1, lsl #22
    16ac:	01a50000 			; <UNDEFINED> instruction: 0x01a50000
    16b0:	014a0c00 	cmpeq	sl, r0, lsl #24
    16b4:	560d0000 	strpl	r0, [sp], -r0
    16b8:	f6000001 			; <UNDEFINED> instruction: 0xf6000001
    16bc:	03000011 	movweq	r0, #17
    16c0:	280e027b 	stmdacs	lr, {r0, r1, r3, r4, r5, r6, r9}
    16c4:	0f027003 	svceq	0x00027003
    16c8:	000011af 	andeq	r1, r0, pc, lsr #3
    16cc:	000001d1 	ldrdeq	r0, [r0], -r1
    16d0:	00027203 	andeq	r7, r2, r3, lsl #4
    16d4:	0011cb0f 	andseq	ip, r1, pc, lsl #22
    16d8:	0001d100 	andeq	sp, r1, r0, lsl #2
    16dc:	02730300 	rsbseq	r0, r3, #0, 6
    16e0:	11d20f04 	bicsne	r0, r2, r4, lsl #30
    16e4:	01d10000 	bicseq	r0, r1, r0
    16e8:	74030000 	strvc	r0, [r3], #-0
    16ec:	da0f0802 	ble	3c36fc <__Vectors_Size+0x3c3504>
    16f0:	d1000011 	tstle	r0, r1, lsl r0
    16f4:	03000001 	movweq	r0, #1
    16f8:	0f0c0275 	svceq	0x000c0275
    16fc:	000011e0 	andeq	r1, r0, r0, ror #3
    1700:	000001d1 	ldrdeq	r0, [r0], -r1
    1704:	10027603 	andne	r7, r2, r3, lsl #12
    1708:	0011e40f 	andseq	lr, r1, pc, lsl #8
    170c:	0001d100 	andeq	sp, r1, r0, lsl #2
    1710:	02770300 	rsbseq	r0, r7, #0, 6
    1714:	11e80f14 	mvnne	r0, r4, lsl pc
    1718:	01d10000 	bicseq	r0, r1, r0
    171c:	78030000 	stmdavc	r3, {}	; <UNPREDICTABLE>
    1720:	ed0f1802 	stc	8, cr1, [pc, #-8]	; 1720 <__Vectors_Size+0x1528>
    1724:	d1000011 	tstle	r0, r1, lsl r0
    1728:	03000001 	movweq	r0, #1
    172c:	0f1c0279 	svceq	0x001c0279
    1730:	000011f2 	strdeq	r1, [r0], -r2
    1734:	000001e8 	andeq	r0, r0, r8, ror #3
    1738:	20027a03 	andcs	r7, r2, r3, lsl #20
    173c:	01d61000 	bicseq	r1, r6, r0
    1740:	e1040000 	mrs	r0, (UNDEF: 4)
    1744:	c2000001 	andgt	r0, r0, #1
    1748:	01000011 	tsteq	r0, r1, lsl r0
    174c:	11b50540 			; <UNDEFINED> instruction: 0x11b50540
    1750:	04070000 	streq	r0, [r7], #-0
    1754:	0001d107 	andeq	sp, r1, r7, lsl #2
    1758:	00821100 	addeq	r1, r2, r0, lsl #2
    175c:	00020000 	andeq	r0, r2, r0
    1760:	0001f90c 	andeq	pc, r1, ip, lsl #18
    1764:	02050d00 	andeq	r0, r5, #0, 26
    1768:	12330000 	eorsne	r0, r3, #0
    176c:	9f030000 	svcls	0x00030000
    1770:	03240e03 			; <UNDEFINED> instruction: 0x03240e03
    1774:	030f0394 	movweq	r0, #62356	; 0xf394
    1778:	d1000012 	tstle	r0, r2, lsl r0
    177c:	03000001 	movweq	r0, #1
    1780:	0f000396 	svceq	0x00000396
    1784:	00001207 	andeq	r1, r0, r7, lsl #4
    1788:	000001d1 	ldrdeq	r0, [r0], -r1
    178c:	04039703 	streq	r9, [r3], #-1795	; 0xfffff8fd
    1790:	00120b0f 	andseq	r0, r2, pc, lsl #22
    1794:	0001d100 	andeq	sp, r1, r0, lsl #2
    1798:	03980300 	orrseq	r0, r8, #0, 6
    179c:	120e0f08 	andne	r0, lr, #8, 30
    17a0:	01d10000 	bicseq	r0, r1, r0
    17a4:	99030000 	stmdbls	r3, {}	; <UNPREDICTABLE>
    17a8:	110f0c03 	tstne	pc, r3, lsl #24
    17ac:	d1000012 	tstle	r0, r2, lsl r0
    17b0:	03000001 	movweq	r0, #1
    17b4:	0f10039a 	svceq	0x0010039a
    17b8:	00001217 	andeq	r1, r0, r7, lsl r2
    17bc:	000001d1 	ldrdeq	r0, [r0], -r1
    17c0:	14039b03 	strne	r9, [r3], #-2819	; 0xfffff4fd
    17c4:	00121e0f 	andseq	r1, r2, pc, lsl #28
    17c8:	0001d100 	andeq	sp, r1, r0, lsl #2
    17cc:	039c0300 	orrseq	r0, ip, #0, 6
    17d0:	12250f18 	eorne	r0, r5, #24, 30	; 0x60
    17d4:	01d10000 	bicseq	r0, r1, r0
    17d8:	9d030000 	stcls	0, cr0, [r3, #-0]
    17dc:	2d0f1c03 	stccs	12, cr1, [pc, #-12]	; 17d8 <__Vectors_Size+0x15e0>
    17e0:	d1000012 	tstle	r0, r2, lsl r0
    17e4:	03000001 	movweq	r0, #1
    17e8:	0020039e 	mlaeq	r0, lr, r3, r0
    17ec:	0002850c 	andeq	r8, r2, ip, lsl #10
    17f0:	00381000 	eorseq	r1, r8, r0
    17f4:	8f0c0000 	svchi	0x000c0000
    17f8:	0d000002 	stceq	0, cr0, [r0, #-8]
    17fc:	0000029b 	muleq	r0, fp, r2
    1800:	00001357 	andeq	r1, r0, r7, asr r3
    1804:	0e031103 	adfeqs	f1, f3, f3
    1808:	02ed0394 	rsceq	r0, sp, #148, 6	; 0x50000002
    180c:	00123f0f 	andseq	r3, r2, pc, lsl #30
    1810:	0001d100 	andeq	sp, r1, r0, lsl #2
    1814:	02ef0300 	rsceq	r0, pc, #0, 6
    1818:	12420f00 	subne	r0, r2, #0, 30
    181c:	01d10000 	bicseq	r0, r1, r0
    1820:	f0030000 			; <UNDEFINED> instruction: 0xf0030000
    1824:	4a0f0402 	bmi	3c2834 <__Vectors_Size+0x3c263c>
    1828:	d1000012 	tstle	r0, r2, lsl r0
    182c:	03000001 	movweq	r0, #1
    1830:	0f0802f1 	svceq	0x000802f1
    1834:	0000124f 	andeq	r1, r0, pc, asr #4
    1838:	000001d1 	ldrdeq	r0, [r0], -r1
    183c:	0c02f203 	sfmeq	f7, 1, [r2], {3}
    1840:	0012530f 	andseq	r5, r2, pc, lsl #6
    1844:	0001d100 	andeq	sp, r1, r0, lsl #2
    1848:	02f30300 	rscseq	r0, r3, #0, 6
    184c:	125c0f10 	subsne	r0, ip, #16, 30	; 0x40
    1850:	01d10000 	bicseq	r0, r1, r0
    1854:	f4030000 	vst4.8	{d0-d3}, [r3], r0
    1858:	650f1402 	strvs	r1, [pc, #-1026]	; 145e <__Vectors_Size+0x1266>
    185c:	d1000012 	tstle	r0, r2, lsl r0
    1860:	03000001 	movweq	r0, #1
    1864:	0f1802f5 	svceq	0x001802f5
    1868:	0000126e 	andeq	r1, r0, lr, ror #4
    186c:	000001d6 	ldrdeq	r0, [r0], -r6
    1870:	1c02f603 	stcne	6, cr15, [r2], {3}
    1874:	0012780f 	andseq	r7, r2, pc, lsl #16
    1878:	0001d100 	andeq	sp, r1, r0, lsl #2
    187c:	02f70300 	rscseq	r0, r7, #0, 6
    1880:	12810f20 	addne	r0, r1, #32, 30	; 0x80
    1884:	01d10000 	bicseq	r0, r1, r0
    1888:	f8030000 			; <UNDEFINED> instruction: 0xf8030000
    188c:	8a0f2402 	bhi	3ca89c <__Vectors_Size+0x3ca6a4>
    1890:	4e000012 	mcrmi	0, 0, r0, cr0, cr2, {0}
    1894:	03000004 	movweq	r0, #4
    1898:	0f2802f9 	svceq	0x002802f9
    189c:	00001294 	muleq	r0, r4, r2
    18a0:	000001d1 	ldrdeq	r0, [r0], -r1
    18a4:	3002fa03 	andcc	pc, r2, r3, lsl #20
    18a8:	00129c0f 	andseq	r9, r2, pc, lsl #24
    18ac:	0001d100 	andeq	sp, r1, r0, lsl #2
    18b0:	02fb0300 	rscseq	r0, fp, #0, 6
    18b4:	12a40f34 	adcne	r0, r4, #52, 30	; 0xd0
    18b8:	01d10000 	bicseq	r0, r1, r0
    18bc:	fc030000 	stc2	0, cr0, [r3], {-0}
    18c0:	ac0f3802 	stcge	8, cr3, [pc], {2}
    18c4:	d6000012 			; <UNDEFINED> instruction: 0xd6000012
    18c8:	03000001 	movweq	r0, #1
    18cc:	0f3c02fd 	svceq	0x003c02fd
    18d0:	000012b6 			; <UNDEFINED> instruction: 0x000012b6
    18d4:	000001d1 	ldrdeq	r0, [r0], -r1
    18d8:	4002fe03 	andmi	pc, r2, r3, lsl #28
    18dc:	0012be0f 	andseq	fp, r2, pc, lsl #28
    18e0:	0001d100 	andeq	sp, r1, r0, lsl #2
    18e4:	02ff0300 	rscseq	r0, pc, #0, 6
    18e8:	12c60f44 	sbcne	r0, r6, #68, 30	; 0x110
    18ec:	044e0000 	strbeq	r0, [lr], #-0
    18f0:	00030000 	andeq	r0, r3, r0
    18f4:	d00f4803 	andle	r4, pc, r3, lsl #16
    18f8:	d1000012 	tstle	r0, r2, lsl r0
    18fc:	03000001 	movweq	r0, #1
    1900:	0f500301 	svceq	0x00500301
    1904:	000012da 	ldrdeq	r1, [r0], -sl
    1908:	000001d1 	ldrdeq	r0, [r0], -r1
    190c:	54030203 	strpl	r0, [r3], #-515	; 0xfffffdfd
    1910:	0012e40f 	andseq	lr, r2, pc, lsl #8
    1914:	0001d100 	andeq	sp, r1, r0, lsl #2
    1918:	03030300 	movweq	r0, #13056	; 0x3300
    191c:	12ee0f58 	rscne	r0, lr, #88, 30	; 0x160
    1920:	01d60000 	bicseq	r0, r6, r0
    1924:	04030000 	streq	r0, [r3], #-0
    1928:	f80f5c03 			; <UNDEFINED> instruction: 0xf80f5c03
    192c:	d1000012 	tstle	r0, r2, lsl r0
    1930:	03000001 	movweq	r0, #1
    1934:	0f600305 	svceq	0x00600305
    1938:	00001302 	andeq	r1, r0, r2, lsl #6
    193c:	000001d1 	ldrdeq	r0, [r0], -r1
    1940:	64030603 	strvs	r0, [r3], #-1539	; 0xfffff9fd
    1944:	00130c0f 	andseq	r0, r3, pc, lsl #24
    1948:	00044e00 	andeq	r4, r4, r0, lsl #28
    194c:	03070300 	movweq	r0, #29440	; 0x7300
    1950:	13160f68 	tstne	r6, #104, 30	; 0x1a0
    1954:	01d10000 	bicseq	r0, r1, r0
    1958:	08030000 	stmdaeq	r3, {}	; <UNPREDICTABLE>
    195c:	1b0f7003 	blne	3dd970 <__Vectors_Size+0x3dd778>
    1960:	d1000013 	tstle	r0, r3, lsl r0
    1964:	03000001 	movweq	r0, #1
    1968:	0f740309 	svceq	0x00740309
    196c:	0000131f 	andeq	r1, r0, pc, lsl r3
    1970:	0000044e 	andeq	r0, r0, lr, asr #8
    1974:	78030a03 	stmdavc	r3, {r0, r1, r9, fp}
    1978:	0013290f 	andseq	r2, r3, pc, lsl #18
    197c:	0001d100 	andeq	sp, r1, r0, lsl #2
    1980:	030b0300 	movweq	r0, #45824	; 0xb300
    1984:	132f0f80 			; <UNDEFINED> instruction: 0x132f0f80
    1988:	01d10000 	bicseq	r0, r1, r0
    198c:	0c030000 	stceq	0, cr0, [r3], {-0}
    1990:	3a0f8403 	bcc	3e29a4 <__Vectors_Size+0x3e27ac>
    1994:	d1000013 	tstle	r0, r3, lsl r0
    1998:	03000001 	movweq	r0, #1
    199c:	0f88030d 	svceq	0x0088030d
    19a0:	00001345 	andeq	r1, r0, r5, asr #6
    19a4:	000001d1 	ldrdeq	r0, [r0], -r1
    19a8:	8c030e03 	stchi	14, cr0, [r3], {3}
    19ac:	00134e0f 	andseq	r4, r3, pc, lsl #28
    19b0:	0001d100 	andeq	sp, r1, r0, lsl #2
    19b4:	030f0300 	movweq	r0, #62208	; 0xf300
    19b8:	d6070090 			; <UNDEFINED> instruction: 0xd6070090
    19bc:	11000001 	tstne	r0, r1
    19c0:	00000082 	andeq	r0, r0, r2, lsl #1
    19c4:	30120002 	andscc	r0, r2, r2
    19c8:	64080025 	strvs	r0, [r8], #-37	; 0xffffffdb
    19cc:	01000000 	mrseq	r0, (UNDEF: 0)
    19d0:	0013635d 	andseq	r6, r3, sp, asr r3
    19d4:	13bb0200 			; <UNDEFINED> instruction: 0x13bb0200
    19d8:	08002536 	stmdaeq	r0, {r1, r2, r4, r5, r8, sl, sp}
    19dc:	0000005a 	andeq	r0, r0, sl, asr r0
    19e0:	04910214 	ldreq	r0, [r1], #532	; 0x214
    19e4:	00001498 	muleq	r0, r8, r4
    19e8:	0ad1bd02 	beq	ff470df8 <__initial_sp+0xdf44cf50>
    19ec:	5a130000 	bpl	4c19f4 <__Vectors_Size+0x4c17fc>
    19f0:	2c080025 	stccs	0, cr0, [r8], {37}	; 0x25
    19f4:	14000000 	strne	r0, [r0], #-0
    19f8:	9e009102 	mvflss	f1, f2
    19fc:	02000014 	andeq	r0, r0, #20
    1a00:	000ad1c2 	andeq	sp, sl, r2, asr #3
    1a04:	00000000 	andeq	r0, r0, r0
    1a08:	00259815 	eoreq	r9, r5, r5, lsl r8
    1a0c:	00003208 	andeq	r3, r0, r8, lsl #4
    1a10:	755d0100 	ldrbvc	r0, [sp, #-256]	; 0xffffff00
    1a14:	02000013 	andeq	r0, r0, #19
    1a18:	91021690 			; <UNDEFINED> instruction: 0x91021690
    1a1c:	0014a007 	andseq	sl, r4, r7
    1a20:	38900200 	ldmcc	r0, {r9}
    1a24:	00000000 	andeq	r0, r0, r0
    1a28:	0025d015 	eoreq	sp, r5, r5, lsl r0
    1a2c:	00003608 	andeq	r3, r0, r8, lsl #12
    1a30:	845d0100 	ldrbhi	r0, [sp], #-256	; 0xffffff00
    1a34:	02000013 	andeq	r0, r0, #19
    1a38:	910216ac 	smlatbls	r2, ip, r6, r1
    1a3c:	0014a40f 	andseq	sl, r4, pc, lsl #8
    1a40:	38ac0200 	stmiacc	ip!, {r9}
    1a44:	00000000 	andeq	r0, r0, r0
    1a48:	00262812 	eoreq	r2, r6, r2, lsl r8
    1a4c:	0000ae08 	andeq	sl, r0, r8, lsl #28
    1a50:	945d0100 	ldrbls	r0, [sp], #-256	; 0xffffff00
    1a54:	02000013 	andeq	r0, r0, #19
    1a58:	910216e0 	smlattls	r2, r0, r6, r1
    1a5c:	0014a80b 	andseq	sl, r4, fp, lsl #16
    1a60:	38e00200 	stmiacc	r0!, {r9}^
    1a64:	16000000 	strne	r0, [r0], -r0
    1a68:	ae089102 	mvfgee	f1, f2
    1a6c:	02000014 	andeq	r0, r0, #20
    1a70:	000ad8e0 	andeq	sp, sl, r0, ror #17
    1a74:	91021600 	tstls	r2, r0, lsl #12
    1a78:	0014be06 	andseq	fp, r4, r6, lsl #28
    1a7c:	d8e00200 	stmiale	r0!, {r9}^
    1a80:	1400000a 	strne	r0, [r0], #-10
    1a84:	c0049102 	andgt	r9, r4, r2, lsl #2
    1a88:	02000014 	andeq	r0, r0, #20
    1a8c:	000aeae4 	andeq	lr, sl, r4, ror #21
    1a90:	91021400 	tstls	r2, r0, lsl #8
    1a94:	0014de03 	andseq	sp, r4, r3, lsl #28
    1a98:	38e50200 	stmiacc	r5!, {r9}^
    1a9c:	00000000 	andeq	r0, r0, r0
    1aa0:	00234017 	eoreq	r4, r3, r7, lsl r0
    1aa4:	00012208 	andeq	r2, r1, r8, lsl #4
    1aa8:	a45d0100 	ldrbge	r0, [sp], #-256	; 0xffffff00
    1aac:	02000013 	andeq	r0, r0, #19
    1ab0:	03180113 	tsteq	r8, #-1073741820	; 0xc0000004
    1ab4:	a800e791 	stmdage	r0, {r0, r4, r7, r8, r9, sl, sp, lr, pc}
    1ab8:	02000014 	andeq	r0, r0, #20
    1abc:	00380113 	eorseq	r0, r8, r3, lsl r1
    1ac0:	03180000 	tsteq	r8, #0
    1ac4:	ae00e491 	mcrge	4, 0, lr, cr0, cr1, {4}
    1ac8:	02000014 	andeq	r0, r0, #20
    1acc:	0ad80113 	beq	ff601f20 <__initial_sp+0xdf5de078>
    1ad0:	03180000 	tsteq	r8, #0
    1ad4:	be00e291 	mcrlt	2, 0, lr, cr0, cr1, {4}
    1ad8:	02000014 	andeq	r0, r0, #20
    1adc:	0ad80113 	beq	ff601f30 <__initial_sp+0xdf5de088>
    1ae0:	03180000 	tsteq	r8, #0
    1ae4:	e800dc91 	stmda	r0, {r0, r4, r7, sl, fp, ip, lr, pc}
    1ae8:	02000014 	andeq	r0, r0, #20
    1aec:	0afc0113 	beq	fff01f40 <__initial_sp+0xdfede098>
    1af0:	03180000 	tsteq	r8, #0
    1af4:	f400f891 	vst2.32	{d15-d16}, [r0 :64], r1
    1af8:	02000014 	andeq	r0, r0, #20
    1afc:	0b010113 	bleq	41f50 <__Vectors_Size+0x41d58>
    1b00:	03190000 	tsteq	r9, #0
    1b04:	0000db91 	muleq	r0, r1, fp
    1b08:	02000015 	andeq	r0, r0, #21
    1b0c:	00380115 	eorseq	r0, r8, r5, lsl r1
    1b10:	03190000 	tsteq	r9, #0
    1b14:	0900da91 	stmdbeq	r0, {r0, r4, r7, r9, fp, ip, lr, pc}
    1b18:	02000015 	andeq	r0, r0, #21
    1b1c:	00380116 	eorseq	r0, r8, r6, lsl r1
    1b20:	03190000 	tsteq	r9, #0
    1b24:	1000d991 	mulne	r0, r1, r9
    1b28:	02000015 	andeq	r0, r0, #21
    1b2c:	00380117 	eorseq	r0, r8, r7, lsl r1
    1b30:	03190000 	tsteq	r9, #0
    1b34:	1700d891 			; <UNDEFINED> instruction: 0x1700d891
    1b38:	02000015 	andeq	r0, r0, #21
    1b3c:	00380118 	eorseq	r0, r8, r8, lsl r1
    1b40:	03190000 	tsteq	r9, #0
    1b44:	2700d491 			; <UNDEFINED> instruction: 0x2700d491
    1b48:	02000015 	andeq	r0, r0, #21
    1b4c:	0b12011a 	bleq	481fbc <__Vectors_Size+0x481dc4>
    1b50:	02190000 	andseq	r0, r9, #0
    1b54:	15552291 	ldrbne	r2, [r5, #-657]	; 0xfffffd6f
    1b58:	1c020000 	stcne	0, cr0, [r2], {-0}
    1b5c:	000b3b01 	andeq	r3, fp, r1, lsl #22
    1b60:	91021900 	tstls	r2, r0, lsl #18
    1b64:	0015661c 	andseq	r6, r5, ip, lsl r6
    1b68:	01200200 			; <UNDEFINED> instruction: 0x01200200
    1b6c:	00000b01 	andeq	r0, r0, r1, lsl #22
    1b70:	0023c213 	eoreq	ip, r3, r3, lsl r2
    1b74:	00009a08 	andeq	r9, r0, r8, lsl #20
    1b78:	91021900 	tstls	r2, r0, lsl #18
    1b7c:	00156a1b 	andseq	r6, r5, fp, lsl sl
    1b80:	01240200 			; <UNDEFINED> instruction: 0x01240200
    1b84:	00000038 	andeq	r0, r0, r8, lsr r0
    1b88:	1a910219 	bne	fe4423f4 <__initial_sp+0xde41e54c>
    1b8c:	00001576 	andeq	r1, r0, r6, ror r5
    1b90:	38012702 	stmdacc	r1, {r1, r8, r9, sl, sp}
    1b94:	19000000 	stmdbne	r0, {}	; <UNPREDICTABLE>
    1b98:	83189102 	tsthi	r8, #-2147483648	; 0x80000000
    1b9c:	02000015 	andeq	r0, r0, #21
    1ba0:	0aea0129 	beq	ffa8204c <__initial_sp+0xdfa5e1a4>
    1ba4:	02190000 	andseq	r0, r9, #0
    1ba8:	15941791 	ldrne	r1, [r4, #1937]	; 0x791
    1bac:	2a020000 	bcs	81bb4 <__Vectors_Size+0x819bc>
    1bb0:	00003801 	andeq	r3, r0, r1, lsl #16
    1bb4:	001a0000 	andseq	r0, sl, r0
    1bb8:	00210015 	eoreq	r0, r1, r5, lsl r0
    1bbc:	00010e08 	andeq	r0, r1, r8, lsl #28
    1bc0:	b55d0100 	ldrblt	r0, [sp, #-256]	; 0xffffff00
    1bc4:	02000013 	andeq	r0, r0, #19
    1bc8:	910216f2 	strdls	r1, [r2, -r2]
    1bcc:	0014a82f 	andseq	sl, r4, pc, lsr #16
    1bd0:	38f20200 	ldmcc	r2!, {r9}^
    1bd4:	16000000 	strne	r0, [r0], -r0
    1bd8:	ae2c9102 	absgee	f1, f2
    1bdc:	02000014 	andeq	r0, r0, #20
    1be0:	000ad8f2 	strdeq	sp, [sl], -r2
    1be4:	91021600 	tstls	r2, r0, lsl #12
    1be8:	0014be2a 	andseq	fp, r4, sl, lsr #28
    1bec:	d8f20200 	ldmle	r2!, {r9}^
    1bf0:	1600000a 	strne	r0, [r0], -sl
    1bf4:	e8249102 	stmda	r4!, {r1, r8, ip, pc}
    1bf8:	02000014 	andeq	r0, r0, #20
    1bfc:	000afcf2 	strdeq	pc, [sl], -r2
    1c00:	91021600 	tstls	r2, r0, lsl #12
    1c04:	00150023 	andseq	r0, r5, r3, lsr #32
    1c08:	38f20200 	ldmcc	r2!, {r9}^
    1c0c:	16000000 	strne	r0, [r0], -r0
    1c10:	76229102 	strtvc	r9, [r2], -r2, lsl #2
    1c14:	02000015 	andeq	r0, r0, #21
    1c18:	000038f2 	strdeq	r3, [r0], -r2
    1c1c:	91021600 	tstls	r2, r0, lsl #12
    1c20:	00151721 	andseq	r1, r5, r1, lsr #14
    1c24:	38f20200 	ldmcc	r2!, {r9}^
    1c28:	14000000 	strne	r0, [r0], #-0
    1c2c:	831e9102 	tsthi	lr, #-2147483648	; 0x80000000
    1c30:	02000015 	andeq	r0, r0, #21
    1c34:	000aeaf4 	strdeq	lr, [sl], -r4
    1c38:	91021400 	tstls	r2, r0, lsl #8
    1c3c:	0015941d 	andseq	r9, r5, sp, lsl r4
    1c40:	38f50200 	ldmcc	r5!, {r9}^
    1c44:	13000000 	movwne	r0, #0
    1c48:	0800214a 	stmdaeq	r0, {r1, r3, r6, r8, sp}
    1c4c:	000000c0 	andeq	r0, r0, r0, asr #1
    1c50:	18910214 	ldmne	r1, {r2, r4, r9}
    1c54:	0000159f 	muleq	r0, pc, r5	; <UNPREDICTABLE>
    1c58:	0ad1f702 	beq	ff47f868 <__initial_sp+0xdf45b9c0>
    1c5c:	5c130000 	ldcpl	0, cr0, [r3], {-0}
    1c60:	a4080021 	strge	r0, [r8], #-33	; 0xffffffdf
    1c64:	14000000 	strne	r0, [r0], #-0
    1c68:	a6149102 	ldrge	r9, [r4], -r2, lsl #2
    1c6c:	02000015 	andeq	r0, r0, #21
    1c70:	000ad1f9 	strdeq	sp, [sl], -r9
    1c74:	216c1300 	cmncs	ip, r0, lsl #6
    1c78:	008c0800 	addeq	r0, ip, r0, lsl #16
    1c7c:	02140000 	andseq	r0, r4, #0
    1c80:	15b11291 	ldrne	r1, [r1, #657]!	; 0x291
    1c84:	fb020000 	blx	81c8e <__Vectors_Size+0x81a96>
    1c88:	00000aea 	andeq	r0, r0, sl, ror #21
    1c8c:	11910214 	orrsne	r0, r1, r4, lsl r2
    1c90:	000015be 			; <UNDEFINED> instruction: 0x000015be
    1c94:	0038fc02 	eorseq	pc, r8, r2, lsl #24
    1c98:	98130000 	ldmdals	r3, {}	; <UNPREDICTABLE>
    1c9c:	5e080021 	cdppl	0, 0, cr0, cr8, cr1, {1}
    1ca0:	14000000 	strne	r0, [r0], #-0
    1ca4:	c30c9102 	movwgt	r9, #49410	; 0xc102
    1ca8:	02000015 	andeq	r0, r0, #21
    1cac:	000ad1fd 	strdeq	sp, [sl], -sp	; <UNPREDICTABLE>
    1cb0:	21a41300 			; <UNDEFINED> instruction: 0x21a41300
    1cb4:	004a0800 	subeq	r0, sl, r0, lsl #16
    1cb8:	02140000 	andseq	r0, r4, #0
    1cbc:	15c70b91 	strbne	r0, [r7, #2961]	; 0xb91
    1cc0:	ff020000 			; <UNDEFINED> instruction: 0xff020000
    1cc4:	00000038 	andeq	r0, r0, r8, lsr r0
    1cc8:	08910219 	ldmeq	r1, {r0, r3, r4, r9}
    1ccc:	000015cd 	andeq	r1, r0, sp, asr #11
    1cd0:	d8010002 	stmdale	r1, {r1}
    1cd4:	1900000a 	stmdbne	r0, {r1, r3}
    1cd8:	cf069102 	svcgt	0x00069102
    1cdc:	02000015 	andeq	r0, r0, #21
    1ce0:	0ad80101 	beq	ff6020ec <__initial_sp+0xdf5de244>
	...
    1cec:	00221017 	eoreq	r1, r2, r7, lsl r0
    1cf0:	00013008 	andeq	r3, r1, r8
    1cf4:	ca5d0100 	bgt	17420fc <__Vectors_Size+0x1741f04>
    1cf8:	02000013 	andeq	r0, r0, #19
    1cfc:	0218013a 	andseq	r0, r8, #-2147483634	; 0x8000000e
    1d00:	14a82f91 	strtne	r2, [r8], #3985	; 0xf91
    1d04:	3a020000 	bcc	81d0c <__Vectors_Size+0x81b14>
    1d08:	00003801 	andeq	r3, r0, r1, lsl #16
    1d0c:	91021800 	tstls	r2, r0, lsl #16
    1d10:	0015d12e 	andseq	sp, r5, lr, lsr #2
    1d14:	013a0200 	teqeq	sl, r0, lsl #4
    1d18:	00000038 	andeq	r0, r0, r8, lsr r0
    1d1c:	2d910218 	lfmcs	f0, 4, [r1, #96]	; 0x60
    1d20:	000015d4 	ldrdeq	r1, [r0], -r4
    1d24:	38013a02 	stmdacc	r1, {r1, r9, fp, ip, sp}
    1d28:	18000000 	stmdane	r0, {}	; <UNPREDICTABLE>
    1d2c:	d72c9102 	strle	r9, [ip, -r2, lsl #2]!
    1d30:	02000015 	andeq	r0, r0, #21
    1d34:	0038013a 	eorseq	r0, r8, sl, lsr r1
    1d38:	02180000 	andseq	r0, r8, #0
    1d3c:	15da2b91 	ldrbne	r2, [sl, #2961]	; 0xb91
    1d40:	3a020000 	bcc	81d48 <__Vectors_Size+0x81b50>
    1d44:	00003801 	andeq	r3, r0, r1, lsl #16
    1d48:	91021900 	tstls	r2, r0, lsl #18
    1d4c:	0015dd24 	andseq	sp, r5, r4, lsr #26
    1d50:	013c0200 	teqeq	ip, r0, lsl #4
    1d54:	00000ad1 	ldrdeq	r0, [r0], -r1
    1d58:	20910219 	addscs	r0, r1, r9, lsl r2
    1d5c:	000015e0 	andeq	r1, r0, r0, ror #11
    1d60:	d1013d02 	tstle	r1, r2, lsl #26
    1d64:	1900000a 	stmdbne	r0, {r1, r3}
    1d68:	e31c9102 	tst	ip, #-2147483648	; 0x80000000
    1d6c:	02000015 	andeq	r0, r0, #21
    1d70:	0ad1013e 	beq	ff442270 <__initial_sp+0xdf41e3c8>
    1d74:	02190000 	andseq	r0, r9, #0
    1d78:	15e61891 	strbne	r1, [r6, #2193]!	; 0x891
    1d7c:	3f020000 	svccc	0x00020000
    1d80:	000ad101 	andeq	sp, sl, r1, lsl #2
    1d84:	91021900 	tstls	r2, r0, lsl #18
    1d88:	0015e914 	andseq	lr, r5, r4, lsl r9
    1d8c:	01400200 	mrseq	r0, (UNDEF: 96)
    1d90:	00000ad1 	ldrdeq	r0, [r0], -r1
    1d94:	0022e413 	eoreq	lr, r2, r3, lsl r4
    1d98:	00005608 	andeq	r5, r0, r8, lsl #12
    1d9c:	91021900 	tstls	r2, r0, lsl #18
    1da0:	0015ed10 	andseq	lr, r5, r0, lsl sp
    1da4:	01460200 	mrseq	r0, (UNDEF: 102)
    1da8:	00000ad1 	ldrdeq	r0, [r0], -r1
    1dac:	00170000 	andseq	r0, r7, r0
    1db0:	08000000 	stmdaeq	r0, {}	; <UNPREDICTABLE>
    1db4:	01000001 	tsteq	r0, r1
    1db8:	0013da5d 	andseq	sp, r3, sp, asr sl
    1dbc:	015d0200 	cmpeq	sp, r0, lsl #4
    1dc0:	0f910218 	svceq	0x00910218
    1dc4:	000014a8 	andeq	r1, r0, r8, lsr #9
    1dc8:	38015d02 	stmdacc	r1, {r1, r8, sl, fp, ip, lr}
    1dcc:	18000000 	stmdane	r0, {}	; <UNPREDICTABLE>
    1dd0:	ae0c9102 	mvfgee	f1, f2
    1dd4:	02000014 	andeq	r0, r0, #20
    1dd8:	0aea015d 	beq	ffa82354 <__initial_sp+0xdfa5e4ac>
    1ddc:	02180000 	andseq	r0, r8, #0
    1de0:	14be0a91 	ldrtne	r0, [lr], #2705	; 0xa91
    1de4:	5d020000 	stcpl	0, cr0, [r2, #-0]
    1de8:	000aea01 	andeq	lr, sl, r1, lsl #20
    1dec:	91021800 	tstls	r2, r0, lsl #16
    1df0:	0015f008 	andseq	pc, r5, r8
    1df4:	015d0200 	cmpeq	sp, r0, lsl #4
    1df8:	00000aea 	andeq	r0, r0, sl, ror #21
    1dfc:	06910218 			; <UNDEFINED> instruction: 0x06910218
    1e00:	000015f2 	strdeq	r1, [r0], -r2
    1e04:	ea015d02 	b	59214 <__Vectors_Size+0x5901c>
    1e08:	0000000a 	andeq	r0, r0, sl
    1e0c:	00000017 	andeq	r0, r0, r7, lsl r0
    1e10:	0000be00 	andeq	fp, r0, r0, lsl #28
    1e14:	ef5d0100 	svc	0x005d0100
    1e18:	02000013 	andeq	r0, r0, #19
    1e1c:	02180174 	andseq	r0, r8, #116, 2
    1e20:	14a80f91 	strtne	r0, [r8], #3985	; 0xf91
    1e24:	74020000 	strvc	r0, [r2], #-0
    1e28:	00003801 	andeq	r3, r0, r1, lsl #16
    1e2c:	91021800 	tstls	r2, r0, lsl #16
    1e30:	0014ae0c 	andseq	sl, r4, ip, lsl #28
    1e34:	01740200 	cmneq	r4, r0, lsl #4
    1e38:	00000aea 	andeq	r0, r0, sl, ror #21
    1e3c:	0a910218 	beq	fe4426a4 <__initial_sp+0xde41e7fc>
    1e40:	000014be 			; <UNDEFINED> instruction: 0x000014be
    1e44:	ea017402 	b	5ee54 <__Vectors_Size+0x5ec5c>
    1e48:	1800000a 	stmdane	r0, {r1, r3}
    1e4c:	f0089102 			; <UNDEFINED> instruction: 0xf0089102
    1e50:	02000015 	andeq	r0, r0, #21
    1e54:	0aea0174 	beq	ffa8242c <__initial_sp+0xdfa5e584>
    1e58:	02180000 	andseq	r0, r8, #0
    1e5c:	15f20691 	ldrbne	r0, [r2, #1681]!	; 0x691
    1e60:	74020000 	strvc	r0, [r2], #-0
    1e64:	000aea01 	andeq	lr, sl, r1, lsl #20
    1e68:	91021900 	tstls	r2, r0, lsl #18
    1e6c:	00149805 	andseq	r9, r4, r5, lsl #16
    1e70:	01760200 	cmneq	r6, r0, lsl #4
    1e74:	00000038 	andeq	r0, r0, r8, lsr r0
    1e78:	00001700 	andeq	r1, r0, r0, lsl #14
    1e7c:	01a20000 			; <UNDEFINED> instruction: 0x01a20000
    1e80:	5d010000 	stcpl	0, cr0, [r1, #-0]
    1e84:	0000140a 	andeq	r1, r0, sl, lsl #8
    1e88:	18018b02 	stmdane	r1, {r1, r8, r9, fp, pc}
    1e8c:	a80f9102 	stmdage	pc, {r1, r8, ip, pc}	; <UNPREDICTABLE>
    1e90:	02000014 	andeq	r0, r0, #20
    1e94:	0038018b 	eorseq	r0, r8, fp, lsl #3
    1e98:	02180000 	andseq	r0, r8, #0
    1e9c:	15d10e91 	ldrbne	r0, [r1, #3729]	; 0xe91
    1ea0:	8b020000 	blhi	81ea8 <__Vectors_Size+0x81cb0>
    1ea4:	00003801 	andeq	r3, r0, r1, lsl #16
    1ea8:	91021800 	tstls	r2, r0, lsl #16
    1eac:	0015d40d 	andseq	sp, r5, sp, lsl #8
    1eb0:	018b0200 	orreq	r0, fp, r0, lsl #4
    1eb4:	00000038 	andeq	r0, r0, r8, lsr r0
    1eb8:	0c910218 	lfmeq	f0, 4, [r1], {24}
    1ebc:	000015f4 	strdeq	r1, [r0], -r4
    1ec0:	38018b02 	stmdacc	r1, {r1, r8, r9, fp, pc}
    1ec4:	19000000 	stmdbne	r0, {}	; <UNPREDICTABLE>
    1ec8:	ae089102 	mvfgee	f1, f2
    1ecc:	02000014 	andeq	r0, r0, #20
    1ed0:	0ad1018d 	beq	ff44250c <__initial_sp+0xdf41e664>
    1ed4:	02190000 	andseq	r0, r9, #0
    1ed8:	14be0491 	ldrtne	r0, [lr], #1169	; 0x491
    1edc:	8e020000 	cdphi	0, 0, cr0, cr2, cr0, {0}
    1ee0:	000ad101 	andeq	sp, sl, r1, lsl #2
    1ee4:	91021900 	tstls	r2, r0, lsl #18
    1ee8:	0015e900 	andseq	lr, r5, r0, lsl #18
    1eec:	018f0200 	orreq	r0, pc, r0, lsl #4
    1ef0:	00000ad1 	ldrdeq	r0, [r0], -r1
    1ef4:	00001700 	andeq	r1, r0, r0, lsl #14
    1ef8:	01ce0000 	biceq	r0, lr, r0
    1efc:	5d010000 	stcpl	0, cr0, [r1, #-0]
    1f00:	0000141c 	andeq	r1, r0, ip, lsl r4
    1f04:	1801b302 	stmdane	r1, {r1, r8, r9, ip, sp, pc}
    1f08:	a8179102 	ldmdage	r7, {r1, r8, ip, pc}
    1f0c:	02000014 	andeq	r0, r0, #20
    1f10:	003801b3 	ldrhteq	r0, [r8], -r3
    1f14:	02180000 	andseq	r0, r8, #0
    1f18:	15d11491 	ldrbne	r1, [r1, #1169]	; 0x491
    1f1c:	b3020000 	movwlt	r0, #8192	; 0x2000
    1f20:	000ad801 	andeq	sp, sl, r1, lsl #16
    1f24:	91021800 	tstls	r2, r0, lsl #16
    1f28:	0015d412 	andseq	sp, r5, r2, lsl r4
    1f2c:	01b30200 			; <UNDEFINED> instruction: 0x01b30200
    1f30:	00000ad8 	ldrdeq	r0, [r0], -r8
    1f34:	10910218 	addsne	r0, r1, r8, lsl r2
    1f38:	000015fb 	strdeq	r1, [r0], -fp
    1f3c:	d801b302 	stmdale	r1, {r1, r8, r9, ip, sp, pc}
    1f40:	1900000a 	stmdbne	r0, {r1, r3}
    1f44:	fd0e9102 	stc2	1, cr9, [lr, #-8]
    1f48:	02000015 	andeq	r0, r0, #21
    1f4c:	0ad801b5 	beq	ff602628 <__initial_sp+0xdf5de780>
    1f50:	02190000 	andseq	r0, r9, #0
    1f54:	15ff0c91 	ldrbne	r0, [pc, #3217]!	; 2bed <__Vectors_Size+0x29f5>
    1f58:	b6020000 	strlt	r0, [r2], -r0
    1f5c:	000ad801 	andeq	sp, sl, r1, lsl #16
    1f60:	91021900 	tstls	r2, r0, lsl #18
    1f64:	0016050a 	andseq	r0, r6, sl, lsl #10
    1f68:	01b70200 			; <UNDEFINED> instruction: 0x01b70200
    1f6c:	00000ad8 	ldrdeq	r0, [r0], -r8
    1f70:	08910219 	ldmeq	r1, {r0, r3, r4, r9}
    1f74:	000014ae 	andeq	r1, r0, lr, lsr #9
    1f78:	d801b802 	stmdale	r1, {r1, fp, ip, sp, pc}
    1f7c:	1900000a 	stmdbne	r0, {r1, r3}
    1f80:	be069102 	mvflts	f1, f2
    1f84:	02000014 	andeq	r0, r0, #20
    1f88:	0ad801b9 	beq	ff602674 <__initial_sp+0xdf5de7cc>
    1f8c:	17000000 	strne	r0, [r0, -r0]
    1f90:	080020d0 	stmdaeq	r0, {r4, r6, r7, sp}
    1f94:	0000002e 	andeq	r0, r0, lr, lsr #32
    1f98:	14345d01 	ldrtne	r5, [r4], #-3329	; 0xfffff2ff
    1f9c:	dc020000 	stcle	0, cr0, [r2], {-0}
    1fa0:	20d41301 	sbcscs	r1, r4, r1, lsl #6
    1fa4:	00260800 	eoreq	r0, r6, r0, lsl #16
    1fa8:	02190000 	andseq	r0, r9, #0
    1fac:	14980091 	ldrne	r0, [r8], #145	; 0x91
    1fb0:	de020000 	cdple	0, 0, cr0, cr2, cr0, {0}
    1fb4:	000ad101 	andeq	sp, sl, r1, lsl #2
    1fb8:	1b000000 	blne	1fc0 <__Vectors_Size+0x1dc8>
    1fbc:	08002468 	stmdaeq	r0, {r3, r5, r6, sl, sp}
    1fc0:	0000008a 	andeq	r0, r0, sl, lsl #1
    1fc4:	14475d01 	strbne	r5, [r7], #-3329	; 0xfffff2ff
    1fc8:	e9020000 	stmdb	r2, {}	; <UNPREDICTABLE>
    1fcc:	26d81c01 	ldrbcs	r1, [r8], r1, lsl #24
    1fd0:	00e60800 	rsceq	r0, r6, r0, lsl #16
    1fd4:	5d010000 	stcpl	0, cr0, [r1, #-0]
    1fd8:	00001453 	andeq	r1, r0, r3, asr r4
    1fdc:	f81c3902 			; <UNDEFINED> instruction: 0xf81c3902
    1fe0:	34080024 	strcc	r0, [r8], #-36	; 0xffffffdc
    1fe4:	01000000 	mrseq	r0, (UNDEF: 0)
    1fe8:	0014625d 	andseq	r6, r4, sp, asr r2
    1fec:	15d00200 	ldrbne	r0, [r0, #512]	; 0x200
    1ff0:	08002608 	stmdaeq	r0, {r3, r9, sl, sp}
    1ff4:	00000020 	andeq	r0, r0, r0, lsr #32
    1ff8:	146f5d01 	strbtne	r5, [pc], #-3329	; 2000 <__Vectors_Size+0x1e08>
    1ffc:	9f020000 	svcls	0x00020000
    2000:	07910216 			; <UNDEFINED> instruction: 0x07910216
    2004:	0000160b 	andeq	r1, r0, fp, lsl #12
    2008:	00389f02 	eorseq	r9, r8, r2, lsl #30
    200c:	02160000 	andseq	r0, r6, #0
    2010:	16100691 			; <UNDEFINED> instruction: 0x16100691
    2014:	9f020000 	svcls	0x00020000
    2018:	00000038 	andeq	r0, r0, r8, lsr r0
    201c:	27c01500 	strbcs	r1, [r0, r0, lsl #10]
    2020:	006e0800 	rsbeq	r0, lr, r0, lsl #16
    2024:	5d010000 	stcpl	0, cr0, [r1, #-0]
    2028:	00001484 	andeq	r1, r0, r4, lsl #9
    202c:	02167502 	andseq	r7, r6, #8388608	; 0x800000
    2030:	15be0391 	ldrne	r0, [lr, #913]!	; 0x391
    2034:	75020000 	strvc	r0, [r2, #-0]
    2038:	00000038 	andeq	r0, r0, r8, lsr r0
    203c:	149a0500 	ldrne	r0, [sl], #1280	; 0x500
    2040:	04050000 	streq	r0, [r5], #-0
    2044:	000ae304 	andeq	lr, sl, r4, lsl #6
    2048:	0014b600 	andseq	fp, r4, r0, lsl #12
    204c:	05390100 	ldreq	r0, [r9, #-256]!	; 0xffffff00
    2050:	000014b0 			; <UNDEFINED> instruction: 0x000014b0
    2054:	f5040205 			; <UNDEFINED> instruction: 0xf5040205
    2058:	d500000a 	strle	r0, [r0, #-10]
    205c:	01000014 	tsteq	r0, r4, lsl r0
    2060:	14c6053f 	strbne	r0, [r6], #1343	; 0x53f
    2064:	02070000 	andeq	r0, r7, #0
    2068:	0000380c 	andeq	r3, r0, ip, lsl #16
    206c:	0b060c00 	bleq	185074 <__Vectors_Size+0x184e7c>
    2070:	0b030000 	bleq	c2078 <__Vectors_Size+0xc1e80>
    2074:	0500000b 	streq	r0, [r0, #-11]
    2078:	000014fb 	strdeq	r1, [r0], -fp
    207c:	1d040108 	stfnes	f0, [r4, #-32]	; 0xffffffe0
    2080:	4d00000b 	stcmi	0, cr0, [r0, #-44]	; 0xffffffd4
    2084:	04000015 	streq	r0, [r0], #-21	; 0xffffffeb
    2088:	0b261d28 	bleq	989530 <__Vectors_Size+0x989338>
    208c:	153b0000 	ldrne	r0, [fp, #-0]!
    2090:	311e0000 	tstcc	lr, r0
    2094:	04000015 	streq	r0, [r0], #-21	; 0xffffffeb
    2098:	00152c0f 	andseq	r2, r5, pc, lsl #24
    209c:	000b3a00 	andeq	r3, fp, r0, lsl #20
    20a0:	011a0200 	tsteq	sl, r0, lsl #4
    20a4:	071f0000 	ldreq	r0, [pc, -r0]
    20a8:	00000b0b 	andeq	r0, r0, fp, lsl #22
    20ac:	00008211 	andeq	r8, r0, r1, lsl r2
    20b0:	00003200 	andeq	r3, r0, r0, lsl #4
    20b4:	00000499 	muleq	r0, r9, r4
    20b8:	03a60004 			; <UNDEFINED> instruction: 0x03a60004
    20bc:	01040000 	mrseq	r0, (UNDEF: 4)
    20c0:	00001615 	andeq	r1, r0, r5, lsl r6
    20c4:	1659000c 	ldrbne	r0, [r9], -ip
    20c8:	10c50000 	sbcne	r0, r5, r0
    20cc:	16620000 	strbtne	r0, [r2], -r0
    20d0:	00000000 	andeq	r0, r0, r0
    20d4:	01100000 	tsteq	r0, r0
    20d8:	86020000 	strhi	r0, [r2], -r0
    20dc:	37000016 	smladcc	r0, r6, r0, r0
    20e0:	02000000 	andeq	r0, r0, #0
    20e4:	86030506 	strhi	r0, [r3], -r6, lsl #10
    20e8:	03200234 			; <UNDEFINED> instruction: 0x03200234
    20ec:	00000042 	andeq	r0, r0, r2, asr #32
    20f0:	0000169e 	muleq	r0, lr, r6
    20f4:	90043e01 	andls	r3, r4, r1, lsl #28
    20f8:	08000016 	stmdaeq	r0, {r1, r2, r4}
    20fc:	004e0501 	subeq	r0, lr, r1, lsl #10
    2100:	5a060000 	bpl	182108 <__Vectors_Size+0x181f10>
    2104:	e8000000 	stmda	r0, {}	; <UNPREDICTABLE>
    2108:	03000017 	movweq	r0, #23
    210c:	94070311 	strls	r0, [r7], #-785	; 0xfffffcef
    2110:	0802ed03 	stmdaeq	r2, {r0, r1, r8, sl, fp, sp, lr, pc}
    2114:	000016a6 	andeq	r1, r0, r6, lsr #13
    2118:	0000020d 	andeq	r0, r0, sp, lsl #4
    211c:	0002ef03 	andeq	lr, r2, r3, lsl #30
    2120:	0016bf08 	andseq	fp, r6, r8, lsl #30
    2124:	00020d00 	andeq	r0, r2, r0, lsl #26
    2128:	02f00300 	rscseq	r0, r0, #0, 6
    212c:	16c70804 	strbne	r0, [r7], r4, lsl #16
    2130:	020d0000 	andeq	r0, sp, #0
    2134:	f1030000 			; <UNDEFINED> instruction: 0xf1030000
    2138:	cc080802 	stcgt	8, cr0, [r8], {2}
    213c:	0d000016 	stceq	0, cr0, [r0, #-88]	; 0xffffffa8
    2140:	03000002 	movweq	r0, #2
    2144:	080c02f2 	stmdaeq	ip, {r1, r4, r5, r6, r7, r9}
    2148:	000016d0 	ldrdeq	r1, [r0], -r0
    214c:	0000020d 	andeq	r0, r0, sp, lsl #4
    2150:	1002f303 	andne	pc, r2, r3, lsl #6
    2154:	0016d908 	andseq	sp, r6, r8, lsl #18
    2158:	00020d00 	andeq	r0, r2, r0, lsl #26
    215c:	02f40300 	rscseq	r0, r4, #0, 6
    2160:	16e20814 	usatne	r0, #2, r4, lsl #16
    2164:	020d0000 	andeq	r0, sp, #0
    2168:	f5030000 			; <UNDEFINED> instruction: 0xf5030000
    216c:	eb081802 	bl	20817c <__Vectors_Size+0x207f84>
    2170:	12000016 	andne	r0, r0, #22
    2174:	03000002 	movweq	r0, #2
    2178:	081c02f6 	ldmdaeq	ip, {r1, r2, r4, r5, r6, r7, r9}
    217c:	000016f5 	strdeq	r1, [r0], -r5
    2180:	0000020d 	andeq	r0, r0, sp, lsl #4
    2184:	2002f703 	andcs	pc, r2, r3, lsl #14
    2188:	0016fe08 	andseq	pc, r6, r8, lsl #28
    218c:	00020d00 	andeq	r0, r2, r0, lsl #26
    2190:	02f80300 	rscseq	r0, r8, #0, 6
    2194:	17070824 	strne	r0, [r7, -r4, lsr #16]
    2198:	02240000 	eoreq	r0, r4, #0
    219c:	f9030000 			; <UNDEFINED> instruction: 0xf9030000
    21a0:	25082802 	strcs	r2, [r8, #-2050]	; 0xfffff7fe
    21a4:	0d000017 	stceq	0, cr0, [r0, #-92]	; 0xffffffa4
    21a8:	03000002 	movweq	r0, #2
    21ac:	083002fa 	ldmdaeq	r0!, {r1, r3, r4, r5, r6, r7, r9}
    21b0:	0000172d 	andeq	r1, r0, sp, lsr #14
    21b4:	0000020d 	andeq	r0, r0, sp, lsl #4
    21b8:	3402fb03 	strcc	pc, [r2], #-2819	; 0xfffff4fd
    21bc:	00173508 	andseq	r3, r7, r8, lsl #10
    21c0:	00020d00 	andeq	r0, r2, r0, lsl #26
    21c4:	02fc0300 	rscseq	r0, ip, #0, 6
    21c8:	173d0838 			; <UNDEFINED> instruction: 0x173d0838
    21cc:	02120000 	andseq	r0, r2, #0
    21d0:	fd030000 	stc2	0, cr0, [r3, #-0]
    21d4:	47083c02 	strmi	r3, [r8, -r2, lsl #24]
    21d8:	0d000017 	stceq	0, cr0, [r0, #-92]	; 0xffffffa4
    21dc:	03000002 	movweq	r0, #2
    21e0:	084002fe 	stmdaeq	r0, {r1, r2, r3, r4, r5, r6, r7, r9}^
    21e4:	0000174f 	andeq	r1, r0, pc, asr #14
    21e8:	0000020d 	andeq	r0, r0, sp, lsl #4
    21ec:	4402ff03 	strmi	pc, [r2], #-3843	; 0xfffff0fd
    21f0:	00175708 	andseq	r5, r7, r8, lsl #14
    21f4:	00022400 	andeq	r2, r2, r0, lsl #8
    21f8:	03000300 	movweq	r0, #768	; 0x300
    21fc:	17610848 	strbne	r0, [r1, -r8, asr #16]!
    2200:	020d0000 	andeq	r0, sp, #0
    2204:	01030000 	mrseq	r0, (UNDEF: 3)
    2208:	6b085003 	blvs	21621c <__Vectors_Size+0x216024>
    220c:	0d000017 	stceq	0, cr0, [r0, #-92]	; 0xffffffa4
    2210:	03000002 	movweq	r0, #2
    2214:	08540302 	ldmdaeq	r4, {r1, r8, r9}^
    2218:	00001775 	andeq	r1, r0, r5, ror r7
    221c:	0000020d 	andeq	r0, r0, sp, lsl #4
    2220:	58030303 	stmdapl	r3, {r0, r1, r8, r9}
    2224:	00177f08 	andseq	r7, r7, r8, lsl #30
    2228:	00021200 	andeq	r1, r2, r0, lsl #4
    222c:	03040300 	movweq	r0, #17152	; 0x4300
    2230:	1789085c 			; <UNDEFINED> instruction: 0x1789085c
    2234:	020d0000 	andeq	r0, sp, #0
    2238:	05030000 	streq	r0, [r3, #-0]
    223c:	93086003 	movwls	r6, #32771	; 0x8003
    2240:	0d000017 	stceq	0, cr0, [r0, #-92]	; 0xffffffa4
    2244:	03000002 	movweq	r0, #2
    2248:	08640306 	stmdaeq	r4!, {r1, r2, r8, r9}^
    224c:	0000179d 	muleq	r0, sp, r7
    2250:	00000224 	andeq	r0, r0, r4, lsr #4
    2254:	68030703 	stmdavs	r3, {r0, r1, r8, r9, sl}
    2258:	0017a708 	andseq	sl, r7, r8, lsl #14
    225c:	00020d00 	andeq	r0, r2, r0, lsl #26
    2260:	03080300 	movweq	r0, #33536	; 0x8300
    2264:	17ac0870 			; <UNDEFINED> instruction: 0x17ac0870
    2268:	020d0000 	andeq	r0, sp, #0
    226c:	09030000 	stmdbeq	r3, {}	; <UNPREDICTABLE>
    2270:	b0087403 	andlt	r7, r8, r3, lsl #8
    2274:	24000017 	strcs	r0, [r0], #-23	; 0xffffffe9
    2278:	03000002 	movweq	r0, #2
    227c:	0878030a 	ldmdaeq	r8!, {r1, r3, r8, r9}^
    2280:	000017ba 			; <UNDEFINED> instruction: 0x000017ba
    2284:	0000020d 	andeq	r0, r0, sp, lsl #4
    2288:	80030b03 	andhi	r0, r3, r3, lsl #22
    228c:	0017c008 	andseq	ip, r7, r8
    2290:	00020d00 	andeq	r0, r2, r0, lsl #26
    2294:	030c0300 	movweq	r0, #49920	; 0xc300
    2298:	17cb0884 	strbne	r0, [fp, r4, lsl #17]
    229c:	020d0000 	andeq	r0, sp, #0
    22a0:	0d030000 	stceq	0, cr0, [r3, #-0]
    22a4:	d6088803 	strle	r8, [r8], -r3, lsl #16
    22a8:	0d000017 	stceq	0, cr0, [r0, #-92]	; 0xffffffa4
    22ac:	03000002 	movweq	r0, #2
    22b0:	088c030e 	stmeq	ip, {r1, r2, r3, r8, r9}
    22b4:	000017df 	ldrdeq	r1, [r0], -pc	; <UNPREDICTABLE>
    22b8:	0000020d 	andeq	r0, r0, sp, lsl #4
    22bc:	90030f03 	andls	r0, r3, r3, lsl #30
    22c0:	02120900 	andseq	r0, r2, #0, 18
    22c4:	1d030000 	stcne	0, cr0, [r3, #-0]
    22c8:	b6000002 	strlt	r0, [r0], -r2
    22cc:	01000016 	tsteq	r0, r6, lsl r0
    22d0:	16a90440 	strtne	r0, [r9], r0, asr #8
    22d4:	04070000 	streq	r0, [r7], #-0
    22d8:	0002120a 	andeq	r1, r2, sl, lsl #4
    22dc:	02300b00 	eorseq	r0, r0, #0, 22
    22e0:	00020000 	andeq	r0, r2, r0
    22e4:	0017110c 	andseq	r1, r7, ip, lsl #2
    22e8:	05070800 	streq	r0, [r7, #-2048]	; 0xfffff800
    22ec:	0000023c 	andeq	r0, r0, ip, lsr r2
    22f0:	00024806 	andeq	r4, r2, r6, lsl #16
    22f4:	00182500 	andseq	r2, r8, r0, lsl #10
    22f8:	027b0300 	rsbseq	r0, fp, #0, 6
    22fc:	70032807 	andvc	r2, r3, r7, lsl #16
    2300:	17f40802 	ldrbne	r0, [r4, r2, lsl #16]!
    2304:	020d0000 	andeq	r0, sp, #0
    2308:	72030000 	andvc	r0, r3, #0
    230c:	fa080002 	blx	20231c <__Vectors_Size+0x202124>
    2310:	0d000017 	stceq	0, cr0, [r0, #-92]	; 0xffffffa4
    2314:	03000002 	movweq	r0, #2
    2318:	08040273 	stmdaeq	r4, {r0, r1, r4, r5, r6, r9}
    231c:	00001801 	andeq	r1, r0, r1, lsl #16
    2320:	0000020d 	andeq	r0, r0, sp, lsl #4
    2324:	08027403 	stmdaeq	r2, {r0, r1, sl, ip, sp, lr}
    2328:	00180908 	andseq	r0, r8, r8, lsl #18
    232c:	00020d00 	andeq	r0, r2, r0, lsl #26
    2330:	02750300 	rsbseq	r0, r5, #0, 6
    2334:	180f080c 	stmdane	pc, {r2, r3, fp}	; <UNPREDICTABLE>
    2338:	020d0000 	andeq	r0, sp, #0
    233c:	76030000 	strvc	r0, [r3], -r0
    2340:	13081002 	movwne	r1, #32770	; 0x8002
    2344:	0d000018 	stceq	0, cr0, [r0, #-96]	; 0xffffffa0
    2348:	03000002 	movweq	r0, #2
    234c:	08140277 	ldmdaeq	r4, {r0, r1, r2, r4, r5, r6, r9}
    2350:	00001817 	andeq	r1, r0, r7, lsl r8
    2354:	0000020d 	andeq	r0, r0, sp, lsl #4
    2358:	18027803 	stmdane	r2, {r0, r1, fp, ip, sp, lr}
    235c:	00181c08 	andseq	r1, r8, r8, lsl #24
    2360:	00020d00 	andeq	r0, r2, r0, lsl #26
    2364:	02790300 	rsbseq	r0, r9, #0, 6
    2368:	1821081c 	stmdane	r1!, {r2, r3, r4, fp}
    236c:	02c30000 	sbceq	r0, r3, #0
    2370:	7a030000 	bvc	c2378 <__Vectors_Size+0xc2180>
    2374:	0a002002 	beq	a384 <__Vectors_Size+0xa18c>
    2378:	0000020d 	andeq	r0, r0, sp, lsl #4
    237c:	0002300b 	andeq	r3, r2, fp
    2380:	05000200 	streq	r0, [r0, #-512]	; 0xfffffe00
    2384:	000002d4 	ldrdeq	r0, [r0], -r4
    2388:	0002e006 	andeq	lr, r2, r6
    238c:	00186c00 	andseq	r6, r8, r0, lsl #24
    2390:	029c0300 	addseq	r0, ip, #0, 6
    2394:	8f032c07 	svchi	0x00032c07
    2398:	18320802 	ldmdane	r2!, {r1, fp}
    239c:	020d0000 	andeq	r0, sp, #0
    23a0:	91030000 	mrsls	r0, (UNDEF: 3)
    23a4:	36080002 	strcc	r0, [r8], -r2
    23a8:	0d000018 	stceq	0, cr0, [r0, #-96]	; 0xffffffa0
    23ac:	03000002 	movweq	r0, #2
    23b0:	08040292 	stmdaeq	r4, {r1, r4, r7, r9}
    23b4:	0000183a 	andeq	r1, r0, sl, lsr r8
    23b8:	0000020d 	andeq	r0, r0, sp, lsl #4
    23bc:	08029303 	stmdaeq	r2, {r0, r1, r8, r9, ip, pc}
    23c0:	00183f08 	andseq	r3, r8, r8, lsl #30
    23c4:	00020d00 	andeq	r0, r2, r0, lsl #26
    23c8:	02940300 	addseq	r0, r4, #0, 6
    23cc:	1844080c 	stmdane	r4, {r2, r3, fp}^
    23d0:	020d0000 	andeq	r0, sp, #0
    23d4:	95030000 	strls	r0, [r3, #-0]
    23d8:	4c081002 	stcmi	0, cr1, [r8], {2}
    23dc:	0d000018 	stceq	0, cr0, [r0, #-96]	; 0xffffffa0
    23e0:	03000002 	movweq	r0, #2
    23e4:	08140296 	ldmdaeq	r4, {r1, r2, r4, r7, r9}
    23e8:	00001855 	andeq	r1, r0, r5, asr r8
    23ec:	0000020d 	andeq	r0, r0, sp, lsl #4
    23f0:	18029703 	stmdane	r2, {r0, r1, r8, r9, sl, ip, pc}
    23f4:	00185908 	andseq	r5, r8, r8, lsl #18
    23f8:	00020d00 	andeq	r0, r2, r0, lsl #26
    23fc:	02980300 	addseq	r0, r8, #0, 6
    2400:	185d081c 	ldmdane	sp, {r2, r3, r4, fp}^
    2404:	020d0000 	andeq	r0, sp, #0
    2408:	99030000 	stmdbls	r3, {}	; <UNPREDICTABLE>
    240c:	62082002 	andvs	r2, r8, #2
    2410:	0d000018 	stceq	0, cr0, [r0, #-96]	; 0xffffffa0
    2414:	03000002 	movweq	r0, #2
    2418:	0824029a 	stmdaeq	r4!, {r1, r3, r4, r7, r9}
    241c:	00001867 	andeq	r1, r0, r7, ror #16
    2420:	0000020d 	andeq	r0, r0, sp, lsl #4
    2424:	28029b03 	stmdacs	r2, {r0, r1, r8, r9, fp, ip, pc}
    2428:	17080d00 	strne	r0, [r8, -r0, lsl #26]
    242c:	00900800 	addseq	r0, r0, r0, lsl #16
    2430:	5d010000 	stcpl	0, cr0, [r1, #-0]
    2434:	00001878 	andeq	r1, r0, r8, ror r8
    2438:	c80e0802 	stmdagt	lr, {r1, fp}
    243c:	18080016 	stmdane	r8, {r1, r2, r4}
    2440:	01000000 	mrseq	r0, (UNDEF: 0)
    2444:	0018845d 	andseq	r8, r8, sp, asr r4
    2448:	7e1b0200 	cdpvc	2, 1, cr0, cr11, cr0, {0}
    244c:	0f000004 	svceq	0x00000004
    2450:	c5039102 	strgt	r9, [r3, #-258]	; 0xfffffefe
    2454:	02000018 	andeq	r0, r0, #24
    2458:	0000421b 	andeq	r4, r0, fp, lsl r2
    245c:	e00e0000 	and	r0, lr, r0
    2460:	24080016 	strcs	r0, [r8], #-22	; 0xffffffea
    2464:	01000000 	mrseq	r0, (UNDEF: 0)
    2468:	0018975d 	andseq	r9, r8, sp, asr r7
    246c:	7e1f0200 	cdpvc	2, 1, cr0, cr15, cr0, {0}
    2470:	0f000004 	svceq	0x00000004
    2474:	c5039102 	strgt	r9, [r3, #-258]	; 0xfffffefe
    2478:	02000018 	andeq	r0, r0, #24
    247c:	0000421f 	andeq	r4, r0, pc, lsl r2
    2480:	98100000 	ldmdals	r0, {}	; <UNPREDICTABLE>
    2484:	88080017 	stmdahi	r8, {r0, r1, r2, r4}
    2488:	01000001 	tsteq	r0, r1
    248c:	0018a65d 	andseq	sl, r8, sp, asr r6
    2490:	0f230200 	svceq	0x00230200
    2494:	c7179102 	ldrgt	r9, [r7, -r2, lsl #2]
    2498:	02000018 	andeq	r0, r0, #24
    249c:	00003723 	andeq	r3, r0, r3, lsr #14
    24a0:	91020f00 	tstls	r2, r0, lsl #30
    24a4:	0018d016 	andseq	sp, r8, r6, lsl r0
    24a8:	37230200 	strcc	r0, [r3, -r0, lsl #4]!
    24ac:	0f000000 	svceq	0x00000000
    24b0:	d7109102 	ldrle	r9, [r0, -r2, lsl #2]
    24b4:	02000018 	andeq	r0, r0, #24
    24b8:	00048523 	andeq	r8, r4, r3, lsr #10
    24bc:	91020f00 	tstls	r2, r0, lsl #30
    24c0:	0018dc0f 	andseq	sp, r8, pc, lsl #24
    24c4:	37230200 	strcc	r0, [r3, -r0, lsl #4]!
    24c8:	11000000 	mrsne	r0, (UNDEF: 0)
    24cc:	e30c9102 	movw	r9, #49410	; 0xc102
    24d0:	02000018 	andeq	r0, r0, #24
    24d4:	00048a34 	andeq	r8, r4, r4, lsr sl
    24d8:	20100000 	andscs	r0, r0, r0
    24dc:	d0080019 	andle	r0, r8, r9, lsl r0
    24e0:	01000000 	mrseq	r0, (UNDEF: 0)
    24e4:	0018b25d 	andseq	fp, r8, sp, asr r2
    24e8:	0f590200 	svceq	0x00590200
    24ec:	c7179102 	ldrgt	r9, [r7, -r2, lsl #2]
    24f0:	02000018 	andeq	r0, r0, #24
    24f4:	00003759 	andeq	r3, r0, r9, asr r7
    24f8:	91020f00 	tstls	r2, r0, lsl #30
    24fc:	0018d016 	andseq	sp, r8, r6, lsl r0
    2500:	37590200 	ldrbcc	r0, [r9, -r0, lsl #4]
    2504:	0f000000 	svceq	0x00000000
    2508:	d7109102 	ldrle	r9, [r0, -r2, lsl #2]
    250c:	02000018 	andeq	r0, r0, #24
    2510:	00048559 	andeq	r8, r4, r9, asr r5
    2514:	91020f00 	tstls	r2, r0, lsl #30
    2518:	0018dc0f 	andseq	sp, r8, pc, lsl #24
    251c:	37590200 	ldrbcc	r0, [r9, -r0, lsl #4]
    2520:	11000000 	mrsne	r0, (UNDEF: 0)
    2524:	03089102 	movweq	r9, #33026	; 0x8102
    2528:	02000019 	andeq	r0, r0, #25
    252c:	00047e65 	andeq	r7, r4, r5, ror #28
    2530:	93040000 	movwls	r0, #16384	; 0x4000
    2534:	05000018 	streq	r0, [r0, #-24]	; 0xffffffe8
    2538:	00370504 	eorseq	r0, r7, r4, lsl #10
    253c:	95030000 	strls	r0, [r3, #-0]
    2540:	fa000004 	blx	2558 <__Vectors_Size+0x2360>
    2544:	01000018 	tsteq	r0, r8, lsl r0
    2548:	18eb043f 	stmiane	fp!, {r0, r1, r2, r3, r4, r5, sl}^
    254c:	02070000 	andeq	r0, r7, #0
    2550:	000c9c00 	andeq	r9, ip, r0, lsl #24
    2554:	92000400 	andls	r0, r0, #0, 8
    2558:	04000004 	streq	r0, [r0], #-4
    255c:	00190501 	andseq	r0, r9, r1, lsl #10
    2560:	49000c00 	stmdbmi	r0, {sl, fp}
    2564:	73000019 	movwvc	r0, #25
    2568:	51000013 	tstpl	r0, r3, lsl r0
    256c:	00000019 	andeq	r0, r0, r9, lsl r0
    2570:	40000000 	andmi	r0, r0, r0
    2574:	02000001 	andeq	r0, r0, #1
    2578:	00001975 	andeq	r1, r0, r5, ror r9
    257c:	00000037 	andeq	r0, r0, r7, lsr r0
    2580:	03050802 	movweq	r0, #22530	; 0x5802
    2584:	00000000 	andeq	r0, r0, r0
    2588:	00004303 	andeq	r4, r0, r3, lsl #6
    258c:	005a0400 	subseq	r0, sl, r0, lsl #8
    2590:	00040000 	andeq	r0, r4, r0
    2594:	00004805 	andeq	r4, r0, r5, lsl #16
    2598:	00530600 	subseq	r0, r3, r0, lsl #12
    259c:	19950000 	ldmibne	r5, {}	; <UNPREDICTABLE>
    25a0:	3e010000 	cdpcc	0, 0, cr0, cr1, cr0, {0}
    25a4:	00198707 	andseq	r8, r9, r7, lsl #14
    25a8:	08010800 	stmdaeq	r1, {fp}
    25ac:	0000199d 	muleq	r0, sp, r9
    25b0:	b1020708 	tstlt	r2, r8, lsl #14
    25b4:	37000019 	smladcc	r0, r9, r0, r0
    25b8:	02000000 	andeq	r0, r0, #0
    25bc:	00030509 	andeq	r0, r3, r9, lsl #10
    25c0:	02000000 	andeq	r0, r0, #0
    25c4:	000019c0 	andeq	r1, r0, r0, asr #19
    25c8:	00000083 	andeq	r0, r0, r3, lsl #1
    25cc:	03050f02 	movweq	r0, #24322	; 0x5f02
    25d0:	20023893 	mulcs	r2, r3, r8
    25d4:	00004803 	andeq	r4, r0, r3, lsl #16
    25d8:	005a0400 	subseq	r0, sl, r0, lsl #8
    25dc:	00040000 	andeq	r0, r4, r0
    25e0:	0019c609 	andseq	ip, r9, r9, lsl #12
    25e4:	00004800 	andeq	r4, r0, r0, lsl #16
    25e8:	05100200 	ldreq	r0, [r0, #-512]	; 0xfffffe00
    25ec:	0233cb03 	eorseq	ip, r3, #3072	; 0xc00
    25f0:	19d60920 	ldmibne	r6, {r5, r8, fp}^
    25f4:	00b10000 	adcseq	r0, r1, r0
    25f8:	06020000 	streq	r0, [r2], -r0
    25fc:	00000305 	andeq	r0, r0, r5, lsl #6
    2600:	b6050000 	strlt	r0, [r5], -r0
    2604:	07000000 	streq	r0, [r0, -r0]
    2608:	000019dd 	ldrdeq	r1, [r0], -sp
    260c:	e1090405 	tst	r9, r5, lsl #8
    2610:	b6000019 			; <UNDEFINED> instruction: 0xb6000019
    2614:	02000000 	andeq	r0, r0, #0
    2618:	9803050e 	stmdals	r3, {r1, r2, r3, r8, sl}
    261c:	09200238 	stmdbeq	r0!, {r3, r4, r5, r9}
    2620:	000019e8 	andeq	r1, r0, r8, ror #19
    2624:	00000083 	andeq	r0, r0, r3, lsl #1
    2628:	03050b02 	movweq	r0, #23298	; 0x5b02
    262c:	2002388f 	andcs	r3, r2, pc, lsl #17
    2630:	0019fa09 	andseq	pc, r9, r9, lsl #20
    2634:	00008300 	andeq	r8, r0, r0, lsl #6
    2638:	050c0200 	streq	r0, [ip, #-512]	; 0xfffffe00
    263c:	02388b03 	eorseq	r8, r8, #3072	; 0xc00
    2640:	03dd0a20 	bicseq	r0, sp, #32, 20	; 0x20000
    2644:	03010000 	movweq	r0, #4096	; 0x1000
    2648:	1a180b30 	bne	605310 <__Vectors_Size+0x605118>
    264c:	0b720000 	bleq	1c82654 <__Vectors_Size+0x1c8245c>
    2650:	00001a2c 	andeq	r1, r0, ip, lsr #20
    2654:	1a420b74 	bne	108542c <__Vectors_Size+0x1085234>
    2658:	0b750000 	bleq	1d42660 <__Vectors_Size+0x1d42468>
    265c:	00001a50 	andeq	r1, r0, r0, asr sl
    2660:	1a600b76 	bne	1805440 <__Vectors_Size+0x1805248>
    2664:	0b7b0000 	bleq	1ec266c <__Vectors_Size+0x1ec2474>
    2668:	00001a6c 	andeq	r1, r0, ip, ror #20
    266c:	1a7e0b7c 	bne	1f85464 <__Vectors_Size+0x1f8526c>
    2670:	0b7e0000 	bleq	1f82678 <__Vectors_Size+0x1f82480>
    2674:	00001a8a 	andeq	r1, r0, sl, lsl #21
    2678:	1a970b7f 	bne	fe5c547c <__initial_sp+0xde5a15d4>
    267c:	0b000000 	bleq	2684 <__Vectors_Size+0x248c>
    2680:	00001aa1 	andeq	r1, r0, r1, lsr #21
    2684:	1aaa0b01 	bne	fea85290 <__initial_sp+0xdea613e8>
    2688:	0b020000 	bleq	82690 <__Vectors_Size+0x82498>
    268c:	00001aba 			; <UNDEFINED> instruction: 0x00001aba
    2690:	1ac80b03 	bne	ff2052a4 <__initial_sp+0xdf1e13fc>
    2694:	0b040000 	bleq	10269c <__Vectors_Size+0x1024a4>
    2698:	00001ad3 	ldrdeq	r1, [r0], -r3
    269c:	1adc0b05 	bne	ff7052b8 <__initial_sp+0xdf6e1410>
    26a0:	0b060000 	bleq	1826a8 <__Vectors_Size+0x1824b0>
    26a4:	00001ae7 	andeq	r1, r0, r7, ror #21
    26a8:	1af20b07 	bne	ffc852cc <__initial_sp+0xdfc61424>
    26ac:	0b080000 	bleq	2026b4 <__Vectors_Size+0x2024bc>
    26b0:	00001afd 	strdeq	r1, [r0], -sp
    26b4:	1b080b09 	blne	2052e0 <__Vectors_Size+0x2050e8>
    26b8:	0b0a0000 	bleq	2826c0 <__Vectors_Size+0x2824c8>
    26bc:	00001b13 	andeq	r1, r0, r3, lsl fp
    26c0:	1b250b0b 	blne	9452f4 <__Vectors_Size+0x9450fc>
    26c4:	0b0c0000 	bleq	3026cc <__Vectors_Size+0x3024d4>
    26c8:	00001b37 	andeq	r1, r0, r7, lsr fp
    26cc:	1b490b0d 	blne	1245308 <__Vectors_Size+0x1245110>
    26d0:	0b0e0000 	bleq	3826d8 <__Vectors_Size+0x3824e0>
    26d4:	00001b5b 	andeq	r1, r0, fp, asr fp
    26d8:	1b6d0b0f 	blne	1b4531c <__Vectors_Size+0x1b45124>
    26dc:	0b100000 	bleq	4026e4 <__Vectors_Size+0x4024ec>
    26e0:	00001b7f 	andeq	r1, r0, pc, ror fp
    26e4:	1b910b11 	blne	fe445330 <__initial_sp+0xde421488>
    26e8:	0b120000 	bleq	4826f0 <__Vectors_Size+0x4824f8>
    26ec:	00001b9a 	muleq	r0, sl, fp
    26f0:	1ba70b13 	blne	fe9c5344 <__initial_sp+0xde9a149c>
    26f4:	0b140000 	bleq	5026fc <__Vectors_Size+0x502504>
    26f8:	00001bb5 			; <UNDEFINED> instruction: 0x00001bb5
    26fc:	1bc30b15 	blne	ff0c5358 <__initial_sp+0xdf0a14b0>
    2700:	0b160000 	bleq	582708 <__Vectors_Size+0x582510>
    2704:	00001bd1 	ldrdeq	r1, [r0], -r1	; <UNPREDICTABLE>
    2708:	1bde0b17 	blne	ff78536c <__initial_sp+0xdf7614c4>
    270c:	0b180000 	bleq	602714 <__Vectors_Size+0x60251c>
    2710:	00001bf1 	strdeq	r1, [r0], -r1	; <UNPREDICTABLE>
    2714:	1c040b19 			; <UNDEFINED> instruction: 0x1c040b19
    2718:	0b1a0000 	bleq	682720 <__Vectors_Size+0x682528>
    271c:	00001c1c 	andeq	r1, r0, ip, lsl ip
    2720:	1c290b1b 			; <UNDEFINED> instruction: 0x1c290b1b
    2724:	0b1c0000 	bleq	70272c <__Vectors_Size+0x702534>
    2728:	00001c33 	andeq	r1, r0, r3, lsr ip
    272c:	1c3d0b1d 			; <UNDEFINED> instruction: 0x1c3d0b1d
    2730:	0b1e0000 	bleq	782738 <__Vectors_Size+0x782540>
    2734:	00001c47 	andeq	r1, r0, r7, asr #24
    2738:	1c540b1f 	vmovne	r0, r4, d15
    273c:	0b200000 	bleq	802744 <__Vectors_Size+0x80254c>
    2740:	00001c61 	andeq	r1, r0, r1, ror #24
    2744:	1c6e0b21 			; <UNDEFINED> instruction: 0x1c6e0b21
    2748:	0b220000 	bleq	882750 <__Vectors_Size+0x882558>
    274c:	00001c7b 	andeq	r1, r0, fp, ror ip
    2750:	1c850b23 	fstmiaxne	r5, {d0-d16}	;@ Deprecated
    2754:	0b240000 	bleq	90275c <__Vectors_Size+0x902564>
    2758:	00001c8f 	andeq	r1, r0, pc, lsl #25
    275c:	1c9b0b25 	fldmiaxne	fp, {d0-d17}	;@ Deprecated
    2760:	0b260000 	bleq	982768 <__Vectors_Size+0x982570>
    2764:	00001ca7 	andeq	r1, r0, r7, lsr #25
    2768:	1cb30b27 	fldmiaxne	r3!, {d0-d18}	;@ Deprecated
    276c:	0b280000 	bleq	a02774 <__Vectors_Size+0xa0257c>
    2770:	00001cc2 	andeq	r1, r0, r2, asr #25
    2774:	1cd10b29 	fldmiaxne	r1, {d16-d35}	;@ Deprecated
    2778:	0b2a0000 	bleq	a82780 <__Vectors_Size+0xa82588>
    277c:	00001ce2 	andeq	r1, r0, r2, ror #25
    2780:	1cf60b2b 	fldmiaxne	r6!, {d16-d36}	;@ Deprecated
    2784:	0b2c0000 	bleq	b0278c <__Vectors_Size+0xb02594>
    2788:	00001d09 	andeq	r1, r0, r9, lsl #26
    278c:	1d210b2d 	fstmdbxne	r1!, {d0-d21}	;@ Deprecated
    2790:	0b2e0000 	bleq	b82798 <__Vectors_Size+0xb825a0>
    2794:	00001d2e 	andeq	r1, r0, lr, lsr #26
    2798:	1d400b2f 	vstrne	d16, [r0, #-188]	; 0xffffff44
    279c:	0b300000 	bleq	c027a4 <__Vectors_Size+0xc025ac>
    27a0:	00001d49 	andeq	r1, r0, r9, asr #26
    27a4:	1d550b31 	vldrne	d16, [r5, #-196]	; 0xffffff3c
    27a8:	0b320000 	bleq	c827b0 <__Vectors_Size+0xc825b8>
    27ac:	00001d5f 	andeq	r1, r0, pc, asr sp
    27b0:	1d690b33 	fstmdbxne	r9!, {d16-d40}	;@ Deprecated
    27b4:	0b340000 	bleq	d027bc <__Vectors_Size+0xd025c4>
    27b8:	00001d74 	andeq	r1, r0, r4, ror sp
    27bc:	1d7f0b35 	fldmdbxne	pc!, {d16-d41}	;@ Deprecated
    27c0:	0b360000 	bleq	d827c8 <__Vectors_Size+0xd825d0>
    27c4:	00001d8d 	andeq	r1, r0, sp, lsl #27
    27c8:	1d970b37 	vldrne	d0, [r7, #220]	; 0xdc
    27cc:	0b380000 	bleq	e027d4 <__Vectors_Size+0xe025dc>
    27d0:	00001da9 	andeq	r1, r0, r9, lsr #27
    27d4:	1dbb0b39 			; <UNDEFINED> instruction: 0x1dbb0b39
    27d8:	0b3a0000 	bleq	e827e0 <__Vectors_Size+0xe825e8>
    27dc:	00001dcd 	andeq	r1, r0, sp, asr #27
    27e0:	1ddf0b3b 	vldrne	d16, [pc, #236]	; 28d4 <__Vectors_Size+0x26dc>
    27e4:	0b3c0000 	bleq	f027ec <__Vectors_Size+0xf025f4>
    27e8:	00001df1 	strdeq	r1, [r0], -r1	; <UNPREDICTABLE>
    27ec:	1dfa0b3d 			; <UNDEFINED> instruction: 0x1dfa0b3d
    27f0:	0b3e0000 	bleq	f827f8 <__Vectors_Size+0xf82600>
    27f4:	00001e08 	andeq	r1, r0, r8, lsl #28
    27f8:	1e150b3f 	vmovne.s16	r0, d5[0]
    27fc:	00c00000 	sbceq	r0, r0, r0
    2800:	001e230b 	andseq	r2, lr, fp, lsl #6
    2804:	0b00c100 	bleq	32c0c <__Vectors_Size+0x32a14>
    2808:	00001e31 	andeq	r1, r0, r1, lsr lr
    280c:	3f0b00c2 	svccc	0x000b00c2
    2810:	c300001e 	movwgt	r0, #30
    2814:	1e4b0b00 	vmlane.f64	d16, d11, d0
    2818:	00c40000 	sbceq	r0, r4, r0
    281c:	001e5d0b 	andseq	r5, lr, fp, lsl #26
    2820:	0b00c500 	bleq	33c28 <__Vectors_Size+0x33a30>
    2824:	00001e6f 	andeq	r1, r0, pc, ror #28
    2828:	810b00c6 	smlabthi	fp, r6, r0, r0
    282c:	c700001e 	smladgt	r0, lr, r0, r0
    2830:	1e8d0b00 	vdivne.f64	d0, d13, d0
    2834:	00c80000 	sbceq	r0, r8, r0
    2838:	001e9a0b 	andseq	r9, lr, fp, lsl #20
    283c:	0b00c900 	bleq	34c44 <__Vectors_Size+0x34a4c>
    2840:	00001ea7 	andeq	r1, r0, r7, lsr #29
    2844:	bb0b00ca 	bllt	2c2b74 <__Vectors_Size+0x2c297c>
    2848:	cb00001e 	blgt	28c8 <__Vectors_Size+0x26d0>
    284c:	1ece0b00 	vdivne.f64	d16, d14, d0
    2850:	00cc0000 	sbceq	r0, ip, r0
    2854:	001edf0b 	andseq	sp, lr, fp, lsl #30
    2858:	0b00cd00 	bleq	35c60 <__Vectors_Size+0x35a68>
    285c:	00001eeb 	andeq	r1, r0, fp, ror #29
    2860:	f50b00ce 			; <UNDEFINED> instruction: 0xf50b00ce
    2864:	d000001e 	andle	r0, r0, lr, lsl r0
    2868:	1efe0b00 	vmovne.f64	d16, #224	; 0xbf000000 -0.5
    286c:	00d10000 	sbcseq	r0, r1, r0
    2870:	001f070b 	andseq	r0, pc, fp, lsl #14
    2874:	0b00d200 	bleq	3707c <__Vectors_Size+0x36e84>
    2878:	00001f12 	andeq	r1, r0, r2, lsl pc
    287c:	1d0b00d3 	stcne	0, cr0, [fp, #-844]	; 0xfffffcb4
    2880:	d400001f 	strle	r0, [r0], #-31	; 0xffffffe1
    2884:	1f270b00 	svcne	0x00270b00
    2888:	00d50000 	sbcseq	r0, r5, r0
    288c:	001f310b 	andseq	r3, pc, fp, lsl #2
    2890:	0b00d600 	bleq	38098 <__Vectors_Size+0x37ea0>
    2894:	00001f3b 	andeq	r1, r0, fp, lsr pc
    2898:	450b00d7 	strmi	r0, [fp, #-215]	; 0xffffff29
    289c:	d800001f 	stmdale	r0, {r0, r1, r2, r3, r4}
    28a0:	1f4f0b00 	svcne	0x004f0b00
    28a4:	00d90000 	sbcseq	r0, r9, r0
    28a8:	001f5c0b 	andseq	r5, pc, fp, lsl #24
    28ac:	0b00da00 	bleq	390b4 <__Vectors_Size+0x38ebc>
    28b0:	00001f67 	andeq	r1, r0, r7, ror #30
    28b4:	710b00db 	ldrdvc	r0, [fp, -fp]
    28b8:	dc00001f 	stcle	0, cr0, [r0], {31}
    28bc:	1f7e0b00 	svcne	0x007e0b00
    28c0:	00dd0000 	sbcseq	r0, sp, r0
    28c4:	001f8a0b 	andseq	r8, pc, fp, lsl #20
    28c8:	0b00de00 	bleq	3a0d0 <__Vectors_Size+0x39ed8>
    28cc:	00001f93 	muleq	r0, r3, pc	; <UNPREDICTABLE>
    28d0:	a00b00df 	ldrdge	r0, [fp], -pc	; <UNPREDICTABLE>
    28d4:	e000001f 	and	r0, r0, pc, lsl r0
    28d8:	1fad0b00 	svcne	0x00ad0b00
    28dc:	00e10000 	rsceq	r0, r1, r0
    28e0:	001fbb0b 	andseq	fp, pc, fp, lsl #22
    28e4:	0b00e300 	bleq	3b4ec <__Vectors_Size+0x3b2f4>
    28e8:	00001fcc 	andeq	r1, r0, ip, asr #31
    28ec:	dd0b00e4 	stcle	0, cr0, [fp, #-912]	; 0xfffffc70
    28f0:	e500001f 	str	r0, [r0, #-31]	; 0xffffffe1
    28f4:	1fee0b00 	svcne	0x00ee0b00
    28f8:	00e60000 	rsceq	r0, r6, r0
    28fc:	001fff0b 	andseq	pc, pc, fp, lsl #30
    2900:	0b00e700 	bleq	3c508 <__Vectors_Size+0x3c310>
    2904:	0000200b 	andeq	r2, r0, fp
    2908:	180b00e8 	stmdane	fp, {r3, r5, r6, r7}
    290c:	e9000020 	stmdb	r0, {r5}
    2910:	20260b00 	eorcs	r0, r6, r0, lsl #22
    2914:	00ea0000 	rsceq	r0, sl, r0
    2918:	0020340b 	eoreq	r3, r0, fp, lsl #8
    291c:	0b00eb00 	bleq	3d524 <__Vectors_Size+0x3d32c>
    2920:	00002042 	andeq	r2, r0, r2, asr #32
    2924:	4c0b00ec 	stcmi	0, cr0, [fp], {236}	; 0xec
    2928:	ed000020 	stc	0, cr0, [r0, #-128]	; 0xffffff80
    292c:	0c070000 	stceq	0, cr0, [r7], {-0}
    2930:	0600001a 			; <UNDEFINED> instruction: 0x0600001a
    2934:	03e90c01 	mvneq	r0, #256	; 0x100
    2938:	f50d0000 			; <UNDEFINED> instruction: 0xf50d0000
    293c:	85000003 	strhi	r0, [r0, #-3]
    2940:	03000021 	movweq	r0, #33	; 0x21
    2944:	940e0311 	strls	r0, [lr], #-785	; 0xfffffcef
    2948:	0f02ed03 	svceq	0x0002ed03
    294c:	00002057 	andeq	r2, r0, r7, asr r0
    2950:	000005a8 	andeq	r0, r0, r8, lsr #11
    2954:	0002ef03 	andeq	lr, r2, r3, lsl #30
    2958:	0020700f 	eoreq	r7, r0, pc
    295c:	0005a800 	andeq	sl, r5, r0, lsl #16
    2960:	02f00300 	rscseq	r0, r0, #0, 6
    2964:	20780f04 	rsbscs	r0, r8, r4, lsl #30
    2968:	05a80000 	streq	r0, [r8, #0]!
    296c:	f1030000 			; <UNDEFINED> instruction: 0xf1030000
    2970:	7d0f0802 	stcvc	8, cr0, [pc, #-8]	; 2970 <__Vectors_Size+0x2778>
    2974:	a8000020 	stmdage	r0, {r5}
    2978:	03000005 	movweq	r0, #5
    297c:	0f0c02f2 	svceq	0x000c02f2
    2980:	00002081 	andeq	r2, r0, r1, lsl #1
    2984:	000005a8 	andeq	r0, r0, r8, lsr #11
    2988:	1002f303 	andne	pc, r2, r3, lsl #6
    298c:	00208a0f 	eoreq	r8, r0, pc, lsl #20
    2990:	0005a800 	andeq	sl, r5, r0, lsl #16
    2994:	02f40300 	rscseq	r0, r4, #0, 6
    2998:	20930f14 	addscs	r0, r3, r4, lsl pc
    299c:	05a80000 	streq	r0, [r8, #0]!
    29a0:	f5030000 			; <UNDEFINED> instruction: 0xf5030000
    29a4:	9c0f1802 	stcls	8, cr1, [pc], {2}
    29a8:	ad000020 	stcge	0, cr0, [r0, #-128]	; 0xffffff80
    29ac:	03000005 	movweq	r0, #5
    29b0:	0f1c02f6 	svceq	0x001c02f6
    29b4:	000020a6 	andeq	r2, r0, r6, lsr #1
    29b8:	000005a8 	andeq	r0, r0, r8, lsr #11
    29bc:	2002f703 	andcs	pc, r2, r3, lsl #14
    29c0:	0020af0f 	eoreq	sl, r0, pc, lsl #30
    29c4:	0005a800 	andeq	sl, r5, r0, lsl #16
    29c8:	02f80300 	rscseq	r0, r8, #0, 6
    29cc:	20b80f24 	adcscs	r0, r8, r4, lsr #30
    29d0:	05bf0000 	ldreq	r0, [pc, #0]!	; 29d8 <__Vectors_Size+0x27e0>
    29d4:	f9030000 			; <UNDEFINED> instruction: 0xf9030000
    29d8:	c20f2802 	andgt	r2, pc, #131072	; 0x20000
    29dc:	a8000020 	stmdage	r0, {r5}
    29e0:	03000005 	movweq	r0, #5
    29e4:	0f3002fa 	svceq	0x003002fa
    29e8:	000020ca 	andeq	r2, r0, sl, asr #1
    29ec:	000005a8 	andeq	r0, r0, r8, lsr #11
    29f0:	3402fb03 	strcc	pc, [r2], #-2819	; 0xfffff4fd
    29f4:	0020d20f 	eoreq	sp, r0, pc, lsl #4
    29f8:	0005a800 	andeq	sl, r5, r0, lsl #16
    29fc:	02fc0300 	rscseq	r0, ip, #0, 6
    2a00:	20da0f38 	sbcscs	r0, sl, r8, lsr pc
    2a04:	05ad0000 	streq	r0, [sp, #0]!
    2a08:	fd030000 	stc2	0, cr0, [r3, #-0]
    2a0c:	e40f3c02 	str	r3, [pc], #-3074	; 2a14 <__Vectors_Size+0x281c>
    2a10:	a8000020 	stmdage	r0, {r5}
    2a14:	03000005 	movweq	r0, #5
    2a18:	0f4002fe 	svceq	0x004002fe
    2a1c:	000020ec 	andeq	r2, r0, ip, ror #1
    2a20:	000005a8 	andeq	r0, r0, r8, lsr #11
    2a24:	4402ff03 	strmi	pc, [r2], #-3843	; 0xfffff0fd
    2a28:	0020f40f 	eoreq	pc, r0, pc, lsl #8
    2a2c:	0005bf00 	andeq	fp, r5, r0, lsl #30
    2a30:	03000300 	movweq	r0, #768	; 0x300
    2a34:	20fe0f48 	rscscs	r0, lr, r8, asr #30
    2a38:	05a80000 	streq	r0, [r8, #0]!
    2a3c:	01030000 	mrseq	r0, (UNDEF: 3)
    2a40:	080f5003 	stmdaeq	pc, {r0, r1, ip, lr}	; <UNPREDICTABLE>
    2a44:	a8000021 	stmdage	r0, {r0, r5}
    2a48:	03000005 	movweq	r0, #5
    2a4c:	0f540302 	svceq	0x00540302
    2a50:	00002112 	andeq	r2, r0, r2, lsl r1
    2a54:	000005a8 	andeq	r0, r0, r8, lsr #11
    2a58:	58030303 	stmdapl	r3, {r0, r1, r8, r9}
    2a5c:	00211c0f 	eoreq	r1, r1, pc, lsl #24
    2a60:	0005ad00 	andeq	sl, r5, r0, lsl #26
    2a64:	03040300 	movweq	r0, #17152	; 0x4300
    2a68:	21260f5c 			; <UNDEFINED> instruction: 0x21260f5c
    2a6c:	05a80000 	streq	r0, [r8, #0]!
    2a70:	05030000 	streq	r0, [r3, #-0]
    2a74:	300f6003 	andcc	r6, pc, r3
    2a78:	a8000021 	stmdage	r0, {r0, r5}
    2a7c:	03000005 	movweq	r0, #5
    2a80:	0f640306 	svceq	0x00640306
    2a84:	0000213a 	andeq	r2, r0, sl, lsr r1
    2a88:	000005bf 			; <UNDEFINED> instruction: 0x000005bf
    2a8c:	68030703 	stmdavs	r3, {r0, r1, r8, r9, sl}
    2a90:	0021440f 	eoreq	r4, r1, pc, lsl #8
    2a94:	0005a800 	andeq	sl, r5, r0, lsl #16
    2a98:	03080300 	movweq	r0, #33536	; 0x8300
    2a9c:	21490f70 	hvccs	37104	; 0x90f0
    2aa0:	05a80000 	streq	r0, [r8, #0]!
    2aa4:	09030000 	stmdbeq	r3, {}	; <UNPREDICTABLE>
    2aa8:	4d0f7403 	cfstrsmi	mvf7, [pc, #-12]	; 2aa4 <__Vectors_Size+0x28ac>
    2aac:	bf000021 	svclt	0x00000021
    2ab0:	03000005 	movweq	r0, #5
    2ab4:	0f78030a 	svceq	0x0078030a
    2ab8:	00002157 	andeq	r2, r0, r7, asr r1
    2abc:	000005a8 	andeq	r0, r0, r8, lsr #11
    2ac0:	80030b03 	andhi	r0, r3, r3, lsl #22
    2ac4:	00215d0f 	eoreq	r5, r1, pc, lsl #26
    2ac8:	0005a800 	andeq	sl, r5, r0, lsl #16
    2acc:	030c0300 	movweq	r0, #49920	; 0xc300
    2ad0:	21680f84 	smulbbcs	r8, r4, pc	; <UNPREDICTABLE>
    2ad4:	05a80000 	streq	r0, [r8, #0]!
    2ad8:	0d030000 	stceq	0, cr0, [r3, #-0]
    2adc:	730f8803 	movwvc	r8, #63491	; 0xf803
    2ae0:	a8000021 	stmdage	r0, {r0, r5}
    2ae4:	03000005 	movweq	r0, #5
    2ae8:	0f8c030e 	svceq	0x008c030e
    2aec:	0000217c 	andeq	r2, r0, ip, ror r1
    2af0:	000005a8 	andeq	r0, r0, r8, lsr #11
    2af4:	90030f03 	andls	r0, r3, r3, lsl #30
    2af8:	05ad0500 	streq	r0, [sp, #1280]!	; 0x500
    2afc:	b8060000 	stmdalt	r6, {}	; <UNPREDICTABLE>
    2b00:	67000005 	strvs	r0, [r0, -r5]
    2b04:	01000020 	tsteq	r0, r0, lsr #32
    2b08:	205a0740 	subscs	r0, sl, r0, asr #14
    2b0c:	04070000 	streq	r0, [r7], #-0
    2b10:	0005ad03 	andeq	sl, r5, r3, lsl #26
    2b14:	005a0400 	subseq	r0, sl, r0, lsl #8
    2b18:	00020000 	andeq	r0, r2, r0
    2b1c:	0005d00c 	andeq	sp, r5, ip
    2b20:	05dc0d00 	ldrbeq	r0, [ip, #3328]	; 0xd00
    2b24:	21c20000 	biccs	r0, r2, r0
    2b28:	7b030000 	blvc	c2b30 <__Vectors_Size+0xc2938>
    2b2c:	03280e02 			; <UNDEFINED> instruction: 0x03280e02
    2b30:	910f0270 	tstls	pc, r0, ror r2	; <UNPREDICTABLE>
    2b34:	a8000021 	stmdage	r0, {r0, r5}
    2b38:	03000005 	movweq	r0, #5
    2b3c:	0f000272 	svceq	0x00000272
    2b40:	00002197 	muleq	r0, r7, r1
    2b44:	000005a8 	andeq	r0, r0, r8, lsr #11
    2b48:	04027303 	streq	r7, [r2], #-771	; 0xfffffcfd
    2b4c:	00219e0f 	eoreq	r9, r1, pc, lsl #28
    2b50:	0005a800 	andeq	sl, r5, r0, lsl #16
    2b54:	02740300 	rsbseq	r0, r4, #0, 6
    2b58:	21a60f08 			; <UNDEFINED> instruction: 0x21a60f08
    2b5c:	05a80000 	streq	r0, [r8, #0]!
    2b60:	75030000 	strvc	r0, [r3, #-0]
    2b64:	ac0f0c02 	stcge	12, cr0, [pc], {2}
    2b68:	a8000021 	stmdage	r0, {r0, r5}
    2b6c:	03000005 	movweq	r0, #5
    2b70:	0f100276 	svceq	0x00100276
    2b74:	000021b0 			; <UNDEFINED> instruction: 0x000021b0
    2b78:	000005a8 	andeq	r0, r0, r8, lsr #11
    2b7c:	14027703 	strne	r7, [r2], #-1795	; 0xfffff8fd
    2b80:	0021b40f 	eoreq	fp, r1, pc, lsl #8
    2b84:	0005a800 	andeq	sl, r5, r0, lsl #16
    2b88:	02780300 	rsbseq	r0, r8, #0, 6
    2b8c:	21b90f18 			; <UNDEFINED> instruction: 0x21b90f18
    2b90:	05a80000 	streq	r0, [r8, #0]!
    2b94:	79030000 	stmdbvc	r3, {}	; <UNPREDICTABLE>
    2b98:	be0f1c02 	cdplt	12, 0, cr1, cr15, cr2, {0}
    2b9c:	57000021 	strpl	r0, [r0, -r1, lsr #32]
    2ba0:	03000006 	movweq	r0, #6
    2ba4:	0020027a 	eoreq	r0, r0, sl, ror r2
    2ba8:	0005a803 	andeq	sl, r5, r3, lsl #16
    2bac:	005a0400 	subseq	r0, sl, r0, lsl #8
    2bb0:	00020000 	andeq	r0, r2, r0
    2bb4:	0006680c 	andeq	r6, r6, ip, lsl #16
    2bb8:	06740d00 	ldrbteq	r0, [r4], -r0, lsl #26
    2bbc:	21fd0000 	mvnscs	r0, r0
    2bc0:	fa030000 	blx	c2bc8 <__Vectors_Size+0xc29d0>
    2bc4:	032c0e03 			; <UNDEFINED> instruction: 0x032c0e03
    2bc8:	cf0f03ed 	svcgt	0x000f03ed
    2bcc:	a8000021 	stmdage	r0, {r0, r5}
    2bd0:	03000005 	movweq	r0, #5
    2bd4:	0f0003ef 	svceq	0x000003ef
    2bd8:	000021d3 	ldrdeq	r2, [r0], -r3
    2bdc:	000005a8 	andeq	r0, r0, r8, lsr #11
    2be0:	0403f003 	streq	pc, [r3], #-3
    2be4:	0021d70f 	eoreq	sp, r1, pc, lsl #14
    2be8:	0005a800 	andeq	sl, r5, r0, lsl #16
    2bec:	03f10300 	mvnseq	r0, #0, 6
    2bf0:	21db0f08 	bicscs	r0, fp, r8, lsl #30
    2bf4:	05a80000 	streq	r0, [r8, #0]!
    2bf8:	f2030000 	vhadd.s8	d0, d3, d0
    2bfc:	df0f0c03 	svcle	0x000f0c03
    2c00:	a8000021 	stmdage	r0, {r0, r5}
    2c04:	03000005 	movweq	r0, #5
    2c08:	0f1003f3 	svceq	0x001003f3
    2c0c:	000021e4 	andeq	r2, r0, r4, ror #3
    2c10:	000005a8 	andeq	r0, r0, r8, lsr #11
    2c14:	1403f403 	strne	pc, [r3], #-1027	; 0xfffffbfd
    2c18:	0021e90f 	eoreq	lr, r1, pc, lsl #18
    2c1c:	0005a800 	andeq	sl, r5, r0, lsl #16
    2c20:	03f50300 	mvnseq	r0, #0, 6
    2c24:	21ed0f18 	mvncs	r0, r8, lsl pc
    2c28:	05a80000 	streq	r0, [r8, #0]!
    2c2c:	f6030000 			; <UNDEFINED> instruction: 0xf6030000
    2c30:	f10f1c03 			; <UNDEFINED> instruction: 0xf10f1c03
    2c34:	a8000021 	stmdage	r0, {r0, r5}
    2c38:	03000005 	movweq	r0, #5
    2c3c:	0f2003f7 	svceq	0x002003f7
    2c40:	000021f5 	strdeq	r2, [r0], -r5
    2c44:	000005a8 	andeq	r0, r0, r8, lsr #11
    2c48:	2403f803 	strcs	pc, [r3], #-2051	; 0xfffff7fd
    2c4c:	0021f90f 	eoreq	pc, r1, pc, lsl #18
    2c50:	0005a800 	andeq	sl, r5, r0, lsl #16
    2c54:	03f90300 	mvnseq	r0, #0, 6
    2c58:	14060028 	strne	r0, [r6], #-40	; 0xffffffd8
    2c5c:	1a000007 	bne	2c80 <__Vectors_Size+0x2a88>
    2c60:	01000022 	tsteq	r0, r2, lsr #32
    2c64:	220b073f 	andcs	r0, fp, #16515072	; 0xfc0000
    2c68:	02070000 	andeq	r0, r7, #0
    2c6c:	0000b606 	andeq	fp, r0, r6, lsl #12
    2c70:	00222300 	eoreq	r2, r2, r0, lsl #6
    2c74:	0c3a0100 	ldfeqs	f0, [sl], #-0
    2c78:	0000072b 	andeq	r0, r0, fp, lsr #14
    2c7c:	0007370d 	andeq	r3, r7, sp, lsl #14
    2c80:	00224c00 	eoreq	r4, r2, r0, lsl #24
    2c84:	01b90400 			; <UNDEFINED> instruction: 0x01b90400
    2c88:	040e0410 	streq	r0, [lr], #-1040	; 0xfffffbf0
    2c8c:	2b0f01aa 	blcs	3c333c <__Vectors_Size+0x3c3144>
    2c90:	f0000022 			; <UNDEFINED> instruction: 0xf0000022
    2c94:	04000007 	streq	r0, [r0], #-7
    2c98:	0f0001ac 	svceq	0x000001ac
    2c9c:	0000209c 	muleq	r0, ip, r0
    2ca0:	000007fc 	strdeq	r0, [r0], -ip
    2ca4:	2001ad04 	andcs	sl, r1, r4, lsl #26
    2ca8:	0022300f 	eoreq	r3, r2, pc
    2cac:	0007f000 	andeq	pc, r7, r0
    2cb0:	01ae0400 			; <UNDEFINED> instruction: 0x01ae0400
    2cb4:	20b80f80 	adcscs	r0, r8, r0, lsl #31
    2cb8:	07fc0000 	ldrbeq	r0, [ip, r0]!
    2cbc:	af040000 	svcge	0x00040000
    2cc0:	3511a001 	ldrcc	sl, [r1, #-1]
    2cc4:	f0000022 			; <UNDEFINED> instruction: 0xf0000022
    2cc8:	04000007 	streq	r0, [r0], #-7
    2ccc:	010001b0 			; <UNDEFINED> instruction: 0x010001b0
    2cd0:	0020da11 	eoreq	sp, r0, r1, lsl sl
    2cd4:	0007fc00 	andeq	pc, r7, r0, lsl #24
    2cd8:	01b10400 			; <UNDEFINED> instruction: 0x01b10400
    2cdc:	3a110120 	bcc	443164 <__Vectors_Size+0x442f6c>
    2ce0:	f0000022 			; <UNDEFINED> instruction: 0xf0000022
    2ce4:	04000007 	streq	r0, [r0], #-7
    2ce8:	018001b2 			; <UNDEFINED> instruction: 0x018001b2
    2cec:	0020f411 	eoreq	pc, r0, r1, lsl r4	; <UNPREDICTABLE>
    2cf0:	0007fc00 	andeq	pc, r7, r0, lsl #24
    2cf4:	01b30400 			; <UNDEFINED> instruction: 0x01b30400
    2cf8:	3f1101a0 	svccc	0x001101a0
    2cfc:	f0000022 			; <UNDEFINED> instruction: 0xf0000022
    2d00:	04000007 	streq	r0, [r0], #-7
    2d04:	020001b4 	andeq	r0, r0, #180, 2	; 0x2d
    2d08:	00211c11 	eoreq	r1, r1, r1, lsl ip
    2d0c:	00080800 	andeq	r0, r8, r0, lsl #16
    2d10:	01b50400 			; <UNDEFINED> instruction: 0x01b50400
    2d14:	44110220 	ldrmi	r0, [r1], #-544	; 0xfffffde0
    2d18:	14000022 	strne	r0, [r0], #-34	; 0xffffffde
    2d1c:	04000008 	streq	r0, [r0], #-8
    2d20:	030001b6 	movweq	r0, #438	; 0x1b6
    2d24:	00213a11 	eoreq	r3, r1, r1, lsl sl
    2d28:	00082000 	andeq	r2, r8, r0
    2d2c:	01b70400 			; <UNDEFINED> instruction: 0x01b70400
    2d30:	471103f0 			; <UNDEFINED> instruction: 0x471103f0
    2d34:	a8000022 	stmdage	r0, {r1, r5}
    2d38:	04000005 	streq	r0, [r0], #-5
    2d3c:	0e0001b8 	mcreq	1, 0, r0, cr0, cr8, {5}
    2d40:	05a80300 	streq	r0, [r8, #768]!	; 0x300
    2d44:	5a040000 	bpl	102d4c <__Vectors_Size+0x102b54>
    2d48:	08000000 	stmdaeq	r0, {}	; <UNPREDICTABLE>
    2d4c:	05ad0300 	streq	r0, [sp, #768]!	; 0x300
    2d50:	5a040000 	bpl	102d58 <__Vectors_Size+0x102b60>
    2d54:	18000000 	stmdane	r0, {}	; <UNPREDICTABLE>
    2d58:	05ad0300 	streq	r0, [sp, #768]!	; 0x300
    2d5c:	5a040000 	bpl	102d64 <__Vectors_Size+0x102b6c>
    2d60:	38000000 	stmdacc	r0, {}	; <UNPREDICTABLE>
    2d64:	00430300 	subeq	r0, r3, r0, lsl #6
    2d68:	5a040000 	bpl	102d70 <__Vectors_Size+0x102b78>
    2d6c:	f0000000 			; <UNDEFINED> instruction: 0xf0000000
    2d70:	05ad0300 	streq	r0, [sp, #768]!	; 0x300
    2d74:	5a120000 	bpl	482d7c <__Vectors_Size+0x482b84>
    2d78:	84000000 	strhi	r0, [r0], #-0
    2d7c:	320c0002 	andcc	r0, ip, #2
    2d80:	0d000008 	stceq	0, cr0, [r0, #-32]	; 0xffffffe0
    2d84:	0000083e 	andeq	r0, r0, lr, lsr r8
    2d88:	00002378 	andeq	r2, r0, r8, ror r3
    2d8c:	10020104 	andne	r0, r2, r4, lsl #2
    2d90:	cc0402ac 	sfmgt	f0, 4, [r4], {172}	; 0xac
    2d94:	22560f01 	subscs	r0, r6, #1, 30
    2d98:	0af50000 	beq	ffd42da0 <__initial_sp+0xdfd1eef8>
    2d9c:	ce040000 	cdpgt	0, 0, cr0, cr4, cr0, {0}
    2da0:	5c0f0001 	stcpl	0, cr0, [pc], {1}
    2da4:	a8000022 	stmdage	r0, {r1, r5}
    2da8:	04000005 	streq	r0, [r0], #-5
    2dac:	0f0401cf 	svceq	0x000401cf
    2db0:	00002261 	andeq	r2, r0, r1, ror #4
    2db4:	000005a8 	andeq	r0, r0, r8, lsr #11
    2db8:	0801d004 	stmdaeq	r1, {r2, ip, lr, pc}
    2dbc:	0022660f 	eoreq	r6, r2, pc, lsl #12
    2dc0:	0005a800 	andeq	sl, r5, r0, lsl #16
    2dc4:	01d10400 	bicseq	r0, r1, r0, lsl #8
    2dc8:	226c0f0c 	rsbcs	r0, ip, #12, 30	; 0x30
    2dcc:	05a80000 	streq	r0, [r8, #0]!
    2dd0:	d2040000 	andle	r0, r4, #0
    2dd4:	700f1001 	andvc	r1, pc, r1
    2dd8:	a8000022 	stmdage	r0, {r1, r5}
    2ddc:	04000005 	streq	r0, [r0], #-5
    2de0:	0f1401d3 	svceq	0x001401d3
    2de4:	00002274 	andeq	r2, r0, r4, ror r2
    2de8:	00000afa 	strdeq	r0, [r0], -sl
    2dec:	1801d404 	stmdane	r1, {r2, sl, ip, lr, pc}
    2df0:	0022790f 	eoreq	r7, r2, pc, lsl #18
    2df4:	0005a800 	andeq	sl, r5, r0, lsl #16
    2df8:	01d50400 	bicseq	r0, r5, r0, lsl #8
    2dfc:	227f0f24 	rsbscs	r0, pc, #36, 30	; 0x90
    2e00:	05a80000 	streq	r0, [r8, #0]!
    2e04:	d6040000 	strle	r0, [r4], -r0
    2e08:	840f2801 	strhi	r2, [pc], #-2049	; 2e10 <__Vectors_Size+0x2c18>
    2e0c:	a8000022 	stmdage	r0, {r1, r5}
    2e10:	04000005 	streq	r0, [r0], #-5
    2e14:	0f2c01d7 	svceq	0x002c01d7
    2e18:	00002289 	andeq	r2, r0, r9, lsl #5
    2e1c:	000005a8 	andeq	r0, r0, r8, lsr #11
    2e20:	3001d804 	andcc	sp, r1, r4, lsl #16
    2e24:	00228e0f 	eoreq	r8, r2, pc, lsl #28
    2e28:	0005a800 	andeq	sl, r5, r0, lsl #16
    2e2c:	01d90400 	bicseq	r0, r9, r0, lsl #8
    2e30:	22940f34 	addscs	r0, r4, #52, 30	; 0xd0
    2e34:	05a80000 	streq	r0, [r8, #0]!
    2e38:	da040000 	ble	102e40 <__Vectors_Size+0x102c48>
    2e3c:	990f3801 	stmdbls	pc, {r0, fp, ip, sp}	; <UNPREDICTABLE>
    2e40:	a8000022 	stmdage	r0, {r1, r5}
    2e44:	04000005 	streq	r0, [r0], #-5
    2e48:	0f3c01db 	svceq	0x003c01db
    2e4c:	0000229e 	muleq	r0, lr, r2
    2e50:	00000b06 	andeq	r0, r0, r6, lsl #22
    2e54:	4001dc04 	andmi	sp, r1, r4, lsl #24
    2e58:	0022a50f 	eoreq	sl, r2, pc, lsl #10
    2e5c:	000af500 	andeq	pc, sl, r0, lsl #10
    2e60:	01dd0400 	bicseq	r0, sp, r0, lsl #8
    2e64:	22ac0f48 	adccs	r0, ip, #72, 30	; 0x120
    2e68:	0af50000 	beq	ffd42e70 <__initial_sp+0xdfd1efc8>
    2e6c:	de040000 	cdple	0, 0, cr0, cr4, cr0, {0}
    2e70:	b30f4c01 	movwlt	r4, #64513	; 0xfc01
    2e74:	12000022 	andne	r0, r0, #34	; 0x22
    2e78:	0400000b 	streq	r0, [r0], #-11
    2e7c:	0f5001df 	svceq	0x005001df
    2e80:	000022ba 			; <UNDEFINED> instruction: 0x000022ba
    2e84:	00000b1e 	andeq	r0, r0, lr, lsl fp
    2e88:	6001e004 	andvs	lr, r1, r4
    2e8c:	00209c0f 	eoreq	r9, r0, pc, lsl #24
    2e90:	000b2a00 	andeq	r2, fp, r0, lsl #20
    2e94:	01e10400 	mvneq	r0, r0, lsl #8
    2e98:	22c20f74 	sbccs	r0, r2, #116, 30	; 0x1d0
    2e9c:	0af50000 	beq	ffd42ea4 <__initial_sp+0xdfd1effc>
    2ea0:	e2040000 	and	r0, r4, #0
    2ea4:	c80f7801 	stmdagt	pc, {r0, fp, ip, sp, lr}	; <UNPREDICTABLE>
    2ea8:	f5000022 			; <UNDEFINED> instruction: 0xf5000022
    2eac:	0400000a 	streq	r0, [r0], #-10
    2eb0:	0f7c01e3 	svceq	0x007c01e3
    2eb4:	000022cc 	andeq	r2, r0, ip, asr #5
    2eb8:	00000af5 	strdeq	r0, [r0], -r5
    2ebc:	8001e404 	andhi	lr, r1, r4, lsl #8
    2ec0:	0022d30f 	eoreq	sp, r2, pc, lsl #6
    2ec4:	0005a800 	andeq	sl, r5, r0, lsl #16
    2ec8:	01e50400 	mvneq	r0, r0, lsl #8
    2ecc:	22da0f84 	sbcscs	r0, sl, #132, 30	; 0x210
    2ed0:	05a80000 	streq	r0, [r8, #0]!
    2ed4:	e6040000 	str	r0, [r4], -r0
    2ed8:	f40f8801 	vst2.8	{d8-d9}, [pc], r1
    2edc:	36000020 	strcc	r0, [r0], -r0, lsr #32
    2ee0:	0400000b 	streq	r0, [r0], #-11
    2ee4:	118c01e7 	orrne	r0, ip, r7, ror #3
    2ee8:	00002247 	andeq	r2, r0, r7, asr #4
    2eec:	000005a8 	andeq	r0, r0, r8, lsr #11
    2ef0:	0001e804 	andeq	lr, r1, r4, lsl #16
    2ef4:	211c1102 	tstcs	ip, r2, lsl #2
    2ef8:	0b420000 	bleq	1082f00 <__Vectors_Size+0x1082d08>
    2efc:	e9040000 	stmdb	r4, {}	; <UNPREDICTABLE>
    2f00:	11020401 	tstne	r2, r1, lsl #8
    2f04:	000022e0 	andeq	r2, r0, r0, ror #5
    2f08:	00000af5 	strdeq	r0, [r0], -r5
    2f0c:	4001ea04 	andmi	lr, r1, r4, lsl #20
    2f10:	22e61102 	rsccs	r1, r6, #-2147483648	; 0x80000000
    2f14:	0af50000 	beq	ffd42f1c <__initial_sp+0xdfd1f074>
    2f18:	eb040000 	bl	102f20 <__Vectors_Size+0x102d28>
    2f1c:	11024401 	tstne	r2, r1, lsl #8
    2f20:	000022ec 	andeq	r2, r0, ip, ror #5
    2f24:	00000af5 	strdeq	r0, [r0], -r5
    2f28:	4801ec04 	stmdami	r1, {r2, sl, fp, sp, lr, pc}
    2f2c:	213a1102 	teqcs	sl, r2, lsl #2
    2f30:	0b2a0000 	bleq	a82f38 <__Vectors_Size+0xa82d40>
    2f34:	ed040000 	stc	0, cr0, [r4, #-0]
    2f38:	11024c01 	tstne	r2, r1, lsl #24
    2f3c:	000022f2 	strdeq	r2, [r0], -r2	; <UNPREDICTABLE>
    2f40:	000005a8 	andeq	r0, r0, r8, lsr #11
    2f44:	5001ee04 	andpl	lr, r1, r4, lsl #28
    2f48:	214d1102 	cmpcs	sp, r2, lsl #2
    2f4c:	0b2a0000 	bleq	a82f54 <__Vectors_Size+0xa82d5c>
    2f50:	ef040000 	svc	0x00040000
    2f54:	11025401 	tstne	r2, r1, lsl #8
    2f58:	000022fa 	strdeq	r2, [r0], -sl
    2f5c:	000005a8 	andeq	r0, r0, r8, lsr #11
    2f60:	5801f004 	stmdapl	r1, {r2, ip, sp, lr, pc}
    2f64:	23021102 	movwcs	r1, #8450	; 0x2102
    2f68:	05a80000 	streq	r0, [r8, #0]!
    2f6c:	f1040000 	cps	#0
    2f70:	11025c01 	tstne	r2, r1, lsl #24
    2f74:	0000230a 	andeq	r2, r0, sl, lsl #6
    2f78:	000005a8 	andeq	r0, r0, r8, lsr #11
    2f7c:	6001f204 	andvs	pc, r1, r4, lsl #4
    2f80:	23101102 	tstcs	r0, #-2147483648	; 0x80000000
    2f84:	05a80000 	streq	r0, [r8, #0]!
    2f88:	f3040000 	vhadd.u8	d0, d4, d0
    2f8c:	11026401 	tstne	r2, r1, lsl #8
    2f90:	00002318 	andeq	r2, r0, r8, lsl r3
    2f94:	000005a8 	andeq	r0, r0, r8, lsr #11
    2f98:	6801f404 	stmdavs	r1, {r2, sl, ip, sp, lr, pc}
    2f9c:	23201102 			; <UNDEFINED> instruction: 0x23201102
    2fa0:	05a80000 	streq	r0, [r8, #0]!
    2fa4:	f5040000 			; <UNDEFINED> instruction: 0xf5040000
    2fa8:	11026c01 	tstne	r2, r1, lsl #24
    2fac:	00002326 	andeq	r2, r0, r6, lsr #6
    2fb0:	000005a8 	andeq	r0, r0, r8, lsr #11
    2fb4:	7001f604 	andvc	pc, r1, r4, lsl #12
    2fb8:	232f1102 			; <UNDEFINED> instruction: 0x232f1102
    2fbc:	05a80000 	streq	r0, [r8, #0]!
    2fc0:	f7040000 			; <UNDEFINED> instruction: 0xf7040000
    2fc4:	11027401 	tstne	r2, r1, lsl #8
    2fc8:	00002336 	andeq	r2, r0, r6, lsr r3
    2fcc:	000005a8 	andeq	r0, r0, r8, lsr #11
    2fd0:	7801f804 	stmdavc	r1, {r2, fp, ip, sp, lr, pc}
    2fd4:	233d1102 	teqcs	sp, #-2147483648	; 0x80000000
    2fd8:	0b4e0000 	bleq	1382fe0 <__Vectors_Size+0x1382de8>
    2fdc:	f9040000 			; <UNDEFINED> instruction: 0xf9040000
    2fe0:	11027c01 	tstne	r2, r1, lsl #24
    2fe4:	00002347 	andeq	r2, r0, r7, asr #6
    2fe8:	000005a8 	andeq	r0, r0, r8, lsr #11
    2fec:	9001fa04 	andls	pc, r1, r4, lsl #20
    2ff0:	234e1102 	movtcs	r1, #57602	; 0xe102
    2ff4:	05a80000 	streq	r0, [r8, #0]!
    2ff8:	fb040000 	blx	103002 <__Vectors_Size+0x102e0a>
    2ffc:	11029401 	tstne	r2, r1, lsl #8
    3000:	00002355 	andeq	r2, r0, r5, asr r3
    3004:	000005a8 	andeq	r0, r0, r8, lsr #11
    3008:	9801fc04 	stmdals	r1, {r2, sl, fp, ip, sp, lr, pc}
    300c:	235c1102 	cmpcs	ip, #-2147483648	; 0x80000000
    3010:	05a80000 	streq	r0, [r8, #0]!
    3014:	fd040000 	stc2	0, cr0, [r4, #-0]
    3018:	11029c01 	tstne	r2, r1, lsl #24
    301c:	00002361 	andeq	r2, r0, r1, ror #6
    3020:	000005a8 	andeq	r0, r0, r8, lsr #11
    3024:	a001fe04 	andge	pc, r1, r4, lsl #28
    3028:	23681102 	cmncs	r8, #-2147483648	; 0x80000000
    302c:	0b2a0000 	bleq	a83034 <__Vectors_Size+0xa82e3c>
    3030:	ff040000 			; <UNDEFINED> instruction: 0xff040000
    3034:	1102a401 	tstne	r2, r1, lsl #8
    3038:	00002372 	andeq	r2, r0, r2, ror r3
    303c:	000005a8 	andeq	r0, r0, r8, lsr #11
    3040:	a8020004 	stmdage	r2, {r2}
    3044:	a8130002 	ldmdage	r3, {r1}
    3048:	03000005 	movweq	r0, #5
    304c:	00000043 	andeq	r0, r0, r3, asr #32
    3050:	00005a04 	andeq	r5, r0, r4, lsl #20
    3054:	03000c00 	movweq	r0, #3072	; 0xc00
    3058:	00000af5 	strdeq	r0, [r0], -r5
    305c:	00005a04 	andeq	r5, r0, r4, lsl #20
    3060:	03000200 	movweq	r0, #512	; 0x200
    3064:	00000af5 	strdeq	r0, [r0], -r5
    3068:	00005a04 	andeq	r5, r0, r4, lsl #20
    306c:	03000400 	movweq	r0, #1024	; 0x400
    3070:	00000af5 	strdeq	r0, [r0], -r5
    3074:	00005a04 	andeq	r5, r0, r4, lsl #20
    3078:	03000500 	movweq	r0, #1280	; 0x500
    307c:	000005ad 	andeq	r0, r0, sp, lsr #11
    3080:	00005a04 	andeq	r5, r0, r4, lsl #20
    3084:	03000100 	movweq	r0, #256	; 0x100
    3088:	000005ad 	andeq	r0, r0, sp, lsr #11
    308c:	00005a04 	andeq	r5, r0, r4, lsl #20
    3090:	03005d00 	movweq	r5, #3328	; 0xd00
    3094:	000005ad 	andeq	r0, r0, sp, lsr #11
    3098:	00005a04 	andeq	r5, r0, r4, lsl #20
    309c:	03000f00 	movweq	r0, #3840	; 0xf00
    30a0:	000005ad 	andeq	r0, r0, sp, lsr #11
    30a4:	00005a04 	andeq	r5, r0, r4, lsl #20
    30a8:	14000500 	strne	r0, [r0], #-1280	; 0xfffffb00
    30ac:	00000000 	andeq	r0, r0, r0
    30b0:	000000ba 	strheq	r0, [r0], -sl
    30b4:	23815d01 	orrcs	r5, r1, #1, 26	; 0x40
    30b8:	19020000 	stmdbne	r2, {}	; <UNPREDICTABLE>
    30bc:	00000015 	andeq	r0, r0, r5, lsl r0
    30c0:	00004200 	andeq	r4, r0, r0, lsl #4
    30c4:	8c5d0100 	ldfhie	f0, [sp], {-0}
    30c8:	04000023 	streq	r0, [r0], #-35	; 0xffffffdd
    30cc:	021607f9 	andseq	r0, r6, #65273856	; 0x3e40000
    30d0:	23fd0791 	mvnscs	r0, #38010880	; 0x2440000
    30d4:	f9040000 			; <UNDEFINED> instruction: 0xf9040000
    30d8:	000c7d07 	andeq	r7, ip, r7, lsl #26
    30dc:	91021600 	tstls	r2, r0, lsl #12
    30e0:	00240c00 	eoreq	r0, r4, r0, lsl #24
    30e4:	07f90400 	ldrbeq	r0, [r9, r0, lsl #8]!
    30e8:	000005ad 	andeq	r0, r0, sp, lsr #11
    30ec:	00001500 	andeq	r1, r0, r0, lsl #10
    30f0:	00300000 	eorseq	r0, r0, r0
    30f4:	5d010000 	stcpl	0, cr0, [r1, #-0]
    30f8:	0000239f 	muleq	r0, pc, r3	; <UNPREDICTABLE>
    30fc:	16077704 	strne	r7, [r7], -r4, lsl #14
    3100:	fd039102 	stc2	1, cr9, [r3, #-8]
    3104:	04000023 	streq	r0, [r0], #-35	; 0xffffffdd
    3108:	0c7d0777 	ldcleq	7, cr0, [sp], #-476	; 0xfffffe24
    310c:	17000000 	strne	r0, [r0, -r0]
    3110:	00000000 	andeq	r0, r0, r0
    3114:	00000076 	andeq	r0, r0, r6, ror r0
    3118:	23b05d01 	movscs	r5, #1, 26	; 0x40
    311c:	41020000 	mrsmi	r0, (UNDEF: 2)
    3120:	00910218 	addseq	r0, r1, r8, lsl r2
    3124:	00002415 	andeq	r2, r0, r5, lsl r4
    3128:	0c884102 	stfeqs	f4, [r8], {2}
    312c:	17000000 	strne	r0, [r0, -r0]
    3130:	08002980 	stmdaeq	r0, {r7, r8, fp, sp}
    3134:	000000f2 	strdeq	r0, [r0], -r2
    3138:	23be5d01 			; <UNDEFINED> instruction: 0x23be5d01
    313c:	58020000 	stmdapl	r2, {}	; <UNPREDICTABLE>
    3140:	0029e219 	eoreq	lr, r9, r9, lsl r2
    3144:	00002e08 	andeq	r2, r0, r8, lsl #28
    3148:	91021a00 	tstls	r2, r0, lsl #20
    314c:	00241a04 	eoreq	r1, r4, r4, lsl #20
    3150:	b6610200 	strbtlt	r0, [r1], -r0, lsl #4
    3154:	00000000 	andeq	r0, r0, r0
    3158:	002a2219 	eoreq	r2, sl, r9, lsl r2
    315c:	00002e08 	andeq	r2, r0, r8, lsl #28
    3160:	91021a00 	tstls	r2, r0, lsl #20
    3164:	00241a00 	eoreq	r1, r4, r0, lsl #20
    3168:	b6620200 	strbtlt	r0, [r2], -r0, lsl #4
    316c:	00000000 	andeq	r0, r0, r0
    3170:	00001b00 	andeq	r1, r0, r0, lsl #22
    3174:	00c00000 	sbceq	r0, r0, r0
    3178:	5d010000 	stcpl	0, cr0, [r1, #-0]
    317c:	000023d0 	ldrdeq	r2, [r0], -r0
    3180:	0c767102 	ldfeqe	f7, [r6], #-8
    3184:	021a0000 	andseq	r0, sl, #0
    3188:	241c0691 	ldrcs	r0, [ip], #-1681	; 0xfffff96f
    318c:	77020000 	strvc	r0, [r2, -r0]
    3190:	00000c8d 	andeq	r0, r0, sp, lsl #25
    3194:	0091021a 	addseq	r0, r1, sl, lsl r2
    3198:	00002436 	andeq	r2, r0, r6, lsr r4
    319c:	0c767a02 			; <UNDEFINED> instruction: 0x0c767a02
    31a0:	1b000000 	blne	31a8 <__Vectors_Size+0x2fb0>
    31a4:	00000000 	andeq	r0, r0, r0
    31a8:	00000060 	andeq	r0, r0, r0, rrx
    31ac:	23eb5d01 	mvncs	r5, #1, 26	; 0x40
    31b0:	8a020000 	bhi	831b8 <__Vectors_Size+0x82fc0>
    31b4:	00000709 	andeq	r0, r0, r9, lsl #14
    31b8:	0091021a 	addseq	r0, r1, sl, lsl r2
    31bc:	00002447 	andeq	r2, r0, r7, asr #8
    31c0:	07098f02 	streq	r8, [r9, -r2, lsl #30]
    31c4:	07000000 	streq	r0, [r0, -r0]
    31c8:	000023e5 	andeq	r2, r0, r5, ror #7
    31cc:	f0060404 			; <UNDEFINED> instruction: 0xf0060404
    31d0:	02000000 	andeq	r0, r0, #0
    31d4:	03000024 	movweq	r0, #36	; 0x24
    31d8:	00480ca8 	subeq	r0, r8, r8, lsr #25
    31dc:	98060000 	stmdals	r6, {}	; <UNPREDICTABLE>
    31e0:	2e00000c 	cdpcs	0, 0, cr0, cr0, cr12, {0}
    31e4:	01000024 	tsteq	r0, r4, lsr #32
    31e8:	24280739 	strtcs	r0, [r8], #-1849	; 0xfffff8c7
    31ec:	02050000 	andeq	r0, r5, #0
    31f0:	0000fa00 	andeq	pc, r0, r0, lsl #20
    31f4:	f8000400 			; <UNDEFINED> instruction: 0xf8000400
    31f8:	04000005 	streq	r0, [r0], #-5
    31fc:	00245001 	eoreq	r5, r4, r1
    3200:	94000c00 	strls	r0, [r0], #-3072	; 0xfffff400
    3204:	01000024 	tsteq	r0, r4, lsr #32
    3208:	9a000017 	bls	326c <__Vectors_Size+0x3074>
    320c:	00000024 	andeq	r0, r0, r4, lsr #32
    3210:	80000000 	andhi	r0, r0, r0
    3214:	02000001 	andeq	r0, r0, #1
    3218:	0000002b 	andeq	r0, r0, fp, lsr #32
    321c:	00003703 	andeq	r3, r0, r3, lsl #14
    3220:	0024e800 	eoreq	lr, r4, r0, lsl #16
    3224:	03e20200 	mvneq	r0, #0, 4
    3228:	dc021004 	stcle	0, cr1, [r2], {4}
    322c:	24be0503 	ldrtcs	r0, [lr], #1283	; 0x503
    3230:	00710000 	rsbseq	r0, r1, r0
    3234:	de020000 	cdple	0, 0, cr0, cr2, cr0, {0}
    3238:	d9050003 	stmdble	r5, {r0, r1}
    323c:	71000024 	tstvc	r0, r4, lsr #32
    3240:	02000000 	andeq	r0, r0, #0
    3244:	050403df 	streq	r0, [r4, #-991]	; 0xfffffc21
    3248:	000024de 	ldrdeq	r2, [r0], -lr
    324c:	00000071 	andeq	r0, r0, r1, ror r0
    3250:	0803e002 	stmdaeq	r3, {r1, sp, lr, pc}
    3254:	0024e205 	eoreq	lr, r4, r5, lsl #4
    3258:	00008800 	andeq	r8, r0, r0, lsl #16
    325c:	03e10200 	mvneq	r0, #0, 4
    3260:	7606000c 	strvc	r0, [r6], -ip
    3264:	07000000 	streq	r0, [r0, -r0]
    3268:	00000081 	andeq	r0, r0, r1, lsl #1
    326c:	000024d0 	ldrdeq	r2, [r0], -r0
    3270:	c3084001 	movwgt	r4, #32769	; 0x8001
    3274:	07000024 	streq	r0, [r0, -r4, lsr #32]
    3278:	00710904 	rsbseq	r0, r1, r4, lsl #18
    327c:	000a0000 	andeq	r0, sl, r0
    3280:	66000000 	strvs	r0, [r0], -r0
    3284:	01000000 	mrseq	r0, (UNDEF: 0)
    3288:	0024f55d 	eoreq	pc, r4, sp, asr r5	; <UNPREDICTABLE>
    328c:	0b030300 	bleq	c3e94 <__Vectors_Size+0xc3c9c>
    3290:	0d049102 	stfeqd	f1, [r4, #-8]
    3294:	03000025 	movweq	r0, #37	; 0x25
    3298:	00008103 	andeq	r8, r0, r3, lsl #2
    329c:	00000c00 	andeq	r0, r0, r0, lsl #24
    32a0:	002e0000 	eoreq	r0, lr, r0
    32a4:	020d0000 	andeq	r0, sp, #0
    32a8:	25100091 	ldrcs	r0, [r0, #-145]	; 0xffffff6f
    32ac:	08030000 	stmdaeq	r3, {}	; <UNPREDICTABLE>
    32b0:	00000081 	andeq	r0, r0, r1, lsl #1
    32b4:	180a0000 	stmdane	sl, {}	; <UNPREDICTABLE>
    32b8:	68080029 	stmdavs	r8, {r0, r3, r5}
    32bc:	01000000 	mrseq	r0, (UNDEF: 0)
    32c0:	0025045d 	eoreq	r0, r5, sp, asr r4
    32c4:	0b0c0300 	bleq	303ecc <__Vectors_Size+0x303cd4>
    32c8:	12049102 	andne	r9, r4, #-2147483648	; 0x80000000
    32cc:	03000025 	movweq	r0, #37	; 0x25
    32d0:	0000810c 	andeq	r8, r0, ip, lsl #2
    32d4:	29420c00 	stmdbcs	r2, {sl, fp}^
    32d8:	002e0800 	eoreq	r0, lr, r0, lsl #16
    32dc:	020d0000 	andeq	r0, sp, #0
    32e0:	25100091 	ldrcs	r0, [r0, #-145]	; 0xffffff6f
    32e4:	11030000 	mrsne	r0, (UNDEF: 3)
    32e8:	00000081 	andeq	r0, r0, r1, lsl #1
    32ec:	ae000000 	cdpge	0, 0, cr0, cr0, cr0, {0}
    32f0:	04000005 	streq	r0, [r0], #-5
    32f4:	00069c00 	andeq	r9, r6, r0, lsl #24
    32f8:	15010400 	strne	r0, [r1, #-1024]	; 0xfffffc00
    32fc:	0c000025 	stceq	0, cr0, [r0], {37}	; 0x25
    3300:	00255900 	eoreq	r5, r5, r0, lsl #18
    3304:	00184100 	andseq	r4, r8, r0, lsl #2
    3308:	00256000 	eoreq	r6, r5, r0
    330c:	00000000 	andeq	r0, r0, r0
    3310:	00019800 	andeq	r9, r1, r0, lsl #16
    3314:	00330200 	eorseq	r0, r3, r0, lsl #4
    3318:	08010000 	stmdaeq	r1, {}	; <UNPREDICTABLE>
    331c:	3dd80305 	ldclcc	3, cr0, [r8, #20]
    3320:	3f030800 	svccc	0x00030800
    3324:	04000000 	streq	r0, [r0], #-0
    3328:	00000046 	andeq	r0, r0, r6, asr #32
    332c:	84050003 	strhi	r0, [r5], #-3
    3330:	08000025 	stmdaeq	r0, {r0, r2, r5}
    3334:	25890601 	strcs	r0, [r9, #1537]	; 0x601
    3338:	07080000 	streq	r0, [r8, -r0]
    333c:	00005a02 	andeq	r5, r0, r2, lsl #20
    3340:	05080100 	streq	r0, [r8, #-256]	; 0xffffff00
    3344:	003ddb03 	eorseq	sp, sp, r3, lsl #22
    3348:	003f0308 	eorseq	r0, pc, r8, lsl #6
    334c:	46040000 	strmi	r0, [r4], -r0
    3350:	07000000 	streq	r0, [r0, -r0]
    3354:	00730200 	rsbseq	r0, r3, r0, lsl #4
    3358:	08010000 	stmdaeq	r1, {}	; <UNPREDICTABLE>
    335c:	3de20305 	stclcc	3, cr0, [r2, #20]!
    3360:	3f030800 	svccc	0x00030800
    3364:	04000000 	streq	r0, [r0], #-0
    3368:	00000046 	andeq	r0, r0, r6, asr #32
    336c:	8c020008 	stchi	0, cr0, [r2], {8}
    3370:	01000000 	mrseq	r0, (UNDEF: 0)
    3374:	ea030508 	b	c479c <__Vectors_Size+0xc45a4>
    3378:	0308003d 	movweq	r0, #32829	; 0x803d
    337c:	0000003f 	andeq	r0, r0, pc, lsr r0
    3380:	00004604 	andeq	r4, r0, r4, lsl #12
    3384:	02000a00 	andeq	r0, r0, #0, 20
    3388:	000000a5 	andeq	r0, r0, r5, lsr #1
    338c:	03050801 	movweq	r0, #22529	; 0x5801
    3390:	08003df4 	stmdaeq	r0, {r2, r4, r5, r6, r7, r8, sl, fp, ip, sp}
    3394:	00003f03 	andeq	r3, r0, r3, lsl #30
    3398:	00460400 	subeq	r0, r6, r0, lsl #8
    339c:	00090000 	andeq	r0, r9, r0
    33a0:	00005a02 	andeq	r5, r0, r2, lsl #20
    33a4:	05080100 	streq	r0, [r8, #-256]	; 0xffffff00
    33a8:	003dfd03 	eorseq	pc, sp, r3, lsl #26
    33ac:	00a50208 	adceq	r0, r5, r8, lsl #4
    33b0:	08010000 	stmdaeq	r1, {}	; <UNPREDICTABLE>
    33b4:	3e040305 	cdpcc	3, 0, cr0, cr4, cr5, {0}
    33b8:	5a020800 	bpl	853c0 <__Vectors_Size+0x851c8>
    33bc:	01000000 	mrseq	r0, (UNDEF: 0)
    33c0:	0d030508 	cfstr32eq	mvfx0, [r3, #-32]	; 0xffffffe0
    33c4:	0708003e 	smladxeq	r8, lr, r0, r0
    33c8:	0000259d 	muleq	r0, sp, r5
    33cc:	000000e9 	andeq	r0, r0, r9, ror #1
    33d0:	03050801 	movweq	r0, #22529	; 0x5801
    33d4:	200233cc 	andcs	r3, r2, ip, asr #7
    33d8:	0000f503 	andeq	pc, r0, r3, lsl #10
    33dc:	00460400 	subeq	r0, r6, r0, lsl #8
    33e0:	00080000 	andeq	r0, r8, r0
    33e4:	0000fa08 	andeq	pc, r0, r8, lsl #20
    33e8:	003f0900 	eorseq	r0, pc, r0, lsl #18
    33ec:	73020000 	movwvc	r0, #8192	; 0x2000
    33f0:	01000000 	mrseq	r0, (UNDEF: 0)
    33f4:	14030509 	strne	r0, [r3], #-1289	; 0xfffffaf7
    33f8:	0208003e 	andeq	r0, r8, #62	; 0x3e
    33fc:	000000a5 	andeq	r0, r0, r5, lsr #1
    3400:	03050901 	movweq	r0, #22785	; 0x5901
    3404:	08003e1c 	stmdaeq	r0, {r2, r3, r4, r9, sl, fp, ip, sp}
    3408:	00012602 	andeq	r2, r1, r2, lsl #12
    340c:	05090100 	streq	r0, [r9, #-256]	; 0xffffff00
    3410:	003e2503 	eorseq	r2, lr, r3, lsl #10
    3414:	003f0308 	eorseq	r0, pc, r8, lsl #6
    3418:	46040000 	strmi	r0, [r4], -r0
    341c:	06000000 	streq	r0, [r0], -r0
    3420:	01260200 			; <UNDEFINED> instruction: 0x01260200
    3424:	09010000 	stmdbeq	r1, {}	; <UNPREDICTABLE>
    3428:	3e2b0305 	cdpcc	3, 2, cr0, cr11, cr5, {0}
    342c:	4c020800 	stcmi	8, cr0, [r2], {-0}
    3430:	01000001 	tsteq	r0, r1
    3434:	31030509 	tstcc	r3, r9, lsl #10
    3438:	0308003e 	movweq	r0, #32830	; 0x803e
    343c:	0000003f 	andeq	r0, r0, pc, lsr r0
    3440:	00004604 	andeq	r4, r0, r4, lsl #12
    3444:	02000400 	andeq	r0, r0, #0, 8
    3448:	00000165 	andeq	r0, r0, r5, ror #2
    344c:	03050901 	movweq	r0, #22785	; 0x5901
    3450:	08003e35 	stmdaeq	r0, {r0, r2, r4, r5, r9, sl, fp, ip, sp}
    3454:	00003f03 	andeq	r3, r0, r3, lsl #30
    3458:	00460400 	subeq	r0, r6, r0, lsl #8
    345c:	00050000 	andeq	r0, r5, r0
    3460:	00016502 	andeq	r6, r1, r2, lsl #10
    3464:	05090100 	streq	r0, [r9, #-256]	; 0xffffff00
    3468:	003e3a03 	eorseq	r3, lr, r3, lsl #20
    346c:	005a0208 	subseq	r0, sl, r8, lsl #4
    3470:	09010000 	stmdbeq	r1, {}	; <UNPREDICTABLE>
    3474:	3e3f0305 	cdpcc	3, 3, cr0, cr15, cr5, {0}
    3478:	8c020800 	stchi	8, cr0, [r2], {-0}
    347c:	01000000 	mrseq	r0, (UNDEF: 0)
    3480:	46030509 	strmi	r0, [r3], -r9, lsl #10
    3484:	0208003e 	andeq	r0, r8, #62	; 0x3e
    3488:	00000073 	andeq	r0, r0, r3, ror r0
    348c:	03050901 	movweq	r0, #22785	; 0x5901
    3490:	08003e50 	stmdaeq	r0, {r4, r6, r9, sl, fp, ip, sp}
    3494:	0000a502 	andeq	sl, r0, r2, lsl #10
    3498:	05090100 	streq	r0, [r9, #-256]	; 0xffffff00
    349c:	003e5803 	eorseq	r5, lr, r3, lsl #16
    34a0:	00a50208 	adceq	r0, r5, r8, lsl #4
    34a4:	09010000 	stmdbeq	r1, {}	; <UNPREDICTABLE>
    34a8:	3e610305 	cdpcc	3, 6, cr0, cr1, cr5, {0}
    34ac:	a2070800 	andge	r0, r7, #0, 16
    34b0:	d0000025 	andle	r0, r0, r5, lsr #32
    34b4:	01000001 	tsteq	r0, r1
    34b8:	ec030509 	cfstr32	mvfx0, [r3], {9}
    34bc:	03200233 			; <UNDEFINED> instruction: 0x03200233
    34c0:	000000f5 	strdeq	r0, [r0], -r5
    34c4:	00004604 	andeq	r4, r0, r4, lsl #12
    34c8:	07000d00 	streq	r0, [r0, -r0, lsl #26]
    34cc:	000025a9 	andeq	r2, r0, r9, lsr #11
    34d0:	000001ed 	andeq	r0, r0, sp, ror #3
    34d4:	03051601 	movweq	r1, #22017	; 0x5601
    34d8:	200238a1 	andcs	r3, r2, r1, lsr #17
    34dc:	0001f80a 	andeq	pc, r1, sl, lsl #16
    34e0:	0025be00 	eoreq	fp, r5, r0, lsl #28
    34e4:	053e0200 	ldreq	r0, [lr, #-512]!	; 0xfffffe00
    34e8:	000025b0 			; <UNDEFINED> instruction: 0x000025b0
    34ec:	c6070108 	strgt	r0, [r7], -r8, lsl #2
    34f0:	10000025 	andne	r0, r0, r5, lsr #32
    34f4:	01000002 	tsteq	r0, r2
    34f8:	9c030517 	cfstr32ls	mvfx0, [r3], {23}
    34fc:	05200238 	streq	r0, [r0, #-568]!	; 0xfffffdc8
    3500:	000025cb 	andeq	r2, r0, fp, asr #11
    3504:	cf0b0405 	svcgt	0x000b0405
    3508:	ed000025 	stc	0, cr0, [r0, #-148]	; 0xffffff6c
    350c:	01000001 	tsteq	r0, r1
    3510:	a0030518 	andge	r0, r3, r8, lsl r5
    3514:	02200238 	eoreq	r0, r0, #56, 4	; 0x80000003
    3518:	00000235 	andeq	r0, r0, r5, lsr r2
    351c:	03054c01 	movweq	r4, #23553	; 0x5c01
    3520:	08003e6a 	stmdaeq	r0, {r1, r3, r5, r6, r9, sl, fp, ip, sp}
    3524:	00003f03 	andeq	r3, r0, r3, lsl #30
    3528:	00460400 	subeq	r0, r6, r0, lsl #8
    352c:	00100000 	andseq	r0, r0, r0
    3530:	00024e02 	andeq	r4, r2, r2, lsl #28
    3534:	054d0100 	strbeq	r0, [sp, #-256]	; 0xffffff00
    3538:	003e7a03 	eorseq	r7, lr, r3, lsl #20
    353c:	003f0308 	eorseq	r0, pc, r8, lsl #6
    3540:	46040000 	strmi	r0, [r4], -r0
    3544:	0f000000 	svceq	0x00000000
    3548:	014c0200 	mrseq	r0, (UNDEF: 108)
    354c:	4e010000 	cdpmi	0, 0, cr0, cr1, cr0, {0}
    3550:	3e890305 	cdpcc	3, 8, cr0, cr9, cr5, {0}
    3554:	4e020800 	cdpmi	8, 0, cr0, cr2, cr0, {0}
    3558:	01000002 	tsteq	r0, r2
    355c:	8d03054f 	cfstr32hi	mvfx0, [r3, #-316]	; 0xfffffec4
    3560:	0b08003e 	bleq	203660 <__Vectors_Size+0x203468>
    3564:	000025d5 	ldrdeq	r2, [r0], -r5
    3568:	00000285 	andeq	r0, r0, r5, lsl #5
    356c:	03050d01 	movweq	r0, #23809	; 0x5d01
    3570:	20023489 	andcs	r3, r2, r9, lsl #9
    3574:	0002900a 	andeq	r9, r2, sl
    3578:	0025ef00 	eoreq	lr, r5, r0, lsl #30
    357c:	05380200 	ldreq	r0, [r8, #-512]!	; 0xfffffe00
    3580:	000025e3 	andeq	r2, r0, r3, ror #11
    3584:	f60b0106 			; <UNDEFINED> instruction: 0xf60b0106
    3588:	85000025 	strhi	r0, [r0, #-37]	; 0xffffffdb
    358c:	01000002 	tsteq	r0, r2
    3590:	8803050e 	stmdahi	r3, {r1, r2, r3, r8, sl}
    3594:	0b200234 	bleq	803e6c <__Vectors_Size+0x803c74>
    3598:	00002604 	andeq	r2, r0, r4, lsl #12
    359c:	00000285 	andeq	r0, r0, r5, lsl #5
    35a0:	03050f01 	movweq	r0, #24321	; 0x5f01
    35a4:	20023487 	andcs	r3, r2, r7, lsl #9
    35a8:	0026100b 	eoreq	r1, r6, fp
    35ac:	00028500 	andeq	r8, r2, r0, lsl #10
    35b0:	05100100 	ldreq	r0, [r0, #-256]	; 0xffffff00
    35b4:	0233c903 	eorseq	ip, r3, #49152	; 0xc000
    35b8:	261f0b20 	ldrcs	r0, [pc], -r0, lsr #22
    35bc:	02850000 	addeq	r0, r5, #0
    35c0:	11010000 	mrsne	r0, (UNDEF: 1)
    35c4:	33c80305 	biccc	r0, r8, #335544320	; 0x14000000
    35c8:	2f0b2002 	svccs	0x000b2002
    35cc:	85000026 	strhi	r0, [r0, #-38]	; 0xffffffda
    35d0:	01000002 	tsteq	r0, r2
    35d4:	ca030512 	bgt	c4a24 <__Vectors_Size+0xc482c>
    35d8:	0b200233 	bleq	803eac <__Vectors_Size+0x803cb4>
    35dc:	0000263c 	andeq	r2, r0, ip, lsr r6
    35e0:	00000285 	andeq	r0, r0, r5, lsl #5
    35e4:	03051301 	movweq	r1, #21249	; 0x5301
    35e8:	2002348a 	andcs	r3, r2, sl, lsl #9
    35ec:	0026480b 	eoreq	r4, r6, fp, lsl #16
    35f0:	00028500 	andeq	r8, r2, r0, lsl #10
    35f4:	05140100 	ldreq	r0, [r4, #-256]	; 0xffffff00
    35f8:	02348503 	eorseq	r8, r4, #12582912	; 0xc00000
    35fc:	26570b20 	ldrbcs	r0, [r7], -r0, lsr #22
    3600:	031f0000 	tsteq	pc, #0
    3604:	03030000 	movweq	r0, #12288	; 0x3000
    3608:	00000305 	andeq	r0, r0, r5, lsl #6
    360c:	ed032002 	stc	0, cr2, [r3, #-8]
    3610:	0c000001 	stceq	0, cr0, [r0], {1}
    3614:	00000046 	andeq	r0, r0, r6, asr #32
    3618:	0b000964 	bleq	5bb0 <__Vectors_Size+0x59b8>
    361c:	00002662 	andeq	r2, r0, r2, ror #12
    3620:	0000033d 	andeq	r0, r0, sp, lsr r3
    3624:	03057403 	movweq	r7, #21507	; 0x5403
    3628:	20020964 	andcs	r0, r2, r4, ror #18
    362c:	0001ed03 	andeq	lr, r1, r3, lsl #26
    3630:	00460c00 	subeq	r0, r6, r0, lsl #24
    3634:	2a640000 	bcs	190363c <__Vectors_Size+0x1903444>
    3638:	014c0200 	mrseq	r0, (UNDEF: 108)
    363c:	cb010000 	blgt	43644 <__Vectors_Size+0x4344c>
    3640:	3e9c0305 	cdpcc	3, 9, cr0, cr12, cr5, {0}
    3644:	4c020800 	stcmi	8, cr0, [r2], {-0}
    3648:	01000001 	tsteq	r0, r1
    364c:	a00305ce 	andge	r0, r3, lr, asr #11
    3650:	0208003e 	andeq	r0, r8, #62	; 0x3e
    3654:	00000165 	andeq	r0, r0, r5, ror #2
    3658:	0305d101 	movweq	sp, #20737	; 0x5101
    365c:	08003ea4 	stmdaeq	r0, {r2, r5, r7, r9, sl, fp, ip, sp}
    3660:	00016502 	andeq	r6, r1, r2, lsl #10
    3664:	05d40100 	ldrbeq	r0, [r4, #256]	; 0x100
    3668:	003ea903 	eorseq	sl, lr, r3, lsl #18
    366c:	02350208 	eorseq	r0, r5, #8, 4	; 0x80000000
    3670:	64010000 	strvs	r0, [r1], #-0
    3674:	3eae0305 	cdpcc	3, 10, cr0, cr14, cr5, {0}
    3678:	98020800 	stmdals	r2, {fp}
    367c:	01000003 	tsteq	r0, r3
    3680:	be030581 	cfsh32lt	mvfx0, mvfx3, #-63
    3684:	0308003e 	movweq	r0, #32830	; 0x803e
    3688:	0000003f 	andeq	r0, r0, pc, lsr r0
    368c:	00004604 	andeq	r4, r0, r4, lsl #12
    3690:	02001100 	andeq	r1, r0, #0, 2
    3694:	000003b1 			; <UNDEFINED> instruction: 0x000003b1
    3698:	03059b01 	movweq	r9, #23297	; 0x5b01
    369c:	08003ecf 	stmdaeq	r0, {r0, r1, r2, r3, r6, r7, r9, sl, fp, ip, sp}
    36a0:	00003f03 	andeq	r3, r0, r3, lsl #30
    36a4:	00460400 	subeq	r0, r6, r0, lsl #8
    36a8:	00130000 	andseq	r0, r3, r0
    36ac:	0003ca02 	andeq	ip, r3, r2, lsl #20
    36b0:	05b30100 	ldreq	r0, [r3, #256]!	; 0x100
    36b4:	003ee203 	eorseq	lr, lr, r3, lsl #4
    36b8:	003f0308 	eorseq	r0, pc, r8, lsl #6
    36bc:	46040000 	strmi	r0, [r4], -r0
    36c0:	12000000 	andne	r0, r0, #0
    36c4:	03db0800 	bicseq	r0, fp, #0, 16
    36c8:	e70d0000 	str	r0, [sp, -r0]
    36cc:	b4000003 	strlt	r0, [r0], #-3
    36d0:	04000026 	streq	r0, [r0], #-38	; 0xffffffda
    36d4:	280e027b 	stmdacs	lr, {r0, r1, r3, r4, r5, r6, r9}
    36d8:	0f027004 	svceq	0x00027004
    36dc:	0000266d 	andeq	r2, r0, sp, ror #12
    36e0:	00000462 	andeq	r0, r0, r2, ror #8
    36e4:	00027204 	andeq	r7, r2, r4, lsl #4
    36e8:	0026890f 	eoreq	r8, r6, pc, lsl #18
    36ec:	00046200 	andeq	r6, r4, r0, lsl #4
    36f0:	02730400 	rsbseq	r0, r3, #0, 8
    36f4:	26900f04 	ldrcs	r0, [r0], r4, lsl #30
    36f8:	04620000 	strbteq	r0, [r2], #-0
    36fc:	74040000 	strvc	r0, [r4], #-0
    3700:	980f0802 	stmdals	pc, {r1, fp}	; <UNPREDICTABLE>
    3704:	62000026 	andvs	r0, r0, #38	; 0x26
    3708:	04000004 	streq	r0, [r0], #-4
    370c:	0f0c0275 	svceq	0x000c0275
    3710:	0000269e 	muleq	r0, lr, r6
    3714:	00000462 	andeq	r0, r0, r2, ror #8
    3718:	10027604 	andne	r7, r2, r4, lsl #12
    371c:	0026a20f 	eoreq	sl, r6, pc, lsl #4
    3720:	00046200 	andeq	r6, r4, r0, lsl #4
    3724:	02770400 	rsbseq	r0, r7, #0, 8
    3728:	26a60f14 	ssatcs	r0, #7, r4, lsl #30
    372c:	04620000 	strbteq	r0, [r2], #-0
    3730:	78040000 	stmdavc	r4, {}	; <UNPREDICTABLE>
    3734:	ab0f1802 	blge	3c9744 <__Vectors_Size+0x3c954c>
    3738:	62000026 	andvs	r0, r0, #38	; 0x26
    373c:	04000004 	streq	r0, [r0], #-4
    3740:	0f1c0279 	svceq	0x001c0279
    3744:	000026b0 			; <UNDEFINED> instruction: 0x000026b0
    3748:	00000479 	andeq	r0, r0, r9, ror r4
    374c:	20027a04 	andcs	r7, r2, r4, lsl #20
    3750:	04671000 	strbteq	r1, [r7], #-0
    3754:	720a0000 	andvc	r0, sl, #0
    3758:	80000004 	andhi	r0, r0, r4
    375c:	02000026 	andeq	r0, r0, #38	; 0x26
    3760:	26730540 	ldrbtcs	r0, [r3], -r0, asr #10
    3764:	04070000 	streq	r0, [r7], #-0
    3768:	00046203 	andeq	r6, r4, r3, lsl #4
    376c:	00460400 	subeq	r0, r6, r0, lsl #8
    3770:	00020000 	andeq	r0, r2, r0
    3774:	00340011 	eorseq	r0, r4, r1, lsl r0
    3778:	00008e08 	andeq	r8, r0, r8, lsl #28
    377c:	c15d0100 	cmpgt	sp, r0, lsl #2
    3780:	01000026 	tsteq	r0, r6, lsr #32
    3784:	0002101e 	andeq	r1, r2, lr, lsl r0
    3788:	1ed01200 	cdpne	2, 13, cr1, cr0, cr0, {0}
    378c:	00c00800 	sbceq	r0, r0, r0, lsl #16
    3790:	5d010000 	stcpl	0, cr0, [r1, #-0]
    3794:	000026c6 	andeq	r2, r0, r6, asr #13
    3798:	f013e201 			; <UNDEFINED> instruction: 0xf013e201
    379c:	9c08001e 	stcls	0, cr0, [r8], {30}
    37a0:	14000000 	strne	r0, [r0], #-0
    37a4:	29099102 	stmdbcs	r9, {r1, r8, ip, pc}
    37a8:	01000027 	tsteq	r0, r7, lsr #32
    37ac:	0005a0e8 	andeq	sl, r5, r8, ror #1
    37b0:	12000000 	andne	r0, r0, #0
    37b4:	08001d00 	stmdaeq	r0, {r8, sl, fp, ip}
    37b8:	000001ca 	andeq	r0, r0, sl, asr #3
    37bc:	26da5d01 	ldrbcs	r5, [sl], r1, lsl #26
    37c0:	3f010000 	svccc	0x00010000
    37c4:	c8910314 	ldmgt	r1, {r2, r4, r8, r9}
    37c8:	00272f00 	eoreq	r2, r7, r0, lsl #30
    37cc:	a0410100 	subge	r0, r1, r0, lsl #2
    37d0:	00000005 	andeq	r0, r0, r5
    37d4:	001f9015 	andseq	r9, pc, r5, lsl r0	; <UNPREDICTABLE>
    37d8:	00013e08 	andeq	r3, r1, r8, lsl #28
    37dc:	eb5d0100 	bl	1743be4 <__Vectors_Size+0x17439ec>
    37e0:	01000026 	tsteq	r0, r6, lsr #32
    37e4:	2af012b6 	bcs	ffc082c4 <__initial_sp+0xdfbe441c>
    37e8:	00ae0800 	adceq	r0, lr, r0, lsl #16
    37ec:	5d010000 	stcpl	0, cr0, [r1, #-0]
    37f0:	000026f9 	strdeq	r2, [r0], -r9
    37f4:	02165401 	andseq	r5, r6, #16777216	; 0x1000000
    37f8:	272f1c91 			; <UNDEFINED> instruction: 0x272f1c91
    37fc:	54010000 	strpl	r0, [r1], #-0
    3800:	000005ac 	andeq	r0, r0, ip, lsr #11
    3804:	18910216 	ldmne	r1, {r1, r2, r4, r9}
    3808:	00002734 	andeq	r2, r0, r4, lsr r7
    380c:	00f55401 	rscseq	r5, r5, r1, lsl #8
    3810:	02160000 	andseq	r0, r6, #0
    3814:	273a1491 			; <UNDEFINED> instruction: 0x273a1491
    3818:	54010000 	strpl	r0, [r1], #-0
    381c:	00000210 	andeq	r0, r0, r0, lsl r2
    3820:	10910216 	addsne	r0, r1, r6, lsl r2
    3824:	0000273e 	andeq	r2, r0, lr, lsr r7
    3828:	02105401 	andseq	r5, r0, #16777216	; 0x1000000
    382c:	17000000 	strne	r0, [r0, -r0]
    3830:	08002ba0 	stmdaeq	r0, {r5, r7, r8, r9, fp, sp}
    3834:	00000458 	andeq	r0, r0, r8, asr r4
    3838:	27025d01 	strcs	r5, [r2, -r1, lsl #26]
    383c:	67010000 	strvs	r0, [r1, -r0]
    3840:	0f910214 	svceq	0x00910214
    3844:	00002742 	andeq	r2, r0, r2, asr #14
    3848:	01ed6901 	mvneq	r6, r1, lsl #18
    384c:	17000000 	strne	r0, [r0, -r0]
    3850:	08002ff8 	stmdaeq	r0, {r3, r4, r5, r6, r7, r8, r9, sl, fp, sp}
    3854:	00000236 	andeq	r0, r0, r6, lsr r2
    3858:	270e5d01 	strcs	r5, [lr, -r1, lsl #26]
    385c:	84010000 	strhi	r0, [r1], #-0
    3860:	0f910214 	svceq	0x00910214
    3864:	00002742 	andeq	r2, r0, r2, asr #14
    3868:	01ed8601 	mvneq	r8, r1, lsl #12
    386c:	17000000 	strne	r0, [r0, -r0]
    3870:	08003230 	stmdaeq	r0, {r4, r5, r9, ip, sp}
    3874:	000001d0 	ldrdeq	r0, [r0], -r0	; <UNPREDICTABLE>
    3878:	271c5d01 	ldrcs	r5, [ip, -r1, lsl #26]
    387c:	9e010000 	cdpls	0, 0, cr0, cr1, cr0, {0}
    3880:	0f910214 	svceq	0x00910214
    3884:	00002742 	andeq	r2, r0, r2, asr #14
    3888:	01eda001 	mvneq	sl, r1
    388c:	03000000 	movweq	r0, #0
    3890:	000001ed 	andeq	r0, r0, sp, ror #3
    3894:	00004604 	andeq	r4, r0, r4, lsl #12
    3898:	08000700 	stmdaeq	r0, {r8, r9, sl}
    389c:	00000285 	andeq	r0, r0, r5, lsl #5
    38a0:	0004bc00 	andeq	fp, r4, r0, lsl #24
    38a4:	ca000400 	bgt	48ac <__Vectors_Size+0x46b4>
    38a8:	04000007 	streq	r0, [r0], #-7
    38ac:	00274d01 	eoreq	r4, r7, r1, lsl #26
    38b0:	91000c00 	tstls	r0, r0, lsl #24
    38b4:	b6000027 	strlt	r0, [r0], -r7, lsr #32
    38b8:	9800001e 	stmdals	r0, {r1, r2, r3, r4}
    38bc:	00000027 	andeq	r0, r0, r7, lsr #32
    38c0:	e0000000 	and	r0, r0, r0
    38c4:	02000001 	andeq	r0, r0, #1
    38c8:	0000002b 	andeq	r0, r0, fp, lsr #32
    38cc:	00003703 	andeq	r3, r0, r3, lsl #14
    38d0:	00281700 	eoreq	r1, r8, r0, lsl #14
    38d4:	027b0200 	rsbseq	r0, fp, #0, 4
    38d8:	70022804 	andvc	r2, r2, r4, lsl #16
    38dc:	27bc0502 	ldrcs	r0, [ip, r2, lsl #10]!
    38e0:	00b20000 	adcseq	r0, r2, r0
    38e4:	72020000 	andvc	r0, r2, #0
    38e8:	d8050002 	stmdale	r5, {r1}
    38ec:	b2000027 	andlt	r0, r0, #39	; 0x27
    38f0:	02000000 	andeq	r0, r0, #0
    38f4:	05040273 	streq	r0, [r4, #-627]	; 0xfffffd8d
    38f8:	000027df 	ldrdeq	r2, [r0], -pc	; <UNPREDICTABLE>
    38fc:	000000b2 	strheq	r0, [r0], -r2
    3900:	08027402 	stmdaeq	r2, {r1, sl, ip, sp, lr}
    3904:	0027e705 	eoreq	lr, r7, r5, lsl #14
    3908:	0000b200 	andeq	fp, r0, r0, lsl #4
    390c:	02750200 	rsbseq	r0, r5, #0, 4
    3910:	27ed050c 	strbcs	r0, [sp, ip, lsl #10]!
    3914:	00b20000 	adcseq	r0, r2, r0
    3918:	76020000 	strvc	r0, [r2], -r0
    391c:	f1051002 			; <UNDEFINED> instruction: 0xf1051002
    3920:	b2000027 	andlt	r0, r0, #39	; 0x27
    3924:	02000000 	andeq	r0, r0, #0
    3928:	05140277 	ldreq	r0, [r4, #-631]	; 0xfffffd89
    392c:	000027f5 	strdeq	r2, [r0], -r5
    3930:	000000b2 	strheq	r0, [r0], -r2
    3934:	18027802 	stmdane	r2, {r1, fp, ip, sp, lr}
    3938:	0027fa05 	eoreq	pc, r7, r5, lsl #20
    393c:	0000b200 	andeq	fp, r0, r0, lsl #4
    3940:	02790200 	rsbseq	r0, r9, #0, 4
    3944:	27ff051c 			; <UNDEFINED> instruction: 0x27ff051c
    3948:	00c90000 	sbceq	r0, r9, r0
    394c:	7a020000 	bvc	83954 <__Vectors_Size+0x8375c>
    3950:	06002002 	streq	r2, [r0], -r2
    3954:	000000b7 	strheq	r0, [r0], -r7
    3958:	0000c207 	andeq	ip, r0, r7, lsl #4
    395c:	0027cf00 	eoreq	ip, r7, r0, lsl #30
    3960:	08400100 	stmdaeq	r0, {r8}^
    3964:	000027c2 	andeq	r2, r0, r2, asr #15
    3968:	b2090407 	andlt	r0, r9, #117440512	; 0x7000000
    396c:	0a000000 	beq	3974 <__Vectors_Size+0x377c>
    3970:	000000d5 	ldrdeq	r0, [r0], -r5
    3974:	030b0002 	movweq	r0, #45058	; 0xb002
    3978:	08000028 	stmdaeq	r0, {r3, r5}
    397c:	00e10207 	rsceq	r0, r1, r7, lsl #4
    3980:	ed030000 	stc	0, cr0, [r3, #-0]
    3984:	3c000000 	stccc	0, cr0, [r0], {-0}
    3988:	02000029 	andeq	r0, r0, #41	; 0x29
    398c:	94040311 	strls	r0, [r4], #-785	; 0xfffffcef
    3990:	0502ed02 	streq	lr, [r2, #-3330]	; 0xfffff2fe
    3994:	00002824 	andeq	r2, r0, r4, lsr #16
    3998:	000000b2 	strheq	r0, [r0], -r2
    399c:	0002ef02 	andeq	lr, r2, r2, lsl #30
    39a0:	00282705 	eoreq	r2, r8, r5, lsl #14
    39a4:	0000b200 	andeq	fp, r0, r0, lsl #4
    39a8:	02f00200 	rscseq	r0, r0, #0, 4
    39ac:	282f0504 	stmdacs	pc!, {r2, r8, sl}	; <UNPREDICTABLE>
    39b0:	00b20000 	adcseq	r0, r2, r0
    39b4:	f1020000 	cps	#0
    39b8:	34050802 	strcc	r0, [r5], #-2050	; 0xfffff7fe
    39bc:	b2000028 	andlt	r0, r0, #40	; 0x28
    39c0:	02000000 	andeq	r0, r0, #0
    39c4:	050c02f2 	streq	r0, [ip, #-754]	; 0xfffffd0e
    39c8:	00002838 	andeq	r2, r0, r8, lsr r8
    39cc:	000000b2 	strheq	r0, [r0], -r2
    39d0:	1002f302 	andne	pc, r2, r2, lsl #6
    39d4:	00284105 	eoreq	r4, r8, r5, lsl #2
    39d8:	0000b200 	andeq	fp, r0, r0, lsl #4
    39dc:	02f40200 	rscseq	r0, r4, #0, 4
    39e0:	284a0514 	stmdacs	sl, {r2, r4, r8, sl}^
    39e4:	00b20000 	adcseq	r0, r2, r0
    39e8:	f5020000 			; <UNDEFINED> instruction: 0xf5020000
    39ec:	53051802 	movwpl	r1, #22530	; 0x5802
    39f0:	b7000028 	strlt	r0, [r0, -r8, lsr #32]
    39f4:	02000000 	andeq	r0, r0, #0
    39f8:	051c02f6 	ldreq	r0, [ip, #-758]	; 0xfffffd0a
    39fc:	0000285d 	andeq	r2, r0, sp, asr r8
    3a00:	000000b2 	strheq	r0, [r0], -r2
    3a04:	2002f702 	andcs	pc, r2, r2, lsl #14
    3a08:	00286605 	eoreq	r6, r8, r5, lsl #12
    3a0c:	0000b200 	andeq	fp, r0, r0, lsl #4
    3a10:	02f80200 	rscseq	r0, r8, #0, 4
    3a14:	286f0524 	stmdacs	pc!, {r2, r5, r8, sl}^	; <UNPREDICTABLE>
    3a18:	02a00000 	adceq	r0, r0, #0
    3a1c:	f9020000 			; <UNDEFINED> instruction: 0xf9020000
    3a20:	79052802 	stmdbvc	r5, {r1, fp, sp}
    3a24:	b2000028 	andlt	r0, r0, #40	; 0x28
    3a28:	02000000 	andeq	r0, r0, #0
    3a2c:	053002fa 	ldreq	r0, [r0, #-762]!	; 0xfffffd06
    3a30:	00002881 	andeq	r2, r0, r1, lsl #17
    3a34:	000000b2 	strheq	r0, [r0], -r2
    3a38:	3402fb02 	strcc	pc, [r2], #-2818	; 0xfffff4fe
    3a3c:	00288905 	eoreq	r8, r8, r5, lsl #18
    3a40:	0000b200 	andeq	fp, r0, r0, lsl #4
    3a44:	02fc0200 	rscseq	r0, ip, #0, 4
    3a48:	28910538 	ldmcs	r1, {r3, r4, r5, r8, sl}
    3a4c:	00b70000 	adcseq	r0, r7, r0
    3a50:	fd020000 	stc2	0, cr0, [r2, #-0]
    3a54:	9b053c02 	blls	152a64 <__Vectors_Size+0x15286c>
    3a58:	b2000028 	andlt	r0, r0, #40	; 0x28
    3a5c:	02000000 	andeq	r0, r0, #0
    3a60:	054002fe 	strbeq	r0, [r0, #-766]	; 0xfffffd02
    3a64:	000028a3 	andeq	r2, r0, r3, lsr #17
    3a68:	000000b2 	strheq	r0, [r0], -r2
    3a6c:	4402ff02 	strmi	pc, [r2], #-3842	; 0xfffff0fe
    3a70:	0028ab05 	eoreq	sl, r8, r5, lsl #22
    3a74:	0002a000 	andeq	sl, r2, r0
    3a78:	03000200 	movweq	r0, #512	; 0x200
    3a7c:	28b50548 	ldmcs	r5!, {r3, r6, r8, sl}
    3a80:	00b20000 	adcseq	r0, r2, r0
    3a84:	01020000 	mrseq	r0, (UNDEF: 2)
    3a88:	bf055003 	svclt	0x00055003
    3a8c:	b2000028 	andlt	r0, r0, #40	; 0x28
    3a90:	02000000 	andeq	r0, r0, #0
    3a94:	05540302 	ldrbeq	r0, [r4, #-770]	; 0xfffffcfe
    3a98:	000028c9 	andeq	r2, r0, r9, asr #17
    3a9c:	000000b2 	strheq	r0, [r0], -r2
    3aa0:	58030302 	stmdapl	r3, {r1, r8, r9}
    3aa4:	0028d305 	eoreq	sp, r8, r5, lsl #6
    3aa8:	0000b700 	andeq	fp, r0, r0, lsl #14
    3aac:	03040200 	movweq	r0, #16896	; 0x4200
    3ab0:	28dd055c 	ldmcs	sp, {r2, r3, r4, r6, r8, sl}^
    3ab4:	00b20000 	adcseq	r0, r2, r0
    3ab8:	05020000 	streq	r0, [r2, #-0]
    3abc:	e7056003 	str	r6, [r5, -r3]
    3ac0:	b2000028 	andlt	r0, r0, #40	; 0x28
    3ac4:	02000000 	andeq	r0, r0, #0
    3ac8:	05640306 	strbeq	r0, [r4, #-774]!	; 0xfffffcfa
    3acc:	000028f1 	strdeq	r2, [r0], -r1
    3ad0:	000002a0 	andeq	r0, r0, r0, lsr #5
    3ad4:	68030702 	stmdavs	r3, {r1, r8, r9, sl}
    3ad8:	0028fb05 	eoreq	pc, r8, r5, lsl #22
    3adc:	0000b200 	andeq	fp, r0, r0, lsl #4
    3ae0:	03080200 	movweq	r0, #33280	; 0x8200
    3ae4:	29000570 	stmdbcs	r0, {r4, r5, r6, r8, sl}
    3ae8:	00b20000 	adcseq	r0, r2, r0
    3aec:	09020000 	stmdbeq	r2, {}	; <UNPREDICTABLE>
    3af0:	04057403 	streq	r7, [r5], #-1027	; 0xfffffbfd
    3af4:	a0000029 	andge	r0, r0, r9, lsr #32
    3af8:	02000002 	andeq	r0, r0, #2
    3afc:	0578030a 	ldrbeq	r0, [r8, #-778]!	; 0xfffffcf6
    3b00:	0000290e 	andeq	r2, r0, lr, lsl #18
    3b04:	000000b2 	strheq	r0, [r0], -r2
    3b08:	80030b02 	andhi	r0, r3, r2, lsl #22
    3b0c:	00291405 	eoreq	r1, r9, r5, lsl #8
    3b10:	0000b200 	andeq	fp, r0, r0, lsl #4
    3b14:	030c0200 	movweq	r0, #49664	; 0xc200
    3b18:	291f0584 	ldmdbcs	pc, {r2, r7, r8, sl}	; <UNPREDICTABLE>
    3b1c:	00b20000 	adcseq	r0, r2, r0
    3b20:	0d020000 	stceq	0, cr0, [r2, #-0]
    3b24:	2a058803 	bcs	165b38 <__Vectors_Size+0x165940>
    3b28:	b2000029 	andlt	r0, r0, #41	; 0x29
    3b2c:	02000000 	andeq	r0, r0, #0
    3b30:	058c030e 	streq	r0, [ip, #782]	; 0x30e
    3b34:	00002933 	andeq	r2, r0, r3, lsr r9
    3b38:	000000b2 	strheq	r0, [r0], -r2
    3b3c:	90030f02 	andls	r0, r3, r2, lsl #30
    3b40:	00b70900 	adcseq	r0, r7, r0, lsl #18
    3b44:	d50a0000 	strle	r0, [sl, #-0]
    3b48:	02000000 	andeq	r0, r0, #0
    3b4c:	02b10200 	adcseq	r0, r1, #0, 4
    3b50:	bc070000 	stclt	0, cr0, [r7], {-0}
    3b54:	aa000002 	bge	3b64 <__Vectors_Size+0x396c>
    3b58:	02000029 	andeq	r0, r0, #41	; 0x29
    3b5c:	02500cdc 	subseq	r0, r0, #220, 24	; 0xdc00
    3b60:	29480dc6 	stmdbcs	r8, {r1, r2, r6, r7, r8, sl, fp}^
    3b64:	00b20000 	adcseq	r0, r2, r0
    3b68:	c8020000 	stmdagt	r2, {}	; <UNPREDICTABLE>
    3b6c:	294b0d00 	stmdbcs	fp, {r8, sl, fp}^
    3b70:	00b20000 	adcseq	r0, r2, r0
    3b74:	c9020000 	stmdbgt	r2, {}	; <UNPREDICTABLE>
    3b78:	294f0d04 	stmdbcs	pc, {r2, r8, sl, fp}^	; <UNPREDICTABLE>
    3b7c:	00b20000 	adcseq	r0, r2, r0
    3b80:	ca020000 	bgt	83b88 <__Vectors_Size+0x83990>
    3b84:	29530d08 	ldmdbcs	r3, {r3, r8, sl, fp}^
    3b88:	00b20000 	adcseq	r0, r2, r0
    3b8c:	cb020000 	blgt	83b94 <__Vectors_Size+0x8399c>
    3b90:	29590d0c 	ldmdbcs	r9, {r2, r3, r8, sl, fp}^
    3b94:	00b20000 	adcseq	r0, r2, r0
    3b98:	cc020000 	stcgt	0, cr0, [r2], {-0}
    3b9c:	295f0d10 	ldmdbcs	pc, {r4, r8, sl, fp}^	; <UNPREDICTABLE>
    3ba0:	00b20000 	adcseq	r0, r2, r0
    3ba4:	cd020000 	stcgt	0, cr0, [r2, #-0]
    3ba8:	29650d14 	stmdbcs	r5!, {r2, r4, r8, sl, fp}^
    3bac:	00b20000 	adcseq	r0, r2, r0
    3bb0:	ce020000 	cdpgt	0, 0, cr0, cr2, cr0, {0}
    3bb4:	296b0d18 	stmdbcs	fp!, {r3, r4, r8, sl, fp}^
    3bb8:	00b20000 	adcseq	r0, r2, r0
    3bbc:	cf020000 	svcgt	0x00020000
    3bc0:	29710d1c 	ldmdbcs	r1!, {r2, r3, r4, r8, sl, fp}^
    3bc4:	00b20000 	adcseq	r0, r2, r0
    3bc8:	d0020000 	andle	r0, r2, r0
    3bcc:	29770d20 	ldmdbcs	r7!, {r5, r8, sl, fp}^
    3bd0:	00b20000 	adcseq	r0, r2, r0
    3bd4:	d1020000 	mrsle	r0, (UNDEF: 2)
    3bd8:	297b0d24 	ldmdbcs	fp!, {r2, r5, r8, sl, fp}^
    3bdc:	00b20000 	adcseq	r0, r2, r0
    3be0:	d2020000 	andle	r0, r2, #0
    3be4:	297f0d28 	ldmdbcs	pc!, {r3, r5, r8, sl, fp}^	; <UNPREDICTABLE>
    3be8:	00b20000 	adcseq	r0, r2, r0
    3bec:	d3020000 	movwle	r0, #8192	; 0x2000
    3bf0:	29840d2c 	stmibcs	r4, {r2, r3, r5, r8, sl, fp}
    3bf4:	00b20000 	adcseq	r0, r2, r0
    3bf8:	d4020000 	strle	r0, [r2], #-0
    3bfc:	29890d30 	stmibcs	r9, {r4, r5, r8, sl, fp}
    3c00:	00b20000 	adcseq	r0, r2, r0
    3c04:	d5020000 	strle	r0, [r2, #-0]
    3c08:	298e0d34 	stmibcs	lr, {r2, r4, r5, r8, sl, fp}
    3c0c:	00b20000 	adcseq	r0, r2, r0
    3c10:	d6020000 	strle	r0, [r2], -r0
    3c14:	29930d38 	ldmibcs	r3, {r3, r4, r5, r8, sl, fp}
    3c18:	00b20000 	adcseq	r0, r2, r0
    3c1c:	d7020000 	strle	r0, [r2, -r0]
    3c20:	29980d3c 	ldmibcs	r8, {r2, r3, r4, r5, r8, sl, fp}
    3c24:	00b20000 	adcseq	r0, r2, r0
    3c28:	d8020000 	stmdale	r2, {}	; <UNPREDICTABLE>
    3c2c:	299d0d40 	ldmibcs	sp, {r6, r8, sl, fp}
    3c30:	00b20000 	adcseq	r0, r2, r0
    3c34:	d9020000 	stmdble	r2, {}	; <UNPREDICTABLE>
    3c38:	29a20d44 	stmibcs	r2!, {r2, r6, r8, sl, fp}
    3c3c:	00b20000 	adcseq	r0, r2, r0
    3c40:	da020000 	ble	83c48 <__Vectors_Size+0x83a50>
    3c44:	29a70d48 	stmibcs	r7!, {r3, r6, r8, sl, fp}
    3c48:	00b20000 	adcseq	r0, r2, r0
    3c4c:	db020000 	blle	83c54 <__Vectors_Size+0x83a5c>
    3c50:	280e004c 	stmdacs	lr, {r2, r3, r6}
    3c54:	d808001b 	stmdale	r8, {r0, r1, r3, r4}
    3c58:	01000001 	tsteq	r0, r1
    3c5c:	0029b65d 	eoreq	fp, r9, sp, asr r6
    3c60:	0f030300 	svceq	0x00030300
    3c64:	24049102 	strcs	r9, [r4], #-258	; 0xfffffefe
    3c68:	0300002a 	movweq	r0, #42	; 0x2a
    3c6c:	00002603 	andeq	r2, r0, r3, lsl #12
    3c70:	91020f00 	tstls	r2, r0, lsl #30
    3c74:	002a2902 	eoreq	r2, sl, r2, lsl #18
    3c78:	ad030300 	stcge	3, cr0, [r3, #-0]
    3c7c:	0f000004 	svceq	0x00000004
    3c80:	2d019102 	stfcsd	f1, [r1, #-8]
    3c84:	0300002a 	movweq	r0, #42	; 0x2a
    3c88:	00049b03 	andeq	r9, r4, r3, lsl #22
    3c8c:	e00e0000 	and	r0, lr, r0
    3c90:	4408001a 	strmi	r0, [r8], #-26	; 0xffffffe6
    3c94:	01000000 	mrseq	r0, (UNDEF: 0)
    3c98:	0029c35d 	eoreq	ip, r9, sp, asr r3
    3c9c:	0f210300 	svceq	0x00210300
    3ca0:	32049102 	andcc	r9, r4, #-2147483648	; 0x80000000
    3ca4:	0300002a 	movweq	r0, #42	; 0x2a
    3ca8:	00002621 	andeq	r2, r0, r1, lsr #12
    3cac:	91020f00 	tstls	r2, r0, lsl #30
    3cb0:	002a2902 	eoreq	r2, sl, r2, lsl #18
    3cb4:	ad210300 	stcge	3, cr0, [r1, #-0]
    3cb8:	0f000004 	svceq	0x00000004
    3cbc:	37019102 	strcc	r9, [r1, -r2, lsl #2]
    3cc0:	0300002a 	movweq	r0, #42	; 0x2a
    3cc4:	00049b21 	andeq	r9, r4, r1, lsr #22
    3cc8:	00100000 	andseq	r0, r0, r0
    3ccc:	30000000 	andcc	r0, r0, r0
    3cd0:	01000000 	mrseq	r0, (UNDEF: 0)
    3cd4:	0029d55d 	eoreq	sp, r9, sp, asr r5
    3cd8:	9b270300 	blls	9c48e0 <__Vectors_Size+0x9c46e8>
    3cdc:	0f000004 	svceq	0x00000004
    3ce0:	32049102 	andcc	r9, r4, #-2147483648	; 0x80000000
    3ce4:	0300002a 	movweq	r0, #42	; 0x2a
    3ce8:	00002627 	andeq	r2, r0, r7, lsr #12
    3cec:	91020f00 	tstls	r2, r0, lsl #30
    3cf0:	002a2902 	eoreq	r2, sl, r2, lsl #18
    3cf4:	ad270300 	stcge	3, cr0, [r7, #-0]
    3cf8:	00000004 	andeq	r0, r0, r4
    3cfc:	00000010 	andeq	r0, r0, r0, lsl r0
    3d00:	00007a00 	andeq	r7, r0, r0, lsl #20
    3d04:	fc5d0100 	mrrc2	1, 0, r0, sp, cr0
    3d08:	03000029 	movweq	r0, #41	; 0x29
    3d0c:	0004ad2d 	andeq	sl, r4, sp, lsr #26
    3d10:	91020f00 	tstls	r2, r0, lsl #30
    3d14:	002a2404 	eoreq	r2, sl, r4, lsl #8
    3d18:	262d0300 	strtcs	r0, [sp], -r0, lsl #6
    3d1c:	0f000000 	svceq	0x00000000
    3d20:	29029102 	stmdbcs	r2, {r1, r8, ip, pc}
    3d24:	0300002a 	movweq	r0, #42	; 0x2a
    3d28:	0004ad2d 	andeq	sl, r4, sp, lsr #26
    3d2c:	91021100 	mrsls	r1, (UNDEF: 18)
    3d30:	002a3d00 	eoreq	r3, sl, r0, lsl #26
    3d34:	ad3a0300 	ldcge	3, cr0, [sl, #-0]
    3d38:	00000004 	andeq	r0, r0, r4
    3d3c:	0004a607 	andeq	sl, r4, r7, lsl #12
    3d40:	0029f400 	eoreq	pc, r9, r0, lsl #8
    3d44:	083e0100 	ldmdaeq	lr!, {r8}
    3d48:	000029e6 	andeq	r2, r0, r6, ror #19
    3d4c:	b8070108 	stmdalt	r7, {r3, r8}
    3d50:	1b000004 	blne	3d68 <__Vectors_Size+0x3b70>
    3d54:	0100002a 	tsteq	r0, sl, lsr #32
    3d58:	2a0c083f 	bcs	305e5c <__Vectors_Size+0x305c64>
    3d5c:	02070000 	andeq	r0, r7, #0
	...

Disassembly of section .debug_line:

00000000 <.debug_line>:
TIM_WaitMicros():
D:\#Documents\UVISION\SMART_WAKE_UP/tim.c:4
       0:	0000023c 	andeq	r0, r0, ip, lsr r2
       4:	01350004 	teqeq	r5, r4
       8:	01010000 	mrseq	r0, (UNDEF: 1)
       c:	0d0efb01 	vstreq	d15, [lr, #-4]
D:\#Documents\UVISION\SMART_WAKE_UP/tim.c:5
      10:	01010100 	mrseq	r0, (UNDEF: 17)
      14:	00000001 	andeq	r0, r0, r1
      18:	01000001 	tsteq	r0, r1
D:\#Documents\UVISION\SMART_WAKE_UP/tim.c:6
      1c:	535c3a44 	cmppl	ip, #68, 20	; 0x44000
      20:	5c54464f 	mrrcpl	6, 4, r4, r4, cr15	; <UNPREDICTABLE>
      24:	73695675 	cmnvc	r9, #122683392	; 0x7500000
D:\#Documents\UVISION\SMART_WAKE_UP/tim.c:8
      28:	5c6e6f69 	stclpl	15, cr6, [lr], #-420	; 0xfffffe5c
      2c:	6c69654b 	cfstr64vs	mvdx6, [r9], #-300	; 0xfffffed4
      30:	5c35565f 	ldcpl	6, cr5, [r5], #-380	; 0xfffffe84
      34:	5c4d5241 	sfmpl	f5, 2, [sp], {65}	; 0x41
D:\#Documents\UVISION\SMART_WAKE_UP/tim.c:52
      38:	434d5241 	movtmi	r5, #53825	; 0xd241
      3c:	474e414c 	strbmi	r4, [lr, -ip, asr #2]
D:\#Documents\UVISION\SMART_WAKE_UP/tim.c:8
      40:	6e69425c 	mcrvs	2, 3, r4, cr9, cr12, {2}
      44:	5c2e2e5c 	stcpl	14, cr2, [lr], #-368	; 0xfffffe90
      48:	6c636e69 	stclvs	14, cr6, [r3], #-420	; 0xfffffe5c
      4c:	00656475 	rsbeq	r6, r5, r5, ror r4
      50:	2f455452 	svccs	0x00455452
      54:	69766544 	ldmdbvs	r6!, {r2, r6, r8, sl, sp, lr}^
D:\#Documents\UVISION\SMART_WAKE_UP/tim.c:58
      58:	532f6563 			; <UNDEFINED> instruction: 0x532f6563
      5c:	32334d54 	eorscc	r4, r3, #84, 26	; 0x1500
D:\#Documents\UVISION\SMART_WAKE_UP/tim.c:9
      60:	37363746 	ldrcc	r3, [r6, -r6, asr #14]!
D:\#Documents\UVISION\SMART_WAKE_UP/tim.c:10
      64:	7854495a 	ldmdavc	r4, {r1, r3, r4, r6, r8, fp, lr}^
GPIO_AnalogRead():
D:\#Documents\UVISION\SMART_WAKE_UP/gpio.c:61
      68:	2f3a4400 	svccs	0x003a4400
      6c:	54464f53 	strbpl	r4, [r6], #-3923	; 0xfffff0ad
      70:	6956752f 	ldmdbvs	r6, {r0, r1, r2, r3, r5, r8, sl, ip, sp, lr}^
D:\#Documents\UVISION\SMART_WAKE_UP/gpio.c:63
      74:	6e6f6973 			; <UNDEFINED> instruction: 0x6e6f6973
      78:	6361502f 	cmnvs	r1, #47	; 0x2f
URM37_Init():
D:\#Documents\UVISION\SMART_WAKE_UP/urm37.c:125
      7c:	412f736b 			; <UNDEFINED> instruction: 0x412f736b
D:\#Documents\UVISION\SMART_WAKE_UP/urm37.c:126
      80:	432f4d52 			; <UNDEFINED> instruction: 0x432f4d52
      84:	5349534d 	movtpl	r5, #37709	; 0x934d
      88:	392e352f 	stmdbcc	lr!, {r0, r1, r2, r3, r5, r8, sl, ip, sp}
      8c:	432f302e 			; <UNDEFINED> instruction: 0x432f302e
      90:	5349534d 	movtpl	r5, #37709	; 0x934d
      94:	726f432f 	rsbvc	r4, pc, #-1140850688	; 0xbc000000
      98:	6e492f65 	cdpvs	15, 4, cr2, cr9, cr5, {3}
D:\#Documents\UVISION\SMART_WAKE_UP/urm37.c:128
      9c:	64756c63 	ldrbtvs	r6, [r5], #-3171	; 0xfffff39d
D:\#Documents\UVISION\SMART_WAKE_UP/urm37.c:129
      a0:	3a440065 	bcc	110023c <__Vectors_Size+0x1100044>
      a4:	464f532f 	strbmi	r5, [pc], -pc, lsr #6
      a8:	56752f54 	uhsaxpl	r2, r5, r4
      ac:	6f697369 	svcvs	0x00697369
      b0:	61502f6e 	cmpvs	r0, lr, ror #30
      b4:	2f736b63 	svccs	0x00736b63
      b8:	6c69654b 	cfstr64vs	mvdx6, [r9], #-300	; 0xfffffed4
URM37_GetTemperature():
      bc:	4d54532f 	ldclmi	3, cr5, [r4, #-188]	; 0xffffff44
SystemCoreClockUpdate():
D:\#Documents\UVISION\SMART_WAKE_UP/RTE/Device/STM32F767ZITx/system_stm32f7xx.c:231
      c0:	37463233 	smlaldxcc	r3, r6, r3, r2
D:\#Documents\UVISION\SMART_WAKE_UP/RTE/Device/STM32F767ZITx/system_stm32f7xx.c:449
      c4:	445f7878 	ldrbmi	r7, [pc], #-2168	; cc <BuildAttributes$$THM_ISAv4$E$P$D$K$B$S$7EM$VFPv5_D16$PE$PLD8$A:L22UL41UL21$X:L11$S22US41US21$IEEE1$IW$~IW$USESV6$~STKCKD$USESV7$~SHL$OTIME$ROPI$IEEEJ$EBA8$UX$STANDARDLIB$REQ8$PRES8$EABIv2+0xcc>
      c8:	322f5046 	eorcc	r5, pc, #70	; 0x46
D:\#Documents\UVISION\SMART_WAKE_UP/RTE/Device/STM32F767ZITx/system_stm32f7xx.c:234
      cc:	2e35312e 	rsfcssp	f3, f5, #0.5
      d0:	72442f32 	subvc	r2, r4, #50, 30	; 0xc8
      d4:	72657669 	rsbvc	r7, r5, #110100480	; 0x6900000
D:\#Documents\UVISION\SMART_WAKE_UP/RTE/Device/STM32F767ZITx/system_stm32f7xx.c:235
      d8:	4d432f73 	stclmi	15, cr2, [r3, #-460]	; 0xfffffe34
      dc:	2f534953 	svccs	0x00534953
      e0:	69766544 	ldmdbvs	r6!, {r2, r6, r8, sl, sp, lr}^
      e4:	532f6563 			; <UNDEFINED> instruction: 0x532f6563
      e8:	54532f54 	ldrbpl	r2, [r3], #-3924	; 0xfffff0ac
D:\#Documents\UVISION\SMART_WAKE_UP/RTE/Device/STM32F767ZITx/system_stm32f7xx.c:238
      ec:	4632334d 	ldrtmi	r3, [r2], -sp, asr #6
      f0:	2f787837 	svccs	0x00787837
      f4:	6c636e49 	stclvs	14, cr6, [r3], #-292	; 0xfffffedc
      f8:	00656475 	rsbeq	r6, r5, r5, ror r4
      fc:	64747300 	ldrbtvs	r7, [r4], #-768	; 0xfffffd00
D:\#Documents\UVISION\SMART_WAKE_UP/RTE/Device/STM32F767ZITx/system_stm32f7xx.c:456
     100:	2e746e69 	cdpcs	14, 7, cr6, cr4, cr9, {3}
D:\#Documents\UVISION\SMART_WAKE_UP/RTE/Device/STM32F767ZITx/system_stm32f7xx.c:457
     104:	00010068 	andeq	r0, r1, r8, rrx
D:\#Documents\UVISION\SMART_WAKE_UP/RTE/Device/STM32F767ZITx/system_stm32f7xx.c:243
     108:	73797300 	cmnvc	r9, #0, 6
     10c:	5f6d6574 	svcpl	0x006d6574
     110:	336d7473 	cmncc	sp, #1929379840	; 0x73000000
     114:	78376632 	ldmdavc	r7!, {r1, r4, r5, r9, sl, sp, lr}
     118:	00632e78 	rsbeq	r2, r3, r8, ror lr
D:\#Documents\UVISION\SMART_WAKE_UP/RTE/Device/STM32F767ZITx/system_stm32f7xx.c:245
     11c:	63000002 	movwvs	r0, #2
     120:	5f65726f 	svcpl	0x0065726f
     124:	2e376d63 	cdpcs	13, 3, cr6, cr7, cr3, {3}
     128:	00030068 	andeq	r0, r3, r8, rrx
D:\#Documents\UVISION\SMART_WAKE_UP/RTE/Device/STM32F767ZITx/system_stm32f7xx.c:246
     12c:	6d747300 	ldclvs	3, cr7, [r4, #-0]
SH1106_DrawCircle():
D:\#Documents\UVISION\SMART_WAKE_UP/sh1106.c:461
     130:	37663233 			; <UNDEFINED> instruction: 0x37663233
     134:	78783736 	ldmdavc	r8!, {r1, r2, r4, r5, r8, r9, sl, ip, sp}^
     138:	0400682e 	streq	r6, [r0], #-2094	; 0xfffff7d2
     13c:	04000000 	streq	r0, [r0], #-0
     140:	02050002 	andeq	r0, r5, #2
     144:	08002830 	stmdaeq	r0, {r4, r5, fp, sp}
     148:	01019703 	tsteq	r1, r3, lsl #14
     14c:	850a0e05 	strhi	r0, [sl, #-3589]	; 0xfffff1fb
D:\#Documents\UVISION\SMART_WAKE_UP/sh1106.c:462
     150:	02890105 	addeq	r0, r9, #1073741825	; 0x40000001
     154:	01010002 	tsteq	r1, r2
     158:	05000204 	streq	r0, [r0, #-516]	; 0xfffffdfc
     15c:	00000002 	andeq	r0, r0, r2
     160:	01c80300 	biceq	r0, r8, r0, lsl #6
     164:	0a0c0501 	beq	301570 <__Vectors_Size+0x301378>
     168:	0615054b 	ldreq	r0, [r5], -fp, asr #10
     16c:	4a21052e 	bmi	84162c <__Vectors_Size+0x841434>
     170:	052e2b05 	streq	r2, [lr, #-2821]!	; 0xfffff4fb
     174:	0e052e3a 	mcreq	14, 0, r2, cr5, cr10, {1}
D:\#Documents\UVISION\SMART_WAKE_UP/sh1106.c:464
     178:	1305a106 	movwne	sl, #20742	; 0x5106
     17c:	07052e06 	streq	r2, [r5, -r6, lsl #28]
     180:	060b054a 	streq	r0, [fp], -sl, asr #10
     184:	06030530 			; <UNDEFINED> instruction: 0x06030530
     188:	0617052e 	ldreq	r0, [r7], -lr, lsr #10
     18c:	07055b08 	streq	r5, [r5, -r8, lsl #22]
     190:	17052108 	strne	r2, [r5, -r8, lsl #2]
     194:	08070530 	stmdaeq	r7, {r4, r5, r8, sl}
     198:	aa030621 	bge	c1a24 <__Vectors_Size+0xc182c>
     19c:	19052e7e 	stmdbne	r5, {r1, r2, r3, r4, r5, r6, r9, sl, fp, sp}
D:\#Documents\UVISION\SMART_WAKE_UP/sh1106.c:465
     1a0:	01dc0306 	bicseq	r0, ip, r6, lsl #6
SH1106_DrawFilledCircle():
D:\#Documents\UVISION\SMART_WAKE_UP/sh1106.c:465
     1a4:	06370582 	ldrteq	r0, [r7], -r2, lsl #11
     1a8:	4a11052e 	bmi	441668 <__Vectors_Size+0x441470>
     1ac:	2f061305 	svccs	0x00061305
     1b0:	2e061b05 	vmlacs.f64	d1, d6, d5
     1b4:	054a0c05 	strbeq	r0, [sl, #-3077]	; 0xfffff3fb
     1b8:	0630060b 	ldrteq	r0, [r0], -fp, lsl #12
     1bc:	061f052e 	ldreq	r0, [pc], -lr, lsr #10
     1c0:	061d054d 	ldreq	r0, [sp], -sp, asr #10
     1c4:	ba2e059e 	blt	b81844 <__Vectors_Size+0xb8164c>
D:\#Documents\UVISION\SMART_WAKE_UP/sh1106.c:449
     1c8:	052e4a05 	streq	r4, [lr, #-2565]!	; 0xfffff5fb
D:\#Documents\UVISION\SMART_WAKE_UP/sh1106.c:467
     1cc:	10054a25 	andne	r4, r5, r5, lsr #20
     1d0:	0607052e 	streq	r0, [r7], -lr, lsr #10
     1d4:	321f052f 	andscc	r0, pc, #197132288	; 0xbc00000
     1d8:	9e061d05 	cdpls	13, 0, cr1, cr6, cr5, {0}
     1dc:	05ba2e05 	ldreq	r2, [sl, #3589]!	; 0xe05
     1e0:	25052e4a 	strcs	r2, [r5, #-3658]	; 0xfffff1b6
     1e4:	2e10054a 	cfmac32cs	mvfx0, mvfx0, mvfx10
     1e8:	4a7e9903 	bmi	1fa65fc <__Vectors_Size+0x1fa6404>
     1ec:	03061605 	movweq	r1, #26117	; 0x6605
     1f0:	058201ea 	streq	r0, [r2, #490]	; 0x1ea
     1f4:	052e061e 	streq	r0, [lr, #-1566]!	; 0xfffff9e2
     1f8:	0c05663e 	stceq	6, cr6, [r5], {62}	; 0x3e
     1fc:	0619054a 	ldreq	r0, [r9], -sl, asr #10
     200:	0620052f 	strteq	r0, [r0], -pc, lsr #10
     204:	2e1f052e 	cfmul64cs	mvdx0, mvdx15, mvdx14
     208:	054a1705 	strbeq	r1, [sl, #-1797]	; 0xfffff8fb
     20c:	059f0607 	ldreq	r0, [pc, #1543]	; 81b <__Vectors_Size+0x623>
     210:	07053017 	smladeq	r5, r7, r0, r3
     214:	03062108 	movweq	r2, #24840	; 0x6108
     218:	052e7e91 	streq	r7, [lr, #-3729]!	; 0xfffff16f
     21c:	f303061e 	vmin.u8	d0, d3, d14
     220:	23058201 	movwcs	r8, #20993	; 0x5201
     224:	34052e06 	strcc	r2, [r5], #-3590	; 0xfffff1fa
     228:	2e09052e 	cfsh32cs	mvfx0, mvfx9, #30
     22c:	059e0705 	ldreq	r0, [lr, #1797]	; 0x705
     230:	05300617 	ldreq	r0, [r0, #-1559]!	; 0xfffff9e9
     234:	052e0613 	streq	r0, [lr, #-1555]!	; 0xfffff9ed
     238:	02d70601 	sbcseq	r0, r7, #1048576	; 0x100000
     23c:	01010004 	tsteq	r1, r4
     240:	00000078 	andeq	r0, r0, r8, ror r0
     244:	00460003 	subeq	r0, r6, r3
     248:	01010000 	mrseq	r0, (UNDEF: 1)
     24c:	000d0600 	andeq	r0, sp, r0, lsl #12
     250:	01010101 	tsteq	r1, r1, lsl #2
     254:	00000000 	andeq	r0, r0, r0
     258:	52010000 	andpl	r0, r1, #0
     25c:	442f4554 	strtmi	r4, [pc], #-1364	; 264 <__Vectors_Size+0x6c>
     260:	63697665 	cmnvs	r9, #105906176	; 0x6500000
     264:	54532f65 	ldrbpl	r2, [r3], #-3941	; 0xfffff09b
     268:	4632334d 	ldrtmi	r3, [r2], -sp, asr #6
     26c:	5a373637 	bpl	dcdb50 <__Vectors_Size+0xdcd958>
     270:	2f785449 	svccs	0x00785449
     274:	74730000 	ldrbtvc	r0, [r3], #-0
     278:	75747261 	ldrbvc	r7, [r4, #-609]!	; 0xfffffd9f
     27c:	74735f70 	ldrbtvc	r5, [r3], #-3952	; 0xfffff090
     280:	6632336d 	ldrtvs	r3, [r2], -sp, ror #6
     284:	78373637 	ldmdavc	r7!, {r0, r1, r2, r4, r5, r9, sl, ip, sp}
     288:	00732e78 	rsbseq	r2, r3, r8, ror lr
     28c:	00000001 	andeq	r0, r0, r1
     290:	8c020500 	cfstr32hi	mvfx0, [r2], {-0}
     294:	03080003 	movweq	r0, #32771	; 0x8003
     298:	1a0101c7 	bne	409bc <__Vectors_Size+0x407c4>
     29c:	07031a1a 	smladeq	r3, sl, sl, r1
     2a0:	1e1e1e19 	mrcne	14, 0, r1, cr14, cr9, {0}
     2a4:	1d1e1d1e 	ldcne	13, cr1, [lr, #-120]	; 0xffffff88
     2a8:	01de031d 	bicseq	r0, lr, sp, lsl r3
     2ac:	19160319 	ldmdbne	r6, {r0, r3, r4, r8, r9}
     2b0:	1a1a1a1a 	bne	686b20 <__Vectors_Size+0x686928>
     2b4:	06060202 	streq	r0, [r6], -r2, lsl #4
     2b8:	01010006 	tsteq	r1, r6
     2bc:	000003b1 			; <UNDEFINED> instruction: 0x000003b1
     2c0:	01130004 	tsteq	r3, r4
     2c4:	01010000 	mrseq	r0, (UNDEF: 1)
     2c8:	0d0efb01 	vstreq	d15, [lr, #-4]
     2cc:	01010100 	mrseq	r0, (UNDEF: 17)
     2d0:	00000001 	andeq	r0, r0, r1
     2d4:	01000001 	tsteq	r0, r1
     2d8:	535c3a44 	cmppl	ip, #68, 20	; 0x44000
     2dc:	5c54464f 	mrrcpl	6, 4, r4, r4, cr15	; <UNPREDICTABLE>
     2e0:	73695675 	cmnvc	r9, #122683392	; 0x7500000
     2e4:	5c6e6f69 	stclpl	15, cr6, [lr], #-420	; 0xfffffe5c
     2e8:	6c69654b 	cfstr64vs	mvdx6, [r9], #-300	; 0xfffffed4
     2ec:	5c35565f 	ldcpl	6, cr5, [r5], #-380	; 0xfffffe84
     2f0:	5c4d5241 	sfmpl	f5, 2, [sp], {65}	; 0x41
     2f4:	434d5241 	movtmi	r5, #53825	; 0xd241
     2f8:	474e414c 	strbmi	r4, [lr, -ip, asr #2]
     2fc:	6e69425c 	mcrvs	2, 3, r4, cr9, cr12, {2}
     300:	5c2e2e5c 	stcpl	14, cr2, [lr], #-368	; 0xfffffe90
     304:	6c636e69 	stclvs	14, cr6, [r3], #-420	; 0xfffffe5c
     308:	00656475 	rsbeq	r6, r5, r5, ror r4
     30c:	532f3a44 			; <UNDEFINED> instruction: 0x532f3a44
     310:	2f54464f 	svccs	0x0054464f
     314:	73695675 	cmnvc	r9, #122683392	; 0x7500000
     318:	2f6e6f69 	svccs	0x006e6f69
     31c:	6b636150 	blvs	18d8864 <__Vectors_Size+0x18d866c>
     320:	654b2f73 	strbvs	r2, [fp, #-3955]	; 0xfffff08d
     324:	532f6c69 			; <UNDEFINED> instruction: 0x532f6c69
     328:	32334d54 	eorscc	r4, r3, #84, 26	; 0x1500
     32c:	78783746 	ldmdavc	r8!, {r1, r2, r6, r8, r9, sl, ip, sp}^
     330:	5046445f 	subpl	r4, r6, pc, asr r4
     334:	312e322f 			; <UNDEFINED> instruction: 0x312e322f
     338:	2f322e35 	svccs	0x00322e35
     33c:	76697244 	strbtvc	r7, [r9], -r4, asr #4
     340:	2f737265 	svccs	0x00737265
     344:	49534d43 	ldmdbmi	r3, {r0, r1, r6, r8, sl, fp, lr}^
     348:	65442f53 	strbvs	r2, [r4, #-3923]	; 0xfffff0ad
     34c:	65636976 	strbvs	r6, [r3, #-2422]!	; 0xfffff68a
     350:	2f54532f 	svccs	0x0054532f
     354:	334d5453 	movtcc	r5, #54355	; 0xd453
     358:	78374632 	ldmdavc	r7!, {r1, r4, r5, r9, sl, lr}
     35c:	6e492f78 	mcrvs	15, 2, r2, cr9, cr8, {3}
     360:	64756c63 	ldrbtvs	r6, [r5], #-3171	; 0xfffff39d
     364:	3a440065 	bcc	1100500 <__Vectors_Size+0x1100308>
     368:	464f532f 	strbmi	r5, [pc], -pc, lsr #6
     36c:	56752f54 	uhsaxpl	r2, r5, r4
     370:	6f697369 	svcvs	0x00697369
     374:	61502f6e 	cmpvs	r0, lr, ror #30
     378:	2f736b63 	svccs	0x00736b63
     37c:	2f4d5241 	svccs	0x004d5241
     380:	49534d43 	ldmdbmi	r3, {r0, r1, r6, r8, sl, fp, lr}^
     384:	2e352f53 	mrccs	15, 1, r2, cr5, cr3, {2}
     388:	2f302e39 	svccs	0x00302e39
     38c:	49534d43 	ldmdbmi	r3, {r0, r1, r6, r8, sl, fp, lr}^
     390:	6f432f53 	svcvs	0x00432f53
     394:	492f6572 	stmdbmi	pc!, {r1, r4, r5, r6, r8, sl, sp, lr}	; <UNPREDICTABLE>
     398:	756c636e 	strbvc	r6, [ip, #-878]!	; 0xfffffc92
     39c:	00006564 	andeq	r6, r0, r4, ror #10
     3a0:	69647473 	stmdbvs	r4!, {r0, r1, r4, r5, r6, sl, ip, sp, lr}^
     3a4:	682e746e 	stmdavs	lr!, {r1, r2, r3, r5, r6, sl, ip, sp, lr}
     3a8:	00000100 	andeq	r0, r0, r0, lsl #2
     3ac:	74747562 	ldrbtvc	r7, [r4], #-1378	; 0xfffffa9e
     3b0:	2e736e6f 	cdpcs	14, 7, cr6, cr3, cr15, {3}
     3b4:	00000063 	andeq	r0, r0, r3, rrx
     3b8:	6d747300 	ldclvs	3, cr7, [r4, #-0]
     3bc:	37663233 			; <UNDEFINED> instruction: 0x37663233
     3c0:	78783736 	ldmdavc	r8!, {r1, r2, r4, r5, r8, r9, sl, ip, sp}^
     3c4:	0200682e 	andeq	r6, r0, #3014656	; 0x2e0000
     3c8:	6f630000 	svcvs	0x00630000
     3cc:	635f6572 	cmpvs	pc, #478150656	; 0x1c800000
     3d0:	682e376d 	stmdavs	lr!, {r0, r2, r3, r5, r6, r8, r9, sl, ip, sp}
     3d4:	00000300 	andeq	r0, r0, r0, lsl #6
     3d8:	00020400 	andeq	r0, r2, r0, lsl #8
     3dc:	14c80205 	strbne	r0, [r8], #517	; 0x205
     3e0:	d7030800 	strle	r0, [r3, -r0, lsl #16]
     3e4:	12050100 	andne	r0, r5, #0, 2
     3e8:	0505a00a 	streq	sl, [r5, #-10]
     3ec:	054b4b84 	strbeq	r4, [fp, #-2948]	; 0xfffff47c
     3f0:	02024b01 	andeq	r4, r2, #1024	; 0x400
     3f4:	04010100 	streq	r0, [r1], #-256	; 0xffffff00
     3f8:	02050002 	andeq	r0, r5, #2
     3fc:	080014e8 	stmdaeq	r0, {r3, r5, r6, r7, sl, ip}
     400:	05011703 	streq	r1, [r1, #-1795]	; 0xfffff8fd
     404:	08a00a12 	stmiaeq	r0!, {r1, r4, r9, fp}
     408:	f317053d 	vqrshl.u16	d0, d29, d7
     40c:	05f31005 	ldrbeq	r1, [r3, #5]!
     410:	1205f30f 	andne	pc, r5, #1006632960	; 0x3c000000
     414:	053d0885 	ldreq	r0, [sp, #-2181]!	; 0xfffff77b
     418:	1005f317 	andne	pc, r5, r7, lsl r3	; <UNPREDICTABLE>
     41c:	830f05bb 	movwhi	r0, #62907	; 0xf5bb
     420:	08851205 	stmeq	r5, {r0, r2, r9, ip}
     424:	f3170521 	vrshl.u16	d0, d17, d7
     428:	054b1005 	strbeq	r1, [fp, #-5]
     42c:	1205830f 	andne	r8, r5, #1006632960	; 0x3c000000
     430:	053d0885 	ldreq	r0, [sp, #-2181]!	; 0xfffff77b
     434:	1005bb17 	andne	fp, r5, r7, lsl fp
     438:	830f05bb 	movwhi	r0, #62907	; 0xf5bb
     43c:	05851205 	streq	r1, [r5, #517]	; 0x205
     440:	02028301 	andeq	r8, r2, #67108864	; 0x4000000
     444:	04010100 	streq	r0, [r1], #-256	; 0xffffff00
     448:	02050002 	andeq	r0, r5, #2
     44c:	08001600 	stmdaeq	r0, {r9, sl, ip}
     450:	05013a03 	streq	r3, [r1, #-2563]	; 0xfffff5fd
     454:	67a00a05 	strvs	r0, [r0, r5, lsl #20]!
     458:	679f679f 			; <UNDEFINED> instruction: 0x679f679f
     45c:	0105679f 			; <UNDEFINED> instruction: 0x0105679f
     460:	0004024b 	andeq	r0, r4, fp, asr #4
     464:	02040101 	andeq	r0, r4, #1073741824	; 0x40000000
     468:	68020500 	stmdavs	r2, {r8, sl}
     46c:	03080016 	movweq	r0, #32790	; 0x8016
     470:	050100c8 	streq	r0, [r1, #-200]	; 0xffffff38
     474:	05bb0a12 	ldreq	r0, [fp, #2578]!	; 0xa12
     478:	bb22080f 	bllt	8824bc <__Vectors_Size+0x8822c4>
     47c:	05841005 	streq	r1, [r4, #5]
     480:	0505bb0f 	streq	fp, [r5, #-2831]	; 0xfffff4f1
     484:	010567d8 	ldrdeq	r6, [r5, -r8]
     488:	0004024b 	andeq	r0, r4, fp, asr #4
     48c:	02040101 	andeq	r0, r4, #1073741824	; 0x40000000
     490:	f0020500 			; <UNDEFINED> instruction: 0xf0020500
     494:	03080019 	movweq	r0, #32793	; 0x8019
     498:	050100e2 	streq	r0, [r1, #-226]	; 0xffffff1e
     49c:	05830a0f 	streq	r0, [r3, #2575]	; 0xa0f
     4a0:	032e0609 			; <UNDEFINED> instruction: 0x032e0609
     4a4:	06827f9c 	pkhbteq	r7, r2, ip, lsl #31
     4a8:	8200e603 	andhi	lr, r0, #3145728	; 0x300000
     4ac:	059f1205 	ldreq	r1, [pc, #517]	; 6b9 <__Vectors_Size+0x4c1>
     4b0:	05058319 	streq	r8, [r5, #-793]	; 0xfffffce7
     4b4:	2f0105bb 	svccs	0x000105bb
     4b8:	01000202 	tsteq	r0, r2, lsl #4
     4bc:	00020401 	andeq	r0, r2, r1, lsl #8
     4c0:	1a300205 	bne	c00cdc <__Vectors_Size+0xc00ae4>
     4c4:	ed030800 	stc	8, cr0, [r3, #-0]
     4c8:	0f050100 	svceq	0x00050100
     4cc:	0905830a 	stmdbeq	r5, {r1, r3, r8, r9, pc}
     4d0:	91032e06 	tstls	r3, r6, lsl #28
     4d4:	0306827f 	movweq	r8, #25215	; 0x627f
     4d8:	058200f1 	streq	r0, [r2, #241]	; 0xf1
     4dc:	1c059f12 	stcne	15, cr9, [r5], {18}
     4e0:	bb050583 	bllt	141af4 <__Vectors_Size+0x1418fc>
     4e4:	022f0105 	eoreq	r0, pc, #1073741825	; 0x40000001
     4e8:	01010002 	tsteq	r1, r2
     4ec:	05000204 	streq	r0, [r0, #-516]	; 0xfffffdfc
     4f0:	001aa802 	andseq	sl, sl, r2, lsl #16
     4f4:	00f80308 	rscseq	r0, r8, r8, lsl #6
     4f8:	0a0f0501 	beq	3c1904 <__Vectors_Size+0x3c170c>
     4fc:	06090583 	streq	r0, [r9], -r3, lsl #11
     500:	7f86032e 	svcvc	0x0086032e
     504:	06120582 	ldreq	r0, [r2], -r2, lsl #11
     508:	8200fc03 	andhi	pc, r0, #768	; 0x300
     50c:	05831b05 	streq	r1, [r3, #2821]	; 0xb05
     510:	0105bb05 	tsteq	r5, r5, lsl #22
     514:	0002022f 	andeq	r0, r2, pc, lsr #4
     518:	02040101 	andeq	r0, r4, #1073741824	; 0x40000000
     51c:	70020500 	andvc	r0, r2, r0, lsl #10
     520:	0308001a 	movweq	r0, #32794	; 0x801a
     524:	05010182 	streq	r0, [r1, #-386]	; 0xfffffe7e
     528:	05830a0f 	streq	r0, [r3, #2575]	; 0xa0f
     52c:	032e0609 			; <UNDEFINED> instruction: 0x032e0609
     530:	05827efc 	streq	r7, [r2, #3836]	; 0xefc
     534:	86030612 			; <UNDEFINED> instruction: 0x86030612
     538:	1a058201 	bne	160d44 <__Vectors_Size+0x160b4c>
     53c:	bb050583 	bllt	141b50 <__Vectors_Size+0x141958>
     540:	022f0105 	eoreq	r0, pc, #1073741825	; 0x40000001
     544:	01010002 	tsteq	r1, r2
     548:	05000204 	streq	r0, [r0, #-516]	; 0xfffffdfc
     54c:	00164802 	andseq	r4, r6, r2, lsl #16
     550:	018c0308 	orreq	r0, ip, r8, lsl #6
     554:	0a1d0501 	beq	741960 <__Vectors_Size+0x741768>
     558:	06210583 	strteq	r0, [r1], -r3, lsl #11
     55c:	4a13052e 	bmi	4c1a1c <__Vectors_Size+0x4c1824>
     560:	9f060105 	svcls	0x00060105
     564:	01000202 	tsteq	r0, r2, lsl #4
     568:	00020401 	andeq	r0, r2, r1, lsl #8
     56c:	28480205 	stmdacs	r8, {r0, r2, r9}^
     570:	92030800 	andls	r0, r3, #0, 16
     574:	0f050101 	svceq	0x00050101
     578:	0905670a 	stmdbeq	r5, {r1, r3, r8, r9, sl, sp, lr}
     57c:	ec032e06 	stc	14, cr2, [r3], {6}
     580:	1205827e 	andne	r8, r5, #-536870905	; 0xe0000007
     584:	01960306 	orrseq	r0, r6, r6, lsl #6
     588:	f4150566 			; <UNDEFINED> instruction: 0xf4150566
     58c:	2e062a05 	vmlacs.f32	s4, s12, s10
     590:	827ee803 	rsbshi	lr, lr, #196608	; 0x30000
     594:	98033605 	stmdals	r3, {r0, r2, r9, sl, ip, sp}
     598:	0d058201 	sfmeq	f0, 1, [r5, #-4]
     59c:	061d052e 	ldreq	r0, [sp], -lr, lsr #10
     5a0:	08170585 	ldmdaeq	r7, {r0, r2, r7, r8, sl}
     5a4:	2f09053d 	svccs	0x0009053d
     5a8:	7ee30306 	cdpvc	3, 14, cr0, cr3, cr6, {0}
     5ac:	061a052e 	ldreq	r0, [sl], -lr, lsr #10
     5b0:	82019e03 	andhi	r9, r1, #3, 28	; 0x30
     5b4:	2e062e05 	cdpcs	14, 0, cr2, cr6, cr5, {0}
     5b8:	827ee203 	rsbshi	lr, lr, #805306368	; 0x30000000
     5bc:	9e033a05 	vmlals.f32	s6, s6, s10
     5c0:	12058201 	andne	r8, r5, #268435456	; 0x10000000
     5c4:	0620052e 	strteq	r0, [r0], -lr, lsr #10
     5c8:	08170585 	ldmdaeq	r7, {r0, r2, r7, r8, sl}
     5cc:	2f09053d 	svccs	0x0009053d
     5d0:	7edd0306 	cdpvc	3, 13, cr0, cr13, cr6, {0}
     5d4:	0617052e 	ldreq	r0, [r7], -lr, lsr #10
     5d8:	9e01a703 	cdpls	7, 0, cr10, cr1, cr3, {0}
     5dc:	052f1d05 	streq	r1, [pc, #-3333]!	; fffff8df <__initial_sp+0xdffdba37>
     5e0:	0306bb20 	movweq	fp, #27424	; 0x6b20
     5e4:	05ba7ed7 	ldreq	r7, [sl, #3799]!	; 0xed7
     5e8:	ab030609 	blge	c1e14 <__Vectors_Size+0xc1c1c>
     5ec:	05059e01 	streq	r9, [r5, #-3585]	; 0xfffff1ff
     5f0:	2f01052f 	svccs	0x0001052f
     5f4:	01000202 	tsteq	r0, r2, lsl #4
     5f8:	00040401 	andeq	r0, r4, r1, lsl #8
     5fc:	2aa80205 	bcs	fea00e18 <__initial_sp+0xde9dcf70>
     600:	f9030800 			; <UNDEFINED> instruction: 0xf9030800
     604:	1105010f 	tstne	r5, pc, lsl #2
     608:	0705830a 	streq	r8, [r5, -sl, lsl #6]
     60c:	3c054a06 			; <UNDEFINED> instruction: 0x3c054a06
     610:	45056806 	strmi	r6, [r5, #-2054]	; 0xfffff7fa
     614:	19052e06 	stmdbne	r5, {r1, r2, r9, sl, fp, sp}
     618:	ba2f052e 	blt	bc1ad8 <__Vectors_Size+0xbc18e0>
     61c:	2f060305 	svccs	0x00060305
     620:	05313c05 	ldreq	r3, [r1, #-3077]!	; 0xfffff3fb
     624:	052e0645 	streq	r0, [lr, #-1605]!	; 0xfffff9bb
     628:	21052e11 	tstcs	r5, r1, lsl lr
     62c:	ba2f054a 	blt	bc1b5c <__Vectors_Size+0xbc1964>
     630:	4c060105 	stfmis	f0, [r6], {5}
     634:	01000402 	tsteq	r0, r2, lsl #8
     638:	00040401 	andeq	r0, r4, r1, lsl #8
     63c:	2a780205 	bcs	1e00e58 <__Vectors_Size+0x1e00c60>
     640:	f7030800 			; <UNDEFINED> instruction: 0xf7030800
     644:	1105010e 	tstne	r5, lr, lsl #2
     648:	0705670a 	streq	r6, [r5, -sl, lsl #14]
     64c:	05054a06 	streq	r4, [r5, #-2566]	; 0xfffff5fa
     650:	4b056806 	blmi	15a670 <__Vectors_Size+0x15a478>
     654:	06510513 			; <UNDEFINED> instruction: 0x06510513
     658:	663c054a 	ldrtvs	r0, [ip], -sl, asr #10
     65c:	052e0505 	streq	r0, [lr, #-1285]!	; 0xfffffafb
     660:	05059e2b 	streq	r9, [r5, #-3627]	; 0xfffff1d5
     664:	03054b06 	movweq	r4, #23302	; 0x5b06
     668:	2f010513 	svccs	0x00010513
     66c:	01000402 	tsteq	r0, r2, lsl #8
     670:	000a5001 	andeq	r5, sl, r1
     674:	d7000400 	strle	r0, [r0, -r0, lsl #8]
     678:	01000000 	mrseq	r0, (UNDEF: 0)
     67c:	0efb0101 	cdpeq	1, 15, cr0, cr11, cr1, {0}
     680:	0101000d 	tsteq	r1, sp
     684:	00000101 	andeq	r0, r0, r1, lsl #2
     688:	00000100 	andeq	r0, r0, r0, lsl #2
     68c:	5c3a4401 	cfldrspl	mvf4, [sl], #-4
     690:	54464f53 	strbpl	r4, [r6], #-3923	; 0xfffff0ad
     694:	6956755c 	ldmdbvs	r6, {r2, r3, r4, r6, r8, sl, ip, sp, lr}^
     698:	6e6f6973 			; <UNDEFINED> instruction: 0x6e6f6973
     69c:	69654b5c 	stmdbvs	r5!, {r2, r3, r4, r6, r8, r9, fp, lr}^
     6a0:	35565f6c 	ldrbcc	r5, [r6, #-3948]	; 0xfffff094
     6a4:	4d52415c 	ldfmie	f4, [r2, #-368]	; 0xfffffe90
     6a8:	4d52415c 	ldfmie	f4, [r2, #-368]	; 0xfffffe90
     6ac:	4e414c43 	cdpmi	12, 4, cr4, cr1, cr3, {2}
     6b0:	69425c47 	stmdbvs	r2, {r0, r1, r2, r6, sl, fp, ip, lr}^
     6b4:	2e2e5c6e 	cdpcs	12, 2, cr5, cr14, cr14, {3}
     6b8:	636e695c 	cmnvs	lr, #92, 18	; 0x170000
     6bc:	6564756c 	strbvs	r7, [r4, #-1388]!	; 0xfffffa94
     6c0:	2f3a4400 	svccs	0x003a4400
     6c4:	54464f53 	strbpl	r4, [r6], #-3923	; 0xfffff0ad
     6c8:	6956752f 	ldmdbvs	r6, {r0, r1, r2, r3, r5, r8, sl, ip, sp, lr}^
     6cc:	6e6f6973 			; <UNDEFINED> instruction: 0x6e6f6973
     6d0:	6361502f 	cmnvs	r1, #47	; 0x2f
     6d4:	4b2f736b 	blmi	bdd488 <__Vectors_Size+0xbdd290>
     6d8:	2f6c6965 	svccs	0x006c6965
     6dc:	334d5453 	movtcc	r5, #54355	; 0xd453
     6e0:	78374632 	ldmdavc	r7!, {r1, r4, r5, r9, sl, lr}
     6e4:	46445f78 			; <UNDEFINED> instruction: 0x46445f78
     6e8:	2e322f50 	mrccs	15, 1, r2, cr2, cr0, {2}
     6ec:	322e3531 	eorcc	r3, lr, #205520896	; 0xc400000
     6f0:	6972442f 	ldmdbvs	r2!, {r0, r1, r2, r3, r5, sl, lr}^
     6f4:	73726576 	cmnvc	r2, #494927872	; 0x1d800000
     6f8:	534d432f 	movtpl	r4, #54063	; 0xd32f
     6fc:	442f5349 	strtmi	r5, [pc], #-841	; 704 <__Vectors_Size+0x50c>
     700:	63697665 	cmnvs	r9, #105906176	; 0x6500000
     704:	54532f65 	ldrbpl	r2, [r3], #-3941	; 0xfffff09b
     708:	4d54532f 	ldclmi	3, cr5, [r4, #-188]	; 0xffffff44
     70c:	37463233 	smlaldxcc	r3, r6, r3, r2
     710:	492f7878 	stmdbmi	pc!, {r3, r4, r5, r6, fp, ip, sp, lr}	; <UNPREDICTABLE>
     714:	756c636e 	strbvc	r6, [ip, #-878]!	; 0xfffffc92
     718:	00006564 	andeq	r6, r0, r4, ror #10
     71c:	69647473 	stmdbvs	r4!, {r0, r1, r4, r5, r6, sl, ip, sp, lr}^
     720:	682e746e 	stmdavs	lr!, {r1, r2, r3, r5, r6, sl, ip, sp, lr}
     724:	00000100 	andeq	r0, r0, r0, lsl #2
     728:	31316873 	teqcc	r1, r3, ror r8
     72c:	632e3630 			; <UNDEFINED> instruction: 0x632e3630
     730:	00000000 	andeq	r0, r0, r0
     734:	336d7473 	cmncc	sp, #1929379840	; 0x73000000
     738:	36376632 			; <UNDEFINED> instruction: 0x36376632
     73c:	2e787837 	mrccs	8, 3, r7, cr8, cr7, {1}
     740:	00020068 	andeq	r0, r2, r8, rrx
     744:	64747300 	ldrbtvs	r7, [r4], #-768	; 0xfffffd00
     748:	2e677261 	cdpcs	2, 6, cr7, cr7, cr1, {3}
     74c:	00010068 	andeq	r0, r1, r8, rrx
     750:	02040000 	andeq	r0, r4, #0
     754:	30020500 	andcc	r0, r2, r0, lsl #10
     758:	03080025 	movweq	r0, #32805	; 0x8025
     75c:	050101bb 	streq	r0, [r1, #-443]	; 0xfffffe45
     760:	05670a0a 	strbeq	r0, [r7, #-2570]!	; 0xfffff5f6
     764:	052e0606 	streq	r0, [lr, #-1542]!	; 0xfffff9fa
     768:	02052e0f 	andeq	r2, r5, #15, 28	; 0xf0
     76c:	0619052e 	ldreq	r0, [r9], -lr, lsr #10
     770:	06180568 	ldreq	r0, [r8], -r8, ror #10
     774:	2e03052e 	cfsh32cs	mvfx0, mvfx3, #30
     778:	05678306 	strbeq	r8, [r7, #-774]!	; 0xfffffcfa
     77c:	0705670b 	streq	r6, [r5, -fp, lsl #14]
     780:	10052e06 	andne	r2, r5, r6, lsl #28
     784:	2e03052e 	cfsh32cs	mvfx0, mvfx3, #30
     788:	68062205 	stmdavs	r6, {r0, r2, r9, sp}
     78c:	2e062a05 	vmlacs.f32	s4, s12, s10
     790:	052e2905 	streq	r2, [lr, #-2309]!	; 0xfffff6fb
     794:	04054a14 	streq	r4, [r5], #-2580	; 0xfffff5ec
     798:	0603059e 			; <UNDEFINED> instruction: 0x0603059e
     79c:	2b1a054b 	blcs	681cd0 <__Vectors_Size+0x681ad8>
     7a0:	66060305 	strvs	r0, [r6], -r5, lsl #6
     7a4:	32060205 	andcc	r0, r6, #1342177280	; 0x50000000
     7a8:	77032405 	strvc	r2, [r3, -r5, lsl #8]
     7ac:	0602052e 	streq	r0, [r2], -lr, lsr #10
     7b0:	06010566 	streq	r0, [r1], -r6, ror #10
     7b4:	022e0a03 	eoreq	r0, lr, #12288	; 0x3000
     7b8:	01010004 	tsteq	r1, r4
     7bc:	05000204 	streq	r0, [r0, #-516]	; 0xfffffdfc
     7c0:	00259802 	eoreq	r9, r5, r2, lsl #16
     7c4:	01900308 	orrseq	r0, r0, r8, lsl #6
     7c8:	0a020501 	beq	81bd4 <__Vectors_Size+0x819dc>
     7cc:	059f2108 	ldreq	r2, [pc, #264]	; 8dc <__Vectors_Size+0x6e4>
     7d0:	02054b16 	andeq	r4, r5, #22528	; 0x5800
     7d4:	83064a06 	movwhi	r4, #27142	; 0x6a06
     7d8:	022f0105 	eoreq	r0, pc, #1073741825	; 0x40000001
     7dc:	01010004 	tsteq	r1, r4
     7e0:	05000204 	streq	r0, [r0, #-516]	; 0xfffffdfc
     7e4:	0025d002 	eoreq	sp, r5, r2
     7e8:	01ac0308 			; <UNDEFINED> instruction: 0x01ac0308
     7ec:	0a020501 	beq	81bf8 <__Vectors_Size+0x81a00>
     7f0:	052108f3 	streq	r0, [r1, #-2291]!	; 0xfffff70d
     7f4:	02052f16 	andeq	r2, r5, #22, 30	; 0x58
     7f8:	83064a06 	movwhi	r4, #27142	; 0x6a06
     7fc:	022f0105 	eoreq	r0, pc, #1073741825	; 0x40000001
     800:	01010004 	tsteq	r1, r4
     804:	05000204 	streq	r0, [r0, #-516]	; 0xfffffdfc
     808:	00262802 	eoreq	r2, r6, r2, lsl #16
     80c:	01e00308 	mvneq	r0, r8, lsl #6
     810:	0a060501 	beq	181c1c <__Vectors_Size+0x181a24>
     814:	061105d7 			; <UNDEFINED> instruction: 0x061105d7
     818:	6614054a 	ldrvs	r0, [r4], -sl, asr #10
     81c:	054a2005 	strbeq	r2, [sl, #-5]
     820:	29056623 	stmdbcs	r5, {r0, r1, r5, r9, sl, sp, lr}
     824:	662c054a 	strtvs	r0, [ip], -sl, asr #10
     828:	054a0605 	strbeq	r0, [sl, #-1541]	; 0xfffff9fb
     82c:	14058233 	strne	r8, [r5], #-563	; 0xfffffdcd
     830:	16053006 	strne	r3, [r5], -r6
     834:	1b054a06 	blne	153054 <__Vectors_Size+0x152e5c>
     838:	4a230582 	bmi	8c1e48 <__Vectors_Size+0x8c1c50>
     83c:	054a2105 	strbeq	r2, [sl, #-261]	; 0xfffffefb
     840:	16052e0b 	strne	r2, [r5], -fp, lsl #28
     844:	18054b06 	stmdane	r5, {r1, r2, r8, r9, fp, lr}
     848:	0a054a06 	beq	153068 <__Vectors_Size+0x152e70>
     84c:	0606059e 			; <UNDEFINED> instruction: 0x0606059e
     850:	054a064c 	strbeq	r0, [sl, #-1612]	; 0xfffff9b4
     854:	28054a2b 	stmdacs	r5, {r0, r1, r3, r5, r9, fp, lr}
     858:	4a1b0566 	bmi	6c1df8 <__Vectors_Size+0x6c1c00>
     85c:	054a0d05 	strbeq	r0, [sl, #-3333]	; 0xfffff2fb
     860:	0d058222 	sfmeq	f0, 1, [r5, #-136]	; 0xffffff78
     864:	06260566 	strteq	r0, [r6], -r6, ror #10
     868:	0623052f 	strteq	r0, [r3], -pc, lsr #10
     86c:	4a150566 	bmi	541e0c <__Vectors_Size+0x541c14>
     870:	054a0705 	strbeq	r0, [sl, #-1797]	; 0xfffff8fb
     874:	0105821c 	tsteq	r5, ip, lsl r2
     878:	04028306 	streq	r8, [r2], #-774	; 0xfffffcfa
     87c:	04010100 	streq	r0, [r1], #-256	; 0xffffff00
     880:	02050002 	andeq	r0, r5, #2
     884:	08002340 	stmdaeq	r0, {r6, r8, r9, sp}
     888:	01029303 	tsteq	r2, r3, lsl #6
     88c:	080a1805 	stmdaeq	sl, {r0, r2, fp, ip}
     890:	060d0559 			; <UNDEFINED> instruction: 0x060d0559
     894:	0616054a 	ldreq	r0, [r6], -sl, asr #10
     898:	060d054b 	streq	r0, [sp], -fp, asr #10
     89c:	0616054a 	ldreq	r0, [r6], -sl, asr #10
     8a0:	060d054b 	streq	r0, [sp], -fp, asr #10
     8a4:	061f054a 	ldreq	r0, [pc], -sl, asr #10
     8a8:	060d054b 	streq	r0, [sp], -fp, asr #10
     8ac:	0605054a 	streq	r0, [r5], -sl, asr #10
     8b0:	30200569 	eorcc	r0, r0, r9, ror #10
     8b4:	2e060505 	cfsh32cs	mvfx0, mvfx6, #5
     8b8:	bd061105 	stflts	f1, [r6, #-20]	; 0xffffffec
     8bc:	054c0505 	strbeq	r0, [ip, #-1285]	; 0xfffffafb
     8c0:	052e060d 	streq	r0, [lr, #-1549]!	; 0xfffff9f3
     8c4:	11052e0c 	tstne	r5, ip, lsl #28
     8c8:	6614054a 	ldrvs	r0, [r4], -sl, asr #10
     8cc:	05661e05 	strbeq	r1, [r6, #-3589]!	; 0xfffff1fb
     8d0:	23058221 	movwcs	r8, #21025	; 0x5221
     8d4:	03000566 	movweq	r0, #1382	; 0x566
     8d8:	059e7dde 	ldreq	r7, [lr, #3550]	; 0xdde
     8dc:	02a20305 	adceq	r0, r2, #335544320	; 0x14000000
     8e0:	0620052e 	strteq	r0, [r0], -lr, lsr #10
     8e4:	061f0584 	ldreq	r0, [pc], -r4, lsl #11
     8e8:	2e11052e 	cfmul64cs	mvdx0, mvdx1, mvdx14
     8ec:	4b060d05 	blmi	183d08 <__Vectors_Size+0x183b10>
     8f0:	4a063205 	bmi	18d10c <__Vectors_Size+0x18cf14>
     8f4:	05663505 	strbeq	r3, [r6, #-1285]!	; 0xfffffafb
     8f8:	5b054a0d 	blpl	153134 <__Vectors_Size+0x152f3c>
     8fc:	06200566 	strteq	r0, [r0], -r6, ror #10
     900:	062c0530 			; <UNDEFINED> instruction: 0x062c0530
     904:	2e11054a 	cfmac32cs	mvfx0, mvfx1, mvfx10
     908:	4c062905 			; <UNDEFINED> instruction: 0x4c062905
     90c:	4a063805 	bmi	18e928 <__Vectors_Size+0x18e730>
     910:	05662705 	strbeq	r2, [r6, #-1797]!	; 0xfffff8fb
     914:	18054a12 	stmdane	r5, {r1, r4, r9, fp, lr}
     918:	24054b06 	strcs	r4, [r5], #-2822	; 0xfffff4fa
     91c:	18052e06 	stmdane	r5, {r1, r2, r9, sl, fp, sp}
     920:	2e0b054a 	cfsh32cs	mvfx0, mvfx11, #42
     924:	4c061e05 	stcmi	14, cr1, [r6], {5}
     928:	4a062505 	bmi	189d44 <__Vectors_Size+0x189b4c>
     92c:	054a2805 	strbeq	r2, [sl, #-2053]	; 0xfffff7fb
     930:	38054a2b 	stmdacc	r5, {r0, r1, r3, r5, r9, fp, lr}
     934:	4a42052e 	bmi	1081df4 <__Vectors_Size+0x1081bfc>
     938:	054a5005 	strbeq	r5, [sl, #-5]
     93c:	0e054a09 	vmlaeq.f32	s8, s10, s18
     940:	05220806 	streq	r0, [r2, #-2054]!	; 0xfffff7fa
     944:	054a061c 	strbeq	r0, [sl, #-1564]	; 0xfffff9e4
     948:	1905ba23 	stmdbne	r5, {r0, r1, r5, r9, fp, ip, sp, pc}
     94c:	4a0b054a 	bmi	2c1e7c <__Vectors_Size+0x2c1c84>
     950:	9f060c05 	svcls	0x00060c05
     954:	73030505 	movwvc	r0, #13573	; 0x3505
     958:	03010566 	movweq	r0, #5478	; 0x1566
     95c:	04022e0f 	streq	r2, [r2], #-3599	; 0xfffff1f1
     960:	04010100 	streq	r0, [r1], #-256	; 0xffffff00
     964:	02050002 	andeq	r0, r5, #2
     968:	08002100 	stmdaeq	r0, {r8, sp}
     96c:	0101f203 	tsteq	r1, r3, lsl #4	; <UNPREDICTABLE>
     970:	020a2205 	andeq	r2, sl, #1342177280	; 0x50000000
     974:	3105132a 	tstcc	r5, sl, lsr #6
     978:	20054a06 	andcs	r4, r5, r6, lsl #20
     97c:	4a0b0566 	bmi	2c1f1c <__Vectors_Size+0x2c1d24>
     980:	4b061705 	blmi	18659c <__Vectors_Size+0x1863a4>
     984:	2e062305 	cdpcs	3, 0, cr2, cr6, cr5, {0}
     988:	054a1705 	strbeq	r1, [sl, #-1797]	; 0xfffff8fb
     98c:	0b052e0a 	bleq	14c1bc <__Vectors_Size+0x14bfc4>
     990:	07056806 	streq	r6, [r5, -r6, lsl #16]
     994:	17052e06 	strne	r2, [r5, -r6, lsl #28]
     998:	2e20052e 	cfsh64cs	mvdx0, mvdx0, #30
     99c:	034a0205 	movteq	r0, #41477	; 0xa205
     9a0:	05667e89 	strbeq	r7, [r6, #-3721]!	; 0xfffff177
     9a4:	f903060c 			; <UNDEFINED> instruction: 0xf903060c
     9a8:	08052e01 	stmdaeq	r5, {r0, r9, sl, fp, sp}
     9ac:	1c052e06 	stcne	14, cr2, [r5], {6}
     9b0:	2e29052e 	cfsh64cs	mvdx0, mvdx9, #30
     9b4:	054a0305 	strbeq	r0, [sl, #-773]	; 0xfffffcfb
     9b8:	05680620 	strbeq	r0, [r8, #-1568]!	; 0xfffff9e0
     9bc:	054a062f 	strbeq	r0, [sl, #-1583]	; 0xfffff9d1
     9c0:	1e054a3a 			; <UNDEFINED> instruction: 0x1e054a3a
     9c4:	4a47052e 	bmi	11c1e84 <__Vectors_Size+0x11c1c8c>
     9c8:	054a5905 	strbeq	r5, [sl, #-2309]	; 0xfffff6fb
     9cc:	45052e38 	strmi	r2, [r5, #-3640]	; 0xfffff1c8
     9d0:	2e0d054a 	cfsh32cs	mvfx0, mvfx13, #42
     9d4:	4b061305 	blmi	1855f0 <__Vectors_Size+0x1853f8>
     9d8:	2e061f05 	cdpcs	15, 0, cr1, cr6, cr5, {0}
     9dc:	054a1305 	strbeq	r1, [sl, #-773]	; 0xfffffcfb
     9e0:	0d052e0c 	stceq	14, cr2, [r5, #-48]	; 0xffffffd0
     9e4:	09056706 	stmdbeq	r5, {r1, r2, r8, r9, sl, sp, lr}
     9e8:	16052e06 	strne	r2, [r5], -r6, lsl #28
     9ec:	2e04052e 	cfsh32cs	mvfx0, mvfx4, #30
     9f0:	68061605 	stmdavs	r6, {r0, r2, r9, sl, ip}
     9f4:	4a061e05 	bmi	188210 <__Vectors_Size+0x188018>
     9f8:	052e1b05 	streq	r1, [lr, #-2821]!	; 0xfffff4fb
     9fc:	0d052e23 	stceq	14, cr2, [r5, #-140]	; 0xffffff74
     a00:	0611054a 	ldreq	r0, [r1], -sl, asr #10
     a04:	0615054b 	ldreq	r0, [r5], -fp, asr #10
     a08:	2e13054a 	cfmac32cs	mvfx0, mvfx3, mvfx10
     a0c:	052e0d05 	streq	r0, [lr, #-3333]!	; 0xfffff2fb
     a10:	054b0611 	strbeq	r0, [fp, #-1553]	; 0xfffff9ef
     a14:	054a0616 	strbeq	r0, [sl, #-1558]	; 0xfffff9ea
     a18:	1a052e20 	bne	14c2a0 <__Vectors_Size+0x14c0a8>
     a1c:	4a13052e 	bmi	4c1edc <__Vectors_Size+0x4c1ce4>
     a20:	052e0d05 	streq	r0, [lr, #-3333]!	; 0xfffff2fb
     a24:	064b0609 	strbeq	r0, [fp], -r9, lsl #12
     a28:	4a20054a 	bmi	801f58 <__Vectors_Size+0x801d60>
     a2c:	054a2705 	strbeq	r2, [sl, #-1797]	; 0xfffff8fb
     a30:	10054a2a 	andne	r4, r5, sl, lsr #20
     a34:	0604054a 	streq	r0, [r4], -sl, asr #10
     a38:	03220567 			; <UNDEFINED> instruction: 0x03220567
     a3c:	04052e7a 	streq	r2, [r5], #-3706	; 0xfffff186
     a40:	03056606 	movweq	r6, #22022	; 0x5606
     a44:	44053506 	strmi	r3, [r5], #-1286	; 0xfffffafa
     a48:	052e7503 	streq	r7, [lr, #-1283]!	; 0xfffffafd
     a4c:	05660603 	strbeq	r0, [r6, #-1539]!	; 0xfffff9fd
     a50:	0c030602 	stceq	6, cr0, [r3], {2}
     a54:	0332052e 	teqeq	r2, #192937984	; 0xb800000
     a58:	02052e72 	andeq	r2, r5, #1824	; 0x720
     a5c:	01056606 	tsteq	r5, r6, lsl #12
     a60:	2e0f0306 	cdpcs	3, 0, cr0, cr15, cr6, {0}
     a64:	01000402 	tsteq	r0, r2, lsl #8
     a68:	00020401 	andeq	r0, r2, r1, lsl #8
     a6c:	22100205 	andscs	r0, r0, #1342177280	; 0x50000000
     a70:	ba030800 	blt	c2a78 <__Vectors_Size+0xc2880>
     a74:	0c050102 	stfeqs	f0, [r5], {2}
     a78:	05ad080a 	streq	r0, [sp, #2058]!	; 0x80a
     a7c:	054a0612 	strbeq	r0, [sl, #-1554]	; 0xfffff9ee
     a80:	18054a0b 	stmdane	r5, {r0, r1, r3, r9, fp, lr}
     a84:	4a1d0566 	bmi	742024 <__Vectors_Size+0x741e2c>
     a88:	054a1b05 	strbeq	r1, [sl, #-2821]	; 0xfffff4fb
     a8c:	22052e0b 	andcs	r2, r5, #11, 28	; 0xb0
     a90:	4a27054a 	bmi	9c1fc0 <__Vectors_Size+0x9c1dc8>
     a94:	054a2505 	strbeq	r2, [sl, #-1285]	; 0xfffffafb
     a98:	06052e0b 	streq	r2, [r5], -fp, lsl #28
     a9c:	060c0566 	streq	r0, [ip], -r6, ror #10
     aa0:	0612052f 	ldreq	r0, [r2], -pc, lsr #10
     aa4:	4a0b054a 	bmi	2c1fd4 <__Vectors_Size+0x2c1ddc>
     aa8:	05661805 	strbeq	r1, [r6, #-2053]!	; 0xfffff7fb
     aac:	1b054a1d 	blne	153328 <__Vectors_Size+0x153130>
     ab0:	2e0b054a 	cfsh32cs	mvfx0, mvfx11, #42
     ab4:	054a2205 	strbeq	r2, [sl, #-517]	; 0xfffffdfb
     ab8:	25054a27 	strcs	r4, [r5, #-2599]	; 0xfffff5d9
     abc:	2e0b054a 	cfsh32cs	mvfx0, mvfx11, #42
     ac0:	05660605 	strbeq	r0, [r6, #-1541]!	; 0xfffff9fb
     ac4:	052f060c 	streq	r0, [pc, #-1548]!	; 4c0 <__Vectors_Size+0x2c8>
     ac8:	054a0611 	strbeq	r0, [sl, #-1553]	; 0xfffff9ef
     acc:	0605820b 	streq	r8, [r5], -fp, lsl #4
     ad0:	060c0582 	streq	r0, [ip], -r2, lsl #11
     ad4:	0611052f 	ldreq	r0, [r1], -pc, lsr #10
     ad8:	4a0b054a 	bmi	2c2008 <__Vectors_Size+0x2c1e10>
     adc:	05660605 	strbeq	r0, [r6, #-1541]!	; 0xfffff9fb
     ae0:	052f060c 	streq	r0, [pc, #-1548]!	; 4dc <__Vectors_Size+0x2e4>
     ae4:	052e0611 	streq	r0, [lr, #-1553]!	; 0xfffff9ef
     ae8:	06052e0f 	streq	r2, [r5], -pc, lsl #28
     aec:	0602052e 	streq	r0, [r2], -lr, lsr #10
     af0:	06090530 			; <UNDEFINED> instruction: 0x06090530
     af4:	4a0f052e 	bmi	3c1fb4 <__Vectors_Size+0x3c1dbc>
     af8:	05661205 	strbeq	r1, [r6, #-517]!	; 0xfffffdfb
     afc:	1b058215 	blne	161358 <__Vectors_Size+0x161160>
     b00:	4a18054a 	bmi	602030 <__Vectors_Size+0x601e38>
     b04:	03661205 	cmneq	r6, #1342177280	; 0x50000000
     b08:	054a7dbe 	strbeq	r7, [sl, #-3518]	; 0xfffff242
     b0c:	02c20302 	sbceq	r0, r2, #134217728	; 0x8000000
     b10:	0613052e 	ldreq	r0, [r3], -lr, lsr #10
     b14:	061a0568 	ldreq	r0, [sl], -r8, ror #10
     b18:	4a1e054a 	bmi	782048 <__Vectors_Size+0x781e50>
     b1c:	054a0305 	strbeq	r0, [sl, #-773]	; 0xfffffcfb
     b20:	054c0610 	strbeq	r0, [ip, #-1552]	; 0xfffff9f0
     b24:	052e060e 	streq	r0, [lr, #-1550]!	; 0xfffff9f2
     b28:	30062e07 	andcc	r2, r6, r7, lsl #28
     b2c:	2e060d05 	cdpcs	13, 0, cr0, cr6, cr5, {0}
     b30:	052e0705 	streq	r0, [lr, #-1797]!	; 0xfffff8fb
     b34:	0568060b 	strbeq	r0, [r8, #-1547]!	; 0xfffff9f5
     b38:	052e0608 	streq	r0, [lr, #-1544]!	; 0xfffff9f8
     b3c:	0567060a 	strbeq	r0, [r7, #-1546]!	; 0xfffff9f6
     b40:	052e0607 	streq	r0, [lr, #-1543]!	; 0xfffff9f9
     b44:	059f0603 	ldreq	r0, [pc, #1539]	; 114f <__Vectors_Size+0xf57>
     b48:	0d053007 	stceq	0, cr3, [r5, #-28]	; 0xffffffe4
     b4c:	07052e06 	streq	r2, [r5, -r6, lsl #28]
     b50:	060b052e 	streq	r0, [fp], -lr, lsr #10
     b54:	06080568 	streq	r0, [r8], -r8, ror #10
     b58:	060a052e 	streq	r0, [sl], -lr, lsr #10
     b5c:	06070567 	streq	r0, [r7], -r7, ror #10
     b60:	0603052e 	streq	r0, [r3], -lr, lsr #10
     b64:	0302059f 	movweq	r0, #9631	; 0x259f
     b68:	01052e70 	tsteq	r5, r0, ror lr
     b6c:	022e1203 	eoreq	r1, lr, #805306368	; 0x30000000
     b70:	01010004 	tsteq	r1, r4
     b74:	05000204 	streq	r0, [r0, #-516]	; 0xfffffdfc
     b78:	00000002 	andeq	r0, r0, r2
     b7c:	02dd0300 	sbcseq	r0, sp, #0, 6
     b80:	0a060501 	beq	181f8c <__Vectors_Size+0x181d94>
     b84:	1105ae08 	tstne	r5, r8, lsl #28
     b88:	14054a06 	strne	r4, [r5], #-2566	; 0xfffff5fa
     b8c:	4a060566 	bmi	18212c <__Vectors_Size+0x181f34>
     b90:	05662105 	strbeq	r2, [r6, #-261]!	; 0xfffffefb
     b94:	05310607 	ldreq	r0, [r1, #-1543]!	; 0xfffff9f9
     b98:	054a060b 	strbeq	r0, [sl, #-1547]	; 0xfffff9f5
     b9c:	06054a09 	streq	r4, [r5], -r9, lsl #20
     ba0:	6624052e 	strtvs	r0, [r4], -lr, lsr #10
     ba4:	054a2205 	strbeq	r2, [sl, #-517]	; 0xfffffdfb
     ba8:	18054a1a 	stmdane	r5, {r1, r3, r4, r9, fp, lr}
     bac:	0607054a 	streq	r0, [r7], -sl, asr #10
     bb0:	060b052f 	streq	r0, [fp], -pc, lsr #10
     bb4:	4a09054a 	bmi	2420e4 <__Vectors_Size+0x241eec>
     bb8:	052e0605 	streq	r0, [lr, #-1541]!	; 0xfffff9fb
     bbc:	24056626 	strcs	r6, [r5], #-1574	; 0xfffff9da
     bc0:	4a1b054a 	bmi	6c20f0 <__Vectors_Size+0x6c1ef8>
     bc4:	054a1905 	strbeq	r1, [sl, #-2309]	; 0xfffff6fb
     bc8:	05310612 	ldreq	r0, [r1, #-1554]!	; 0xfffff9ee
     bcc:	054a061c 	strbeq	r0, [sl, #-1564]	; 0xfffff9e4
     bd0:	23054a1f 	movwcs	r4, #23071	; 0x5a1f
     bd4:	4a21054a 	bmi	842104 <__Vectors_Size+0x841f0c>
     bd8:	052e0205 	streq	r0, [lr, #-517]!	; 0xfffffdfb
     bdc:	05d70612 	ldrbeq	r0, [r7, #1554]	; 0x612
     be0:	054a061c 	strbeq	r0, [sl, #-1564]	; 0xfffff9e4
     be4:	1e054a20 	vmlane.f32	s8, s10, s1
     be8:	2e23054a 	cfsh64cs	mvdx0, mvdx3, #42
     bec:	054a2705 	strbeq	r2, [sl, #-1797]	; 0xfffff8fb
     bf0:	02054a25 	andeq	r4, r5, #151552	; 0x25000
     bf4:	0612052e 	ldreq	r0, [r2], -lr, lsr #10
     bf8:	061905f3 			; <UNDEFINED> instruction: 0x061905f3
     bfc:	4a22054a 	bmi	88212c <__Vectors_Size+0x881f34>
     c00:	054a2605 	strbeq	r2, [sl, #-1541]	; 0xfffff9fb
     c04:	02054a24 	andeq	r4, r5, #36, 20	; 0x24000
     c08:	0612052e 	ldreq	r0, [r2], -lr, lsr #10
     c0c:	061905f3 			; <UNDEFINED> instruction: 0x061905f3
     c10:	4a1d054a 	bmi	742140 <__Vectors_Size+0x741f48>
     c14:	054a1b05 	strbeq	r1, [sl, #-2821]	; 0xfffff4fb
     c18:	2e052e2a 	cdpcs	14, 0, cr2, cr5, cr10, {1}
     c1c:	4a2c054a 	bmi	b0214c <__Vectors_Size+0xb01f54>
     c20:	052e0205 	streq	r0, [lr, #-517]!	; 0xfffffdfb
     c24:	21080601 	tstcs	r8, r1, lsl #12
     c28:	01000602 	tsteq	r0, r2, lsl #12
     c2c:	00020401 	andeq	r0, r2, r1, lsl #8
     c30:	00000205 	andeq	r0, r0, r5, lsl #4
     c34:	f4030000 	vst4.8	{d0-d3}, [r3], r0
     c38:	06050102 	streq	r0, [r5], -r2, lsl #2
     c3c:	05b0080a 	ldreq	r0, [r0, #2058]!	; 0x80a
     c40:	054a0611 	strbeq	r0, [sl, #-1553]	; 0xfffff9ef
     c44:	06056614 			; <UNDEFINED> instruction: 0x06056614
     c48:	6621054a 	strtvs	r0, [r1], -sl, asr #10
     c4c:	31060705 	tstcc	r6, r5, lsl #14
     c50:	4a060b05 	bmi	18386c <__Vectors_Size+0x183674>
     c54:	054a0905 	strbeq	r0, [sl, #-2309]	; 0xfffff6fb
     c58:	24052e06 	strcs	r2, [r5], #-3590	; 0xfffff1fa
     c5c:	4a220566 	bmi	8821fc <__Vectors_Size+0x882004>
     c60:	054a1a05 	strbeq	r1, [sl, #-2565]	; 0xfffff5fb
     c64:	07054a18 	smladeq	r5, r8, sl, r4
     c68:	0b052f06 	bleq	14c888 <__Vectors_Size+0x14c690>
     c6c:	09054a06 	stmdbeq	r5, {r1, r2, r9, fp, lr}
     c70:	2e06054a 	cfsh32cs	mvfx0, mvfx6, #42
     c74:	05662605 	strbeq	r2, [r6, #-1541]!	; 0xfffff9fb
     c78:	1b054a24 	blne	153510 <__Vectors_Size+0x153318>
     c7c:	4a19054a 	bmi	6421ac <__Vectors_Size+0x641fb4>
     c80:	2e7d8303 	cdpcs	3, 7, cr8, cr13, cr3, {0}
     c84:	03060905 	movweq	r0, #26885	; 0x6905
     c88:	052e0380 	streq	r0, [lr, #-896]!	; 0xfffffc80
     c8c:	054a0607 	strbeq	r0, [sl, #-1543]	; 0xfffff9f9
     c90:	13052e0e 	movwne	r2, #24078	; 0x5e0e
     c94:	4a02054a 	bmi	821c4 <__Vectors_Size+0x81fcc>
     c98:	67061305 	strvs	r1, [r6, -r5, lsl #6]
     c9c:	4a061d05 	bmi	1880b8 <__Vectors_Size+0x187ec0>
     ca0:	054a2105 	strbeq	r2, [sl, #-261]	; 0xfffffefb
     ca4:	24054a1f 	strcs	r4, [r5], #-2591	; 0xfffff5e1
     ca8:	4a28052e 	bmi	a02168 <__Vectors_Size+0xa01f70>
     cac:	054a2605 	strbeq	r2, [sl, #-1541]	; 0xfffff9fb
     cb0:	17052e03 	strne	r2, [r5, -r3, lsl #28]
     cb4:	051f0806 	ldreq	r0, [pc, #-2054]	; 4b6 <__Vectors_Size+0x2be>
     cb8:	059e0602 	ldreq	r0, [lr, #1538]	; 0x602
     cbc:	02300601 	eorseq	r0, r0, #1048576	; 0x100000
     cc0:	01010004 	tsteq	r1, r4
     cc4:	05000204 	streq	r0, [r0, #-516]	; 0xfffffdfc
     cc8:	00000002 	andeq	r0, r0, r2
     ccc:	038b0300 	orreq	r0, fp, #0, 6
     cd0:	0a0a0501 	beq	2820dc <__Vectors_Size+0x281ee4>
     cd4:	06053d08 	streq	r3, [r5], -r8, lsl #26
     cd8:	4b064a06 	blmi	1934f8 <__Vectors_Size+0x193300>
     cdc:	3012052f 	andscc	r0, r2, pc, lsr #10
     ce0:	4a061905 	bmi	1870fc <__Vectors_Size+0x186f04>
     ce4:	054a1d05 	strbeq	r1, [sl, #-3333]	; 0xfffff2fb
     ce8:	20054a22 	andcs	r4, r5, r2, lsr #20
     cec:	2e02054a 	cfsh32cs	mvfx0, mvfx2, #42
     cf0:	4b061205 	blmi	18550c <__Vectors_Size+0x185314>
     cf4:	4a061905 	bmi	187110 <__Vectors_Size+0x186f18>
     cf8:	054a1d05 	strbeq	r1, [sl, #-3333]	; 0xfffff2fb
     cfc:	20054a22 	andcs	r4, r5, r2, lsr #20
     d00:	2e02054a 	cfsh32cs	mvfx0, mvfx2, #42
     d04:	4b061205 	blmi	185520 <__Vectors_Size+0x185328>
     d08:	4a061905 	bmi	187124 <__Vectors_Size+0x186f2c>
     d0c:	054a1e05 	strbeq	r1, [sl, #-3589]	; 0xfffff1fb
     d10:	26054a1c 			; <UNDEFINED> instruction: 0x26054a1c
     d14:	4a02052e 	bmi	821d4 <__Vectors_Size+0x81fdc>
     d18:	4b061205 	blmi	185534 <__Vectors_Size+0x18533c>
     d1c:	4a061905 	bmi	187138 <__Vectors_Size+0x186f40>
     d20:	054a1e05 	strbeq	r1, [sl, #-3589]	; 0xfffff1fb
     d24:	26054a1c 			; <UNDEFINED> instruction: 0x26054a1c
     d28:	4a02052e 	bmi	821e8 <__Vectors_Size+0x81ff0>
     d2c:	09054c06 	stmdbeq	r5, {r1, r2, sl, fp, lr}
     d30:	0e052e06 	cdpeq	14, 0, cr2, cr5, cr6, {0}
     d34:	2e02052e 	cfsh32cs	mvfx0, mvfx2, #30
     d38:	84061305 	strhi	r1, [r6], #-773	; 0xfffffcfb
     d3c:	4a061a05 	bmi	187558 <__Vectors_Size+0x187360>
     d40:	054a1f05 	strbeq	r1, [sl, #-3845]	; 0xfffff0fb
     d44:	22052e1d 	andcs	r2, r5, #464	; 0x1d0
     d48:	4a27052e 	bmi	9c2208 <__Vectors_Size+0x9c2010>
     d4c:	052e2505 	streq	r2, [lr, #-1285]!	; 0xfffffafb
     d50:	13052e03 	movwne	r2, #24067	; 0x5e03
     d54:	1a058306 	bne	161974 <__Vectors_Size+0x16177c>
     d58:	1f054a06 	svcne	0x00054a06
     d5c:	2e1d054a 	cfmac32cs	mvfx0, mvfx13, mvfx10
     d60:	052e2205 	streq	r2, [lr, #-517]!	; 0xfffffdfb
     d64:	25054a27 	strcs	r4, [r5, #-2599]	; 0xfffff5d9
     d68:	2e03052e 	cfsh32cs	mvfx0, mvfx3, #30
     d6c:	83061305 	movwhi	r1, #25349	; 0x6305
     d70:	4a061a05 	bmi	18758c <__Vectors_Size+0x187394>
     d74:	054a1f05 	strbeq	r1, [sl, #-3845]	; 0xfffff0fb
     d78:	22052e1d 	andcs	r2, r5, #464	; 0x1d0
     d7c:	4a27052e 	bmi	9c223c <__Vectors_Size+0x9c2044>
     d80:	052e2505 	streq	r2, [lr, #-1285]!	; 0xfffffafb
     d84:	13052e03 	movwne	r2, #24067	; 0x5e03
     d88:	1a058306 	bne	1619a8 <__Vectors_Size+0x1617b0>
     d8c:	1f054a06 	svcne	0x00054a06
     d90:	2e1d054a 	cfmac32cs	mvfx0, mvfx13, mvfx10
     d94:	052e2205 	streq	r2, [lr, #-517]!	; 0xfffffdfb
     d98:	25054a27 	strcs	r4, [r5, #-2599]	; 0xfffff5d9
     d9c:	2e03052e 	cfsh32cs	mvfx0, mvfx3, #30
     da0:	83061305 	movwhi	r1, #25349	; 0x6305
     da4:	4a061a05 	bmi	1875c0 <__Vectors_Size+0x1873c8>
     da8:	054a1f05 	strbeq	r1, [sl, #-3845]	; 0xfffff0fb
     dac:	22052e1d 	andcs	r2, r5, #464	; 0x1d0
     db0:	4a27052e 	bmi	9c2270 <__Vectors_Size+0x9c2078>
     db4:	052e2505 	streq	r2, [lr, #-1285]!	; 0xfffffafb
     db8:	13052e03 	movwne	r2, #24067	; 0x5e03
     dbc:	1a058306 	bne	1619dc <__Vectors_Size+0x1617e4>
     dc0:	1f054a06 	svcne	0x00054a06
     dc4:	2e1d054a 	cfmac32cs	mvfx0, mvfx13, mvfx10
     dc8:	052e2205 	streq	r2, [lr, #-517]!	; 0xfffffdfb
     dcc:	25054a27 	strcs	r4, [r5, #-2599]	; 0xfffff5d9
     dd0:	2e03052e 	cfsh32cs	mvfx0, mvfx3, #30
     dd4:	83061305 	movwhi	r1, #25349	; 0x6305
     dd8:	4a061a05 	bmi	1875f4 <__Vectors_Size+0x1873fc>
     ddc:	054a1f05 	strbeq	r1, [sl, #-3845]	; 0xfffff0fb
     de0:	22052e1d 	andcs	r2, r5, #464	; 0x1d0
     de4:	4a27052e 	bmi	9c22a4 <__Vectors_Size+0x9c20ac>
     de8:	052e2505 	streq	r2, [lr, #-1285]!	; 0xfffffafb
     dec:	13052e03 	movwne	r2, #24067	; 0x5e03
     df0:	1a058306 	bne	161a10 <__Vectors_Size+0x161818>
     df4:	1f054a06 	svcne	0x00054a06
     df8:	2e1d054a 	cfmac32cs	mvfx0, mvfx13, mvfx10
     dfc:	052e2205 	streq	r2, [lr, #-517]!	; 0xfffffdfb
     e00:	25054a27 	strcs	r4, [r5, #-2599]	; 0xfffff5d9
     e04:	2e03052e 	cfsh32cs	mvfx0, mvfx3, #30
     e08:	84060405 	strhi	r0, [r6], #-1029	; 0xfffffbfb
     e0c:	05671005 	strbeq	r1, [r7, #-5]!
     e10:	052e0607 	streq	r0, [lr, #-1543]!	; 0xfffff9f9
     e14:	07052e0c 	streq	r2, [r5, -ip, lsl #28]
     e18:	060a054a 	streq	r0, [sl], -sl, asr #10
     e1c:	0610054c 	ldreq	r0, [r0], -ip, asr #10
     e20:	2e0e052e 	cfsh32cs	mvfx0, mvfx14, #30
     e24:	052e0805 	streq	r0, [lr, #-2053]!	; 0xfffff7fb
     e28:	07052e13 	smladeq	r5, r3, lr, r2
     e2c:	0605052e 	streq	r0, [r5], -lr, lsr #10
     e30:	67110568 	ldrvs	r0, [r1, -r8, ror #10]
     e34:	2e060805 	cdpcs	8, 0, cr0, cr6, cr5, {0}
     e38:	9f060305 	svcls	0x00060305
     e3c:	6e030205 	cdpvs	2, 0, cr0, cr3, cr5, {0}
     e40:	0301052e 	movweq	r0, #5422	; 0x152e
     e44:	04022e14 	streq	r2, [r2], #-3604	; 0xfffff1ec
     e48:	04010100 	streq	r0, [r1], #-256	; 0xffffff00
     e4c:	02050002 	andeq	r0, r5, #2
     e50:	00000000 	andeq	r0, r0, r0
     e54:	0103b303 	tsteq	r3, r3, lsl #6
     e58:	080a1205 	stmdaeq	sl, {r0, r2, r9, ip}
     e5c:	0610053d 			; <UNDEFINED> instruction: 0x0610053d
     e60:	4a0a054a 	bmi	282390 <__Vectors_Size+0x282198>
     e64:	17056706 	strne	r6, [r5, -r6, lsl #14]
     e68:	0615054b 	ldreq	r0, [r5], -fp, asr #10
     e6c:	4a0a0566 	bmi	28240c <__Vectors_Size+0x282214>
     e70:	0e054b06 	vmlaeq.f64	d4, d5, d6
     e74:	060a054b 	streq	r0, [sl], -fp, asr #10
     e78:	0612054a 	ldreq	r0, [r2], -sl, asr #10
     e7c:	0619054c 	ldreq	r0, [r9], -ip, asr #10
     e80:	4a1d054a 	bmi	7423b0 <__Vectors_Size+0x7421b8>
     e84:	054a2205 	strbeq	r2, [sl, #-517]	; 0xfffffdfb
     e88:	02054a20 	andeq	r4, r5, #32, 20	; 0x20000
     e8c:	0612052e 	ldreq	r0, [r2], -lr, lsr #10
     e90:	06190567 	ldreq	r0, [r9], -r7, ror #10
     e94:	4a1d054a 	bmi	7423c4 <__Vectors_Size+0x7421cc>
     e98:	054a2205 	strbeq	r2, [sl, #-517]	; 0xfffffdfb
     e9c:	02054a20 	andeq	r4, r5, #32, 20	; 0x20000
     ea0:	0612052e 	ldreq	r0, [r2], -lr, lsr #10
     ea4:	06190567 	ldreq	r0, [r9], -r7, ror #10
     ea8:	4a1e054a 	bmi	7823d8 <__Vectors_Size+0x7821e0>
     eac:	054a1c05 	strbeq	r1, [sl, #-3077]	; 0xfffff3fb
     eb0:	02052e21 	andeq	r2, r5, #528	; 0x210
     eb4:	0612054a 	ldreq	r0, [r2], -sl, asr #10
     eb8:	06190567 	ldreq	r0, [r9], -r7, ror #10
     ebc:	4a1e054a 	bmi	7823ec <__Vectors_Size+0x7821f4>
     ec0:	054a1c05 	strbeq	r1, [sl, #-3077]	; 0xfffff3fb
     ec4:	02052e21 	andeq	r2, r5, #528	; 0x210
     ec8:	0612054a 	ldreq	r0, [r2], -sl, asr #10
     ecc:	06190567 	ldreq	r0, [r9], -r7, ror #10
     ed0:	4a1e054a 	bmi	782400 <__Vectors_Size+0x782208>
     ed4:	054a1c05 	strbeq	r1, [sl, #-3077]	; 0xfffff3fb
     ed8:	28054a21 	stmdacs	r5, {r0, r5, r9, fp, lr}
     edc:	2e02054a 	cfsh32cs	mvfx0, mvfx2, #42
     ee0:	0905d806 	stmdbeq	r5, {r1, r2, fp, ip, lr, pc}
     ee4:	0d052e06 	stceq	14, cr2, [r5, #-24]	; 0xffffffe8
     ee8:	4a02054a 	bmi	82418 <__Vectors_Size+0x82220>
     eec:	68060705 	stmdavs	r6, {r0, r2, r8, r9, sl}
     ef0:	05054a06 	streq	r4, [r5, #-2566]	; 0xfffff5fa
     ef4:	0a056806 	beq	15af14 <__Vectors_Size+0x15ad1c>
     ef8:	9f09059f 	svcls	0x0009059f
     efc:	4a060605 	bmi	182718 <__Vectors_Size+0x182520>
     f00:	9f060305 	svcls	0x00060305
     f04:	052f0405 	streq	r0, [pc, #-1029]!	; b07 <__Vectors_Size+0x90f>
     f08:	08059f09 	stmdaeq	r5, {r0, r3, r8, r9, sl, fp, ip, pc}
     f0c:	0605059f 			; <UNDEFINED> instruction: 0x0605059f
     f10:	0613054a 	ldreq	r0, [r3], -sl, asr #10
     f14:	061a05a0 	ldreq	r0, [sl], -r0, lsr #11
     f18:	4a1f054a 	bmi	7c2448 <__Vectors_Size+0x7c2250>
     f1c:	054a1d05 	strbeq	r1, [sl, #-3333]	; 0xfffff2fb
     f20:	27054a22 	strcs	r4, [r5, -r2, lsr #20]
     f24:	4a25054a 	bmi	942454 <__Vectors_Size+0x94225c>
     f28:	052e2d05 	streq	r2, [lr, #-3333]!	; 0xfffff2fb
     f2c:	13052e03 	movwne	r2, #24067	; 0x5e03
     f30:	1c05f306 	stcne	3, cr15, [r5], {6}
     f34:	1f054a06 	svcne	0x00054a06
     f38:	4a24054a 	bmi	902468 <__Vectors_Size+0x902270>
     f3c:	054a2205 	strbeq	r2, [sl, #-517]	; 0xfffffdfb
     f40:	2a052e27 	bcs	14c7e4 <__Vectors_Size+0x14c5ec>
     f44:	2e03054a 	cfsh32cs	mvfx0, mvfx3, #42
     f48:	f4061305 	vst2.8	{d1-d4}, [r6], r5
     f4c:	4a061c05 	bmi	187f68 <__Vectors_Size+0x187d70>
     f50:	054a1f05 	strbeq	r1, [sl, #-3845]	; 0xfffff0fb
     f54:	22054a24 	andcs	r4, r5, #36, 20	; 0x24000
     f58:	2e27054a 	cfsh64cs	mvdx0, mvdx7, #42
     f5c:	054a2a05 	strbeq	r2, [sl, #-2565]	; 0xfffff5fb
     f60:	13052e03 	movwne	r2, #24067	; 0x5e03
     f64:	1c05f306 	stcne	3, cr15, [r5], {6}
     f68:	1f054a06 	svcne	0x00054a06
     f6c:	4a24054a 	bmi	90249c <__Vectors_Size+0x9022a4>
     f70:	054a2205 	strbeq	r2, [sl, #-517]	; 0xfffffdfb
     f74:	2a052e27 	bcs	14c818 <__Vectors_Size+0x14c620>
     f78:	2e03054a 	cfsh32cs	mvfx0, mvfx3, #42
     f7c:	03060205 	movweq	r0, #25093	; 0x6205
     f80:	0105f270 	tsteq	r5, r0, ror r2	; <UNPREDICTABLE>
     f84:	022e1203 	eoreq	r1, lr, #805306368	; 0x30000000
     f88:	01010004 	tsteq	r1, r4
     f8c:	05000204 	streq	r0, [r0, #-516]	; 0xfffffdfc
     f90:	0020d002 	eoreq	sp, r0, r2
     f94:	03dc0308 	bicseq	r0, ip, #8, 6	; 0x20000000
     f98:	0a0b0501 	beq	2c23a4 <__Vectors_Size+0x2c21ac>
     f9c:	0607054b 	streq	r0, [r7], -fp, asr #10
     fa0:	2e10052e 	cfmul64cs	mvdx0, mvdx0, mvdx14
     fa4:	052e0205 	streq	r0, [lr, #-517]!	; 0xfffffdfb
     fa8:	05830611 	streq	r0, [r3, #1553]	; 0x611
     fac:	052e0603 	streq	r0, [lr, #-1539]!	; 0xfffff9fd
     fb0:	03059e14 	movweq	r9, #24084	; 0x5e14
     fb4:	0634052e 	ldrteq	r0, [r4], -lr, lsr #10
     fb8:	0602052d 	streq	r0, [r2], -sp, lsr #10
     fbc:	06010566 	streq	r0, [r1], -r6, ror #10
     fc0:	00040230 	andeq	r0, r4, r0, lsr r2
     fc4:	02040101 	andeq	r0, r4, #1073741824	; 0x40000000
     fc8:	68020500 	stmdavs	r2, {r8, sl}
     fcc:	03080024 	movweq	r0, #32804	; 0x8024
     fd0:	050103e9 	streq	r0, [r1, #-1001]	; 0xfffffc17
     fd4:	674b0a02 	strbvs	r0, [fp, -r2, lsl #20]
     fd8:	83836767 	orrhi	r6, r3, #27000832	; 0x19c0000
     fdc:	679f6783 	ldrvs	r6, [pc, r3, lsl #15]
     fe0:	83838367 	orrhi	r8, r3, #-1677721599	; 0x9c000001
     fe4:	67676783 	strbvs	r6, [r7, -r3, lsl #15]!
     fe8:	4b010567 	blmi	4258c <__Vectors_Size+0x42394>
     fec:	01000402 	tsteq	r0, r2, lsl #8
     ff0:	00020401 	andeq	r0, r2, r1, lsl #8
     ff4:	26d80205 	ldrbcs	r0, [r8], r5, lsl #4
     ff8:	39030800 	stmdbcc	r3, {fp}
     ffc:	0a0f0501 	beq	3c2408 <__Vectors_Size+0x3c2210>
    1000:	83d98383 	bicshi	r8, r9, #201326594	; 0xc000002
    1004:	838583f5 	orrhi	r8, r5, #-738197501	; 0xd4000003
    1008:	83858385 	orrhi	r8, r5, #335544322	; 0x14000002
    100c:	83d81005 	bicshi	r1, r8, #5
    1010:	05f50f05 	ldrbeq	r0, [r5, #3845]!	; 0xf05
    1014:	8685f50c 	strhi	pc, [r5], ip, lsl #10
    1018:	85838583 	strhi	r8, [r3, #1411]	; 0x583
    101c:	83010585 	movwhi	r0, #5509	; 0x1585
    1020:	01000202 	tsteq	r0, r2, lsl #4
    1024:	00020401 	andeq	r0, r2, r1, lsl #8
    1028:	24f80205 	ldrbtcs	r0, [r8], #517	; 0x205
    102c:	d0030800 	andle	r0, r3, r0, lsl #16
    1030:	02050101 	andeq	r0, r5, #1073741824	; 0x40000000
    1034:	d767f30a 	strble	pc, [r7, -sl, lsl #6]!	; <UNPREDICTABLE>
    1038:	0105832f 	tsteq	r5, pc, lsr #6
    103c:	0004022f 	andeq	r0, r4, pc, lsr #4
    1040:	02040101 	andeq	r0, r4, #1073741824	; 0x40000000
    1044:	08020500 	stmdaeq	r2, {r8, sl}
    1048:	03080026 	movweq	r0, #32806	; 0x8026
    104c:	0501019f 	streq	r0, [r1, #-415]	; 0xfffffe61
    1050:	05bb0a11 	ldreq	r0, [fp, #2577]!	; 0xa11
    1054:	054a0602 	strbeq	r0, [sl, #-1538]	; 0xfffff9fe
    1058:	054b0611 	strbeq	r0, [fp, #-1553]	; 0xfffff9ef
    105c:	054a0602 	strbeq	r0, [sl, #-1538]	; 0xfffff9fe
    1060:	024b0601 	subeq	r0, fp, #1048576	; 0x100000
    1064:	01010004 	tsteq	r1, r4
    1068:	05000204 	streq	r0, [r0, #-516]	; 0xfffffdfc
    106c:	0027c002 	eoreq	ip, r7, r2
    1070:	00f50308 	rscseq	r0, r5, r8, lsl #6
    1074:	0a020501 	beq	82480 <__Vectors_Size+0x82288>
    1078:	88030668 	stmdahi	r3, {r3, r5, r6, r9, sl}
    107c:	10052e7f 	andne	r2, r5, pc, ror lr
    1080:	8200f803 	andhi	pc, r0, #196608	; 0x30000
    1084:	052e0205 	streq	r0, [lr, #-517]!	; 0xfffffdfb
    1088:	05a10624 	streq	r0, [r1, #1572]!	; 0x624
    108c:	05ba0622 	ldreq	r0, [sl, #1570]!	; 0x622
    1090:	06310602 	ldrteq	r0, [r1], -r2, lsl #12
    1094:	2e7f8203 	cdpcs	2, 7, cr8, cr15, cr3, {0}
    1098:	fe031005 	cdp2	0, 0, cr1, cr3, cr5, {0}
    109c:	02058200 	andeq	r8, r5, #0, 4
    10a0:	06a2062e 	strteq	r0, [r2], lr, lsr #12
    10a4:	2e7efe03 	cdpcs	14, 7, cr15, cr14, cr3, {0}
    10a8:	82030f05 	andhi	r0, r3, #5, 30
    10ac:	02058201 	andeq	r8, r5, #268435456	; 0x10000000
    10b0:	7efe032e 	cdpvc	3, 15, cr0, cr14, cr14, {1}
    10b4:	060e059e 			; <UNDEFINED> instruction: 0x060e059e
    10b8:	82018503 	andhi	r8, r1, #12582912	; 0xc00000
    10bc:	2f01059f 	svccs	0x0001059f
    10c0:	01000402 	tsteq	r0, r2, lsl #8
    10c4:	0002aa01 	andeq	sl, r2, r1, lsl #20
    10c8:	cb000400 	blgt	20d0 <__Vectors_Size+0x1ed8>
    10cc:	01000000 	mrseq	r0, (UNDEF: 0)
    10d0:	0efb0101 	cdpeq	1, 15, cr0, cr11, cr1, {0}
    10d4:	0101000d 	tsteq	r1, sp
    10d8:	00000101 	andeq	r0, r0, r1, lsl #2
    10dc:	00000100 	andeq	r0, r0, r0, lsl #2
    10e0:	5c3a4401 	cfldrspl	mvf4, [sl], #-4
    10e4:	54464f53 	strbpl	r4, [r6], #-3923	; 0xfffff0ad
    10e8:	6956755c 	ldmdbvs	r6, {r2, r3, r4, r6, r8, sl, ip, sp, lr}^
    10ec:	6e6f6973 			; <UNDEFINED> instruction: 0x6e6f6973
    10f0:	69654b5c 	stmdbvs	r5!, {r2, r3, r4, r6, r8, r9, fp, lr}^
    10f4:	35565f6c 	ldrbcc	r5, [r6, #-3948]	; 0xfffff094
    10f8:	4d52415c 	ldfmie	f4, [r2, #-368]	; 0xfffffe90
    10fc:	4d52415c 	ldfmie	f4, [r2, #-368]	; 0xfffffe90
    1100:	4e414c43 	cdpmi	12, 4, cr4, cr1, cr3, {2}
    1104:	69425c47 	stmdbvs	r2, {r0, r1, r2, r6, sl, fp, ip, lr}^
    1108:	2e2e5c6e 	cdpcs	12, 2, cr5, cr14, cr14, {3}
    110c:	636e695c 	cmnvs	lr, #92, 18	; 0x170000
    1110:	6564756c 	strbvs	r7, [r4, #-1388]!	; 0xfffffa94
    1114:	2f3a4400 	svccs	0x003a4400
    1118:	54464f53 	strbpl	r4, [r6], #-3923	; 0xfffff0ad
    111c:	6956752f 	ldmdbvs	r6, {r0, r1, r2, r3, r5, r8, sl, ip, sp, lr}^
    1120:	6e6f6973 			; <UNDEFINED> instruction: 0x6e6f6973
    1124:	6361502f 	cmnvs	r1, #47	; 0x2f
    1128:	4b2f736b 	blmi	bddedc <__Vectors_Size+0xbddce4>
    112c:	2f6c6965 	svccs	0x006c6965
    1130:	334d5453 	movtcc	r5, #54355	; 0xd453
    1134:	78374632 	ldmdavc	r7!, {r1, r4, r5, r9, sl, lr}
    1138:	46445f78 			; <UNDEFINED> instruction: 0x46445f78
    113c:	2e322f50 	mrccs	15, 1, r2, cr2, cr0, {2}
    1140:	322e3531 	eorcc	r3, lr, #205520896	; 0xc400000
    1144:	6972442f 	ldmdbvs	r2!, {r0, r1, r2, r3, r5, sl, lr}^
    1148:	73726576 	cmnvc	r2, #494927872	; 0x1d800000
    114c:	534d432f 	movtpl	r4, #54063	; 0xd32f
    1150:	442f5349 	strtmi	r5, [pc], #-841	; 1158 <__Vectors_Size+0xf60>
    1154:	63697665 	cmnvs	r9, #105906176	; 0x6500000
    1158:	54532f65 	ldrbpl	r2, [r3], #-3941	; 0xfffff09b
    115c:	4d54532f 	ldclmi	3, cr5, [r4, #-188]	; 0xffffff44
    1160:	37463233 	smlaldxcc	r3, r6, r3, r2
    1164:	492f7878 	stmdbmi	pc!, {r3, r4, r5, r6, fp, ip, sp, lr}	; <UNPREDICTABLE>
    1168:	756c636e 	strbvc	r6, [ip, #-878]!	; 0xfffffc92
    116c:	00006564 	andeq	r6, r0, r4, ror #10
    1170:	69647473 	stmdbvs	r4!, {r0, r1, r4, r5, r6, sl, ip, sp, lr}^
    1174:	682e746e 	stmdavs	lr!, {r1, r2, r3, r5, r6, sl, ip, sp, lr}
    1178:	00000100 	andeq	r0, r0, r0, lsl #2
    117c:	32337364 	eorscc	r7, r3, #100, 6	; 0x90000001
    1180:	632e3133 			; <UNDEFINED> instruction: 0x632e3133
    1184:	00000000 	andeq	r0, r0, r0
    1188:	336d7473 	cmncc	sp, #1929379840	; 0x73000000
    118c:	36376632 			; <UNDEFINED> instruction: 0x36376632
    1190:	2e787837 	mrccs	8, 3, r7, cr8, cr7, {1}
    1194:	00020068 	andeq	r0, r2, r8, rrx
    1198:	02040000 	andeq	r0, r4, #0
    119c:	08020500 	stmdaeq	r2, {r8, sl}
    11a0:	19080017 	stmdbne	r8, {r0, r1, r2, r4}
    11a4:	830a1205 	movwhi	r1, #41477	; 0xa205
    11a8:	838483f4 	orrhi	r8, r4, #244, 6	; 0xd0000003
    11ac:	83f41305 	mvnshi	r1, #335544320	; 0x14000000
    11b0:	f41205f4 			; <UNDEFINED> instruction: 0xf41205f4
    11b4:	05f30f05 	ldrbeq	r0, [r3, #3845]!	; 0xf05
    11b8:	053d0813 	ldreq	r0, [sp, #-2067]!	; 0xfffff7ed
    11bc:	02022f01 	andeq	r2, r2, #1, 30
    11c0:	04010100 	streq	r0, [r1], #-256	; 0xffffff00
    11c4:	02050002 	andeq	r0, r5, #2
    11c8:	080016c8 	stmdaeq	r0, {r3, r6, r7, r9, sl, ip}
    11cc:	05011a03 	streq	r1, [r1, #-2563]	; 0xfffff5fd
    11d0:	05670a0c 	strbeq	r0, [r7, #-2572]!	; 0xfffff5f4
    11d4:	054a0617 	strbeq	r0, [sl, #-1559]	; 0xfffff9e9
    11d8:	0e052e12 	mcreq	14, 0, r2, cr5, cr2, {0}
    11dc:	4a05054a 	bmi	14270c <__Vectors_Size+0x142514>
    11e0:	01000402 	tsteq	r0, r2, lsl #8
    11e4:	00020401 	andeq	r0, r2, r1, lsl #8
    11e8:	16e00205 	strbtne	r0, [r0], r5, lsl #4
    11ec:	1e030800 	cdpne	8, 0, cr0, cr3, cr0, {0}
    11f0:	0a0c0501 	beq	3025fc <__Vectors_Size+0x302404>
    11f4:	06170567 	ldreq	r0, [r7], -r7, ror #10
    11f8:	661205ba 			; <UNDEFINED> instruction: 0x661205ba
    11fc:	054a0e05 	strbeq	r0, [sl, #-3589]	; 0xfffff1fb
    1200:	04024a05 	streq	r4, [r2], #-2565	; 0xfffff5fb
    1204:	04010100 	streq	r0, [r1], #-256	; 0xffffff00
    1208:	02050002 	andeq	r0, r5, #2
    120c:	08001798 	stmdaeq	r0, {r3, r4, r7, r8, r9, sl, ip}
    1210:	05012203 	streq	r2, [r1, #-515]	; 0xfffffdfd
    1214:	08f30a0f 	ldmeq	r3!, {r0, r1, r2, r3, r9, fp}^
    1218:	1205f53f 	andne	pc, r5, #264241152	; 0xfc00000
    121c:	061b054b 	ldreq	r0, [fp], -fp, asr #10
    1220:	2e0f054a 	cfsh32cs	mvfx0, mvfx15, #42
    1224:	83833006 	orrhi	r3, r3, #6
    1228:	0e058383 	cdpeq	3, 0, cr8, cr5, cr3, {4}
    122c:	4b050585 	blmi	142848 <__Vectors_Size+0x142650>
    1230:	2e4b0306 	cdpcs	3, 4, cr0, cr11, cr6, {0}
    1234:	35031305 	strcc	r1, [r3, #-773]	; 0xfffffcfb
    1238:	4a250582 	bmi	942848 <__Vectors_Size+0x942650>
    123c:	059e2805 	ldreq	r2, [lr, #2053]	; 0x805
    1240:	00056630 	andeq	r6, r5, r0, lsr r6
    1244:	05ba4b03 	ldreq	r4, [sl, #2819]!	; 0xb03
    1248:	2e350305 	cdpcs	3, 3, cr0, cr5, cr5, {0}
    124c:	05664b03 	strbeq	r4, [r6, #-2819]!	; 0xfffff4fd
    1250:	36030612 			; <UNDEFINED> instruction: 0x36030612
    1254:	060c0582 	streq	r0, [ip], -r2, lsl #11
    1258:	061a052e 	ldreq	r0, [sl], -lr, lsr #10
    125c:	06180567 	ldreq	r0, [r8], -r7, ror #10
    1260:	2e0d05ba 	mcrcs	5, 0, r0, cr13, cr10, {5}
    1264:	2f061005 	svccs	0x00061005
    1268:	059b0505 	ldreq	r0, [fp, #1285]	; 0x505
    126c:	4a063409 	bmi	18e298 <__Vectors_Size+0x18e0a0>
    1270:	83061305 	movwhi	r1, #25349	; 0x6305
    1274:	ba060905 	blt	183690 <__Vectors_Size+0x183498>
    1278:	052e4403 	streq	r4, [lr, #-1027]!	; 0xfffffbfd
    127c:	3f030613 	svccc	0x00030613
    1280:	3e088782 	cdpcc	7, 0, cr8, cr8, cr2, {4}
    1284:	052f1605 	streq	r1, [pc, #-1541]!	; c87 <__Vectors_Size+0xa8f>
    1288:	054a061f 	strbeq	r0, [sl, #-1567]	; 0xfffff9e1
    128c:	2f062e13 	svccs	0x00062e13
    1290:	05831705 	streq	r1, [r3, #1797]	; 0x705
    1294:	064a0613 			; <UNDEFINED> instruction: 0x064a0613
    1298:	09058383 	stmdbeq	r5, {r0, r1, r7, r8, r9, pc}
    129c:	b2030685 	andlt	r0, r3, #139460608	; 0x8500000
    12a0:	17052e7f 	smlsdxne	r5, pc, lr, r2	; <UNPREDICTABLE>
    12a4:	8200ce03 	andhi	ip, r0, #3, 28	; 0x30
    12a8:	032e0905 			; <UNDEFINED> instruction: 0x032e0905
    12ac:	05827fb2 	streq	r7, [r2, #4018]	; 0xfb2
    12b0:	cf030616 	svcgt	0x00030616
    12b4:	10058200 	andne	r8, r5, r0, lsl #4
    12b8:	b1032e06 	tstlt	r3, r6, lsl #28
    12bc:	2105827f 	tstcs	r5, pc, ror r2
    12c0:	00d00306 	sbcseq	r0, r0, r6, lsl #6
    12c4:	06160582 	ldreq	r0, [r6], -r2, lsl #11
    12c8:	6619052e 	ldrvs	r0, [r9], -lr, lsr #10
    12cc:	052e1105 	streq	r1, [lr, #-261]!	; 0xfffffefb
    12d0:	062c0609 	strteq	r0, [ip], -r9, lsl #12
    12d4:	2e7fb203 	cdpcs	2, 7, cr11, cr15, cr3, {0}
    12d8:	03061305 	movweq	r1, #25349	; 0x6305
    12dc:	058200d3 	streq	r0, [r2, #211]	; 0xd3
    12e0:	0402a001 	streq	sl, [r2], #-1
    12e4:	04010100 	streq	r0, [r1], #-256	; 0xffffff00
    12e8:	02050002 	andeq	r0, r5, #2
    12ec:	08001920 	stmdaeq	r0, {r5, r8, fp, ip}
    12f0:	0100d803 	tsteq	r0, r3, lsl #16
    12f4:	080a0f05 	stmdaeq	sl, {r0, r2, r8, r9, sl, fp}
    12f8:	053d0876 	ldreq	r0, [sp, #-2166]!	; 0xfffff78a
    12fc:	1b052f12 	blne	14cf4c <__Vectors_Size+0x14cd54>
    1300:	0f054a06 	svceq	0x00054a06
    1304:	052f062e 	streq	r0, [pc, #-1582]!	; cde <__Vectors_Size+0xae6>
    1308:	20058314 	andcs	r8, r5, r4, lsl r3
    130c:	0f054a06 	svceq	0x00054a06
    1310:	8383062e 	orrhi	r0, r3, #48234496	; 0x2e00000
    1314:	85090583 	strhi	r0, [r9, #-1411]	; 0xfffffa7d
    1318:	062f0505 	strteq	r0, [pc], -r5, lsl #10
    131c:	2e7f9a03 	vaddcs.f32	s19, s30, s6
    1320:	e6031305 	str	r1, [r3], -r5, lsl #6
    1324:	05058200 	streq	r8, [r5, #-512]	; 0xfffffe00
    1328:	7f9a032e 	svcvc	0x009a032e
    132c:	06120582 	ldreq	r0, [r2], -r2, lsl #11
    1330:	8200e703 	andhi	lr, r0, #786432	; 0xc0000
    1334:	2e060c05 	cdpcs	12, 0, cr0, cr6, cr5, {0}
    1338:	67061b05 	strvs	r1, [r6, -r5, lsl #22]
    133c:	2e061a05 	vmlacs.f32	s2, s12, s10
    1340:	054a2505 	strbeq	r2, [sl, #-1285]	; 0xfffffafb
    1344:	2e054a1a 			; <UNDEFINED> instruction: 0x2e054a1a
    1348:	2e33054a 	cdpcs	5, 3, cr0, cr3, cr10, {2}
    134c:	052e2e05 	streq	r2, [lr, #-3589]!	; 0xfffff1fb
    1350:	1805661a 	stmdane	r5, {r1, r3, r4, r9, sl, sp, lr}
    1354:	060e05d6 			; <UNDEFINED> instruction: 0x060e05d6
    1358:	6709052f 	strvs	r0, [r9, -pc, lsr #10]
    135c:	062a0505 	strteq	r0, [sl], -r5, lsl #10
    1360:	2e7f9a03 	vaddcs.f32	s19, s30, s6
    1364:	03060f05 	movweq	r0, #28421	; 0x6f05
    1368:	058200ee 	streq	r0, [r2, #238]	; 0xee
    136c:	04028301 	streq	r8, [r2], #-769	; 0xfffffcff
    1370:	8a010100 	bhi	41778 <__Vectors_Size+0x41580>
    1374:	04000003 	streq	r0, [r0], #-3
    1378:	00011100 	andeq	r1, r1, r0, lsl #2
    137c:	01010100 	mrseq	r0, (UNDEF: 17)
    1380:	000d0efb 	strdeq	r0, [sp], -fp
    1384:	01010101 	tsteq	r1, r1, lsl #2
    1388:	01000000 	mrseq	r0, (UNDEF: 0)
    138c:	44010000 	strmi	r0, [r1], #-0
    1390:	4f535c3a 	svcmi	0x00535c3a
    1394:	755c5446 	ldrbvc	r5, [ip, #-1094]	; 0xfffffbba
    1398:	69736956 	ldmdbvs	r3!, {r1, r2, r4, r6, r8, fp, sp, lr}^
    139c:	4b5c6e6f 	blmi	171cd60 <__Vectors_Size+0x171cb68>
    13a0:	5f6c6965 	svcpl	0x006c6965
    13a4:	415c3556 	cmpmi	ip, r6, asr r5
    13a8:	415c4d52 	cmpmi	ip, r2, asr sp
    13ac:	4c434d52 	mcrrmi	13, 5, r4, r3, cr2
    13b0:	5c474e41 	mcrrpl	14, 4, r4, r7, cr1
    13b4:	5c6e6942 			; <UNDEFINED> instruction: 0x5c6e6942
    13b8:	695c2e2e 	ldmdbvs	ip, {r1, r2, r3, r5, r9, sl, fp, sp}^
    13bc:	756c636e 	strbvc	r6, [ip, #-878]!	; 0xfffffc92
    13c0:	44006564 	strmi	r6, [r0], #-1380	; 0xfffffa9c
    13c4:	4f532f3a 	svcmi	0x00532f3a
    13c8:	752f5446 	strvc	r5, [pc, #-1094]!	; f8a <__Vectors_Size+0xd92>
    13cc:	69736956 	ldmdbvs	r3!, {r1, r2, r4, r6, r8, fp, sp, lr}^
    13d0:	502f6e6f 	eorpl	r6, pc, pc, ror #28
    13d4:	736b6361 	cmnvc	fp, #-2080374783	; 0x84000001
    13d8:	69654b2f 	stmdbvs	r5!, {r0, r1, r2, r3, r5, r8, r9, fp, lr}^
    13dc:	54532f6c 	ldrbpl	r2, [r3], #-3948	; 0xfffff094
    13e0:	4632334d 	ldrtmi	r3, [r2], -sp, asr #6
    13e4:	5f787837 	svcpl	0x00787837
    13e8:	2f504644 	svccs	0x00504644
    13ec:	35312e32 	ldrcc	r2, [r1, #-3634]!	; 0xfffff1ce
    13f0:	442f322e 	strtmi	r3, [pc], #-558	; 13f8 <__Vectors_Size+0x1200>
    13f4:	65766972 	ldrbvs	r6, [r6, #-2418]!	; 0xfffff68e
    13f8:	432f7372 			; <UNDEFINED> instruction: 0x432f7372
    13fc:	5349534d 	movtpl	r5, #37709	; 0x934d
    1400:	7665442f 	strbtvc	r4, [r5], -pc, lsr #8
    1404:	2f656369 	svccs	0x00656369
    1408:	532f5453 			; <UNDEFINED> instruction: 0x532f5453
    140c:	32334d54 	eorscc	r4, r3, #84, 26	; 0x1500
    1410:	78783746 	ldmdavc	r8!, {r1, r2, r6, r8, r9, sl, ip, sp}^
    1414:	636e492f 	cmnvs	lr, #770048	; 0xbc000
    1418:	6564756c 	strbvs	r7, [r4, #-1388]!	; 0xfffffa94
    141c:	2f3a4400 	svccs	0x003a4400
    1420:	54464f53 	strbpl	r4, [r6], #-3923	; 0xfffff0ad
    1424:	6956752f 	ldmdbvs	r6, {r0, r1, r2, r3, r5, r8, sl, ip, sp, lr}^
    1428:	6e6f6973 			; <UNDEFINED> instruction: 0x6e6f6973
    142c:	6361502f 	cmnvs	r1, #47	; 0x2f
    1430:	412f736b 			; <UNDEFINED> instruction: 0x412f736b
    1434:	432f4d52 			; <UNDEFINED> instruction: 0x432f4d52
    1438:	5349534d 	movtpl	r5, #37709	; 0x934d
    143c:	392e352f 	stmdbcc	lr!, {r0, r1, r2, r3, r5, r8, sl, ip, sp}
    1440:	432f302e 			; <UNDEFINED> instruction: 0x432f302e
    1444:	5349534d 	movtpl	r5, #37709	; 0x934d
    1448:	726f432f 	rsbvc	r4, pc, #-1140850688	; 0xbc000000
    144c:	6e492f65 	cdpvs	15, 4, cr2, cr9, cr5, {3}
    1450:	64756c63 	ldrbtvs	r6, [r5], #-3171	; 0xfffff39d
    1454:	73000065 	movwvc	r0, #101	; 0x65
    1458:	6e696474 	mcrvs	4, 3, r6, cr9, cr4, {3}
    145c:	00682e74 	rsbeq	r2, r8, r4, ror lr
    1460:	75000001 	strvc	r0, [r0, #-1]
    1464:	37336d72 			; <UNDEFINED> instruction: 0x37336d72
    1468:	0000632e 	andeq	r6, r0, lr, lsr #6
    146c:	74730000 	ldrbtvc	r0, [r3], #-0
    1470:	6632336d 	ldrtvs	r3, [r2], -sp, ror #6
    1474:	78373637 	ldmdavc	r7!, {r0, r1, r2, r4, r5, r9, sl, ip, sp}
    1478:	00682e78 	rsbeq	r2, r8, r8, ror lr
    147c:	63000002 	movwvs	r0, #2
    1480:	5f65726f 	svcpl	0x0065726f
    1484:	2e376d63 	cdpcs	13, 3, cr6, cr7, cr3, {3}
    1488:	00030068 	andeq	r0, r3, r8, rrx
    148c:	02040000 	andeq	r0, r4, #0
    1490:	00020500 	andeq	r0, r2, r0, lsl #10
    1494:	03000000 	movweq	r0, #0
    1498:	0f050119 	svceq	0x00050119
    149c:	83f5bc0a 	mvnshi	fp, #2560	; 0xa00
    14a0:	10058385 	andne	r8, r5, r5, lsl #7
    14a4:	0f0583f4 	svceq	0x000583f4
    14a8:	851005f5 	ldrhi	r0, [r0, #-1525]	; 0xfffffa0b
    14ac:	08062005 	stmdaeq	r6, {r0, r2, sp}
    14b0:	d60e0520 	strle	r0, [lr], -r0, lsr #10
    14b4:	052fd806 	streq	sp, [pc, #-2054]!	; cb6 <__Vectors_Size+0xabe>
    14b8:	0567d802 	strbeq	sp, [r7, #-2050]!	; 0xfffff7fe
    14bc:	01056a0e 	tsteq	r5, lr, lsl #20
    14c0:	00040283 	andeq	r0, r4, r3, lsl #5
    14c4:	04040101 	streq	r0, [r4], #-257	; 0xfffffeff
    14c8:	00020500 	andeq	r0, r2, r0, lsl #10
    14cc:	03000000 	movweq	r0, #0
    14d0:	05010ff9 	streq	r0, [r1, #-4089]	; 0xfffff007
    14d4:	05830a11 	streq	r0, [r3, #2577]	; 0xa11
    14d8:	054a0607 	strbeq	r0, [sl, #-1543]	; 0xfffff9f9
    14dc:	0568063c 	strbeq	r0, [r8, #-1596]!	; 0xfffff9c4
    14e0:	052e0645 	streq	r0, [lr, #-1605]!	; 0xfffff9bb
    14e4:	2f052e19 	svccs	0x00052e19
    14e8:	060305ba 			; <UNDEFINED> instruction: 0x060305ba
    14ec:	313c052f 	teqcc	ip, pc, lsr #10
    14f0:	2e064505 	cfsh32cs	mvfx4, mvfx6, #5
    14f4:	052e1105 	streq	r1, [lr, #-261]!	; 0xfffffefb
    14f8:	2f054a21 	svccs	0x00054a21
    14fc:	060105ba 			; <UNDEFINED> instruction: 0x060105ba
    1500:	0004024c 	andeq	r0, r4, ip, asr #4
    1504:	04040101 	streq	r0, [r4], #-257	; 0xfffffeff
    1508:	00020500 	andeq	r0, r2, r0, lsl #10
    150c:	03000000 	movweq	r0, #0
    1510:	05010ef7 	streq	r0, [r1, #-3831]	; 0xfffff109
    1514:	05670a11 	strbeq	r0, [r7, #-2577]!	; 0xfffff5ef
    1518:	054a0607 	strbeq	r0, [sl, #-1543]	; 0xfffff9f9
    151c:	05680605 	strbeq	r0, [r8, #-1541]!	; 0xfffff9fb
    1520:	5105134b 	tstpl	r5, fp, asr #6
    1524:	3c054a06 			; <UNDEFINED> instruction: 0x3c054a06
    1528:	2e050566 	cfsh32cs	mvfx0, mvfx5, #54
    152c:	059e2b05 	ldreq	r2, [lr, #2821]	; 0xb05
    1530:	054b0605 	strbeq	r0, [fp, #-1541]	; 0xfffff9fb
    1534:	01051303 	tsteq	r5, r3, lsl #6
    1538:	0004022f 	andeq	r0, r4, pc, lsr #4
    153c:	02040101 	andeq	r0, r4, #1073741824	; 0x40000000
    1540:	00020500 	andeq	r0, r2, r0, lsl #10
    1544:	03000000 	movweq	r0, #0
    1548:	050100c1 	streq	r0, [r1, #-193]	; 0xffffff3f
    154c:	064b0a06 	strbeq	r0, [fp], -r6, lsl #20
    1550:	0603059e 			; <UNDEFINED> instruction: 0x0603059e
    1554:	060a054c 	streq	r0, [sl], -ip, asr #10
    1558:	9e03052e 	cfsh32ls	mvfx0, mvfx3, #30
    155c:	68060405 	stmdavs	r6, {r0, r2, sl}
    1560:	7fb90306 	svcvc	0x00b90306
    1564:	0314052e 	tsteq	r4, #192937984	; 0xb800000
    1568:	058200c7 	streq	r0, [r2, #199]	; 0xc7
    156c:	12052e04 	andne	r2, r5, #4, 28	; 0x40
    1570:	1705a006 	strne	sl, [r5, -r6]
    1574:	12052e06 	andne	r2, r5, #6, 28	; 0x60
    1578:	9e10059e 	cfcmp32ls	r0, mvfx0, mvfx14
    157c:	2f060a05 	svccs	0x00060a05
    1580:	05610305 	strbeq	r0, [r1, #-773]!	; 0xfffffcfb
    1584:	1305350a 	movwne	r3, #21770	; 0x550a
    1588:	9f0205bb 	svcls	0x000205bb
    158c:	022f0105 	eoreq	r0, pc, #1073741825	; 0x40000001
    1590:	01010004 	tsteq	r1, r4
    1594:	05000204 	streq	r0, [r0, #-516]	; 0xfffffdfc
    1598:	00298002 	eoreq	r8, r9, r2
    159c:	00d80308 	sbcseq	r0, r8, r8, lsl #6
    15a0:	0a0f0501 	beq	3c29ac <__Vectors_Size+0x3c27b4>
    15a4:	0625059f 			; <UNDEFINED> instruction: 0x0625059f
    15a8:	8229052e 	eorhi	r0, r9, #192937984	; 0xb800000
    15ac:	039e0605 	orrseq	r0, lr, #5242880	; 0x500000
    15b0:	05667fa6 	strbeq	r7, [r6, #-4006]!	; 0xfffff05a
    15b4:	dc030624 	stcle	6, cr0, [r3], {36}	; 0x24
    15b8:	09058200 	stmdbeq	r5, {r9, pc}
    15bc:	03052e06 	movweq	r2, #24070	; 0x5e06
    15c0:	8211059e 	andshi	r0, r1, #662700032	; 0x27800000
    15c4:	2f060905 	svccs	0x00060905
    15c8:	06680605 	strbteq	r0, [r8], -r5, lsl #12
    15cc:	0608052e 	streq	r0, [r8], -lr, lsr #10
    15d0:	039e0668 	orrseq	r0, lr, #104, 12	; 0x6800000
    15d4:	05667f9f 	strbeq	r7, [r6, #-3999]!	; 0xfffff061
    15d8:	00e10322 	rsceq	r0, r1, r2, lsr #6
    15dc:	2e1e052e 	cfmul64cs	mvdx0, mvdx14, mvdx14
    15e0:	052e2705 	streq	r2, [lr, #-1797]!	; 0xfffff8fb
    15e4:	4e052e1a 	mcrmi	14, 0, r2, cr5, cr10, {0}
    15e8:	2e480566 	cdpcs	5, 4, cr0, cr8, cr6, {3}
    15ec:	059e3105 	ldreq	r3, [lr, #261]	; 0x105
    15f0:	31058246 	tstcc	r5, r6, asr #4
    15f4:	2e2c052e 	cfsh64cs	mvdx0, mvdx12, #30
    15f8:	05661a05 	strbeq	r1, [r6, #-2565]!	; 0xfffff5fb
    15fc:	0d052e4f 	stceq	14, cr2, [r5, #-316]	; 0xfffffec4
    1600:	9e062f06 	cdpls	15, 0, cr2, cr6, cr6, {0}
    1604:	667f9e03 	ldrbtvs	r9, [pc], -r3, lsl #28
    1608:	e2032705 	and	r2, r3, #1310720	; 0x140000
    160c:	23052e00 	movwcs	r2, #24064	; 0x5e00
    1610:	2e2c052e 	cfsh64cs	mvdx0, mvdx12, #30
    1614:	052e1f05 	streq	r1, [lr, #-3845]!	; 0xfffff0fb
    1618:	4d056653 	stcmi	6, cr6, [r5, #-332]	; 0xfffffeb4
    161c:	9e36052e 	cdpls	5, 3, cr0, cr6, cr14, {1}
    1620:	05824b05 	streq	r4, [r2, #2821]	; 0xb05
    1624:	31052e36 	tstcc	r5, r6, lsr lr
    1628:	661f052e 	ldrvs	r0, [pc], -lr, lsr #10
    162c:	032e5405 			; <UNDEFINED> instruction: 0x032e5405
    1630:	052e7f9e 	streq	r7, [lr, #-3998]!	; 0xfffff062
    1634:	e4030614 	str	r0, [r3], #-1556	; 0xfffff9ec
    1638:	0b052e00 	bleq	14ce40 <__Vectors_Size+0x14cc48>
    163c:	bb0305bb 	bllt	c2d30 <__Vectors_Size+0xc2b38>
    1640:	052f0205 	streq	r0, [pc, #-517]!	; 1443 <__Vectors_Size+0x124b>
    1644:	04022f01 	streq	r2, [r2], #-3841	; 0xfffff0ff
    1648:	04010100 	streq	r0, [r1], #-256	; 0xffffff00
    164c:	02050002 	andeq	r0, r5, #2
    1650:	00000000 	andeq	r0, r0, r0
    1654:	0100f103 	tsteq	r0, r3, lsl #2	; <UNPREDICTABLE>
    1658:	2f0a0605 	svccs	0x000a0605
    165c:	9e062305 	cdpls	3, 0, cr2, cr6, cr5, {0}
    1660:	05662605 	strbeq	r2, [r6, #-1541]!	; 0xfffff9fb
    1664:	46059e43 	strmi	r9, [r5], -r3, asr #28
    1668:	9e060566 	cfsh32ls	mvfx0, mvfx6, #54
    166c:	667f8d03 	ldrbtvs	r8, [pc], -r3, lsl #26
    1670:	03060305 	movweq	r0, #25349	; 0x6305
    1674:	052e00f4 	streq	r0, [lr, #-244]!	; 0xffffff0c
    1678:	36054d19 			; <UNDEFINED> instruction: 0x36054d19
    167c:	34059e06 	strcc	r9, [r5], #-3590	; 0xfffff1fa
    1680:	4a0a052e 	bmi	282b40 <__Vectors_Size+0x282948>
    1684:	4d061b05 	vstrmi	d1, [r6, #-20]	; 0xffffffec
    1688:	f2062705 	vabd.s8	d2, d6, d5
    168c:	054a1b05 	strbeq	r1, [sl, #-2821]	; 0xfffff4fb
    1690:	06054a08 	streq	r4, [r5], -r8, lsl #20
    1694:	ba064d06 	blt	194ab4 <__Vectors_Size+0x1948bc>
    1698:	bb061405 	bllt	1866b4 <__Vectors_Size+0x1864bc>
    169c:	08060305 	stmdaeq	r6, {r0, r2, r8, r9}
    16a0:	06090574 			; <UNDEFINED> instruction: 0x06090574
    16a4:	06020530 			; <UNDEFINED> instruction: 0x06020530
    16a8:	0601052e 	streq	r0, [r1], -lr, lsr #10
    16ac:	ff03064b 			; <UNDEFINED> instruction: 0xff03064b
    16b0:	1802827e 	stmdane	r2, {r1, r2, r3, r4, r5, r6, r9, pc}
    16b4:	04010100 	streq	r0, [r1], #-256	; 0xffffff00
    16b8:	02050002 	andeq	r0, r5, #2
    16bc:	00000000 	andeq	r0, r0, r0
    16c0:	01018a03 	tsteq	r1, r3, lsl #20
    16c4:	2f0a0605 	svccs	0x000a0605
    16c8:	9e062305 	cdpls	3, 0, cr2, cr6, cr5, {0}
    16cc:	05662605 	strbeq	r2, [r6, #-1541]!	; 0xfffff9fb
    16d0:	46059e43 	strmi	r9, [r5], -r3, asr #28
    16d4:	9e060566 	cfsh32ls	mvfx0, mvfx6, #54
    16d8:	667ef403 	ldrbtvs	pc, [lr], -r3, lsl #8	; <UNPREDICTABLE>
    16dc:	03060305 	movweq	r0, #25349	; 0x6305
    16e0:	052e018d 	streq	r0, [lr, #-397]!	; 0xfffffe73
    16e4:	3f056822 	svccc	0x00056822
    16e8:	3d059e06 	stccc	14, cr9, [r5, #-24]	; 0xffffffe8
    16ec:	4a0b052e 	bmi	2c2bac <__Vectors_Size+0x2c29b4>
    16f0:	4b060905 	blmi	183b0c <__Vectors_Size+0x183914>
    16f4:	4a060205 	bmi	181f10 <__Vectors_Size+0x181d18>
    16f8:	67060105 	strvs	r0, [r6, -r5, lsl #2]
    16fc:	01000802 	tsteq	r0, r2, lsl #16
    1700:	00013c01 	andeq	r3, r1, r1, lsl #24
    1704:	a4000400 	strge	r0, [r0], #-1024	; 0xfffffc00
    1708:	01000000 	mrseq	r0, (UNDEF: 0)
    170c:	0efb0101 	cdpeq	1, 15, cr0, cr11, cr1, {0}
    1710:	0101000d 	tsteq	r1, sp
    1714:	00000101 	andeq	r0, r0, r1, lsl #2
    1718:	00000100 	andeq	r0, r0, r0, lsl #2
    171c:	5c3a4401 	cfldrspl	mvf4, [sl], #-4
    1720:	54464f53 	strbpl	r4, [r6], #-3923	; 0xfffff0ad
    1724:	6956755c 	ldmdbvs	r6, {r2, r3, r4, r6, r8, sl, ip, sp, lr}^
    1728:	6e6f6973 			; <UNDEFINED> instruction: 0x6e6f6973
    172c:	69654b5c 	stmdbvs	r5!, {r2, r3, r4, r6, r8, r9, fp, lr}^
    1730:	35565f6c 	ldrbcc	r5, [r6, #-3948]	; 0xfffff094
    1734:	4d52415c 	ldfmie	f4, [r2, #-368]	; 0xfffffe90
    1738:	4d52415c 	ldfmie	f4, [r2, #-368]	; 0xfffffe90
    173c:	4e414c43 	cdpmi	12, 4, cr4, cr1, cr3, {2}
    1740:	69425c47 	stmdbvs	r2, {r0, r1, r2, r6, sl, fp, ip, lr}^
    1744:	2e2e5c6e 	cdpcs	12, 2, cr5, cr14, cr14, {3}
    1748:	636e695c 	cmnvs	lr, #92, 18	; 0x170000
    174c:	6564756c 	strbvs	r7, [r4, #-1388]!	; 0xfffffa94
    1750:	2f3a4400 	svccs	0x003a4400
    1754:	54464f53 	strbpl	r4, [r6], #-3923	; 0xfffff0ad
    1758:	6956752f 	ldmdbvs	r6, {r0, r1, r2, r3, r5, r8, sl, ip, sp, lr}^
    175c:	6e6f6973 			; <UNDEFINED> instruction: 0x6e6f6973
    1760:	6361502f 	cmnvs	r1, #47	; 0x2f
    1764:	412f736b 			; <UNDEFINED> instruction: 0x412f736b
    1768:	432f4d52 			; <UNDEFINED> instruction: 0x432f4d52
    176c:	5349534d 	movtpl	r5, #37709	; 0x934d
    1770:	392e352f 	stmdbcc	lr!, {r0, r1, r2, r3, r5, r8, sl, ip, sp}
    1774:	432f302e 			; <UNDEFINED> instruction: 0x432f302e
    1778:	5349534d 	movtpl	r5, #37709	; 0x934d
    177c:	726f432f 	rsbvc	r4, pc, #-1140850688	; 0xbc000000
    1780:	6e492f65 	cdpvs	15, 4, cr2, cr9, cr5, {3}
    1784:	64756c63 	ldrbtvs	r6, [r5], #-3171	; 0xfffff39d
    1788:	73000065 	movwvc	r0, #101	; 0x65
    178c:	6e696474 	mcrvs	4, 3, r6, cr9, cr4, {3}
    1790:	00682e74 	rsbeq	r2, r8, r4, ror lr
    1794:	63000001 	movwvs	r0, #1
    1798:	5f65726f 	svcpl	0x0065726f
    179c:	2e376d63 	cdpcs	13, 3, cr6, cr7, cr3, {3}
    17a0:	00020068 	andeq	r0, r2, r8, rrx
    17a4:	6d697400 	cfstrdvs	mvd7, [r9, #-0]
    17a8:	0000632e 	andeq	r6, r0, lr, lsr #6
    17ac:	04000000 	streq	r0, [r0], #-0
    17b0:	02050003 	andeq	r0, r5, #3
    17b4:	00000000 	andeq	r0, r0, r0
    17b8:	0a0f0515 	beq	3c2c14 <__Vectors_Size+0x3c2a1c>
    17bc:	bb0e05d7 	bllt	382f20 <__Vectors_Size+0x382d28>
    17c0:	05bb0f05 	ldreq	r0, [fp, #3845]!	; 0xf05
    17c4:	07052f10 	smladeq	r5, r0, pc, r2	; <UNPREDICTABLE>
    17c8:	15052e06 	strne	r2, [r5, #-3590]	; 0xfffff1fa
    17cc:	2e17052e 	cfmul64cs	mvdx0, mvdx7, mvdx14
    17d0:	052e0205 	streq	r0, [lr, #-517]!	; 0xfffffdfb
    17d4:	78036620 	stmdavc	r3, {r5, r9, sl, sp, lr}
    17d8:	8a31052e 	bhi	c42c98 <__Vectors_Size+0xc42aa0>
    17dc:	052e2005 	streq	r2, [lr, #-5]!
    17e0:	0205ba1c 	andeq	fp, r5, #28, 20	; 0x1c000
    17e4:	2e780366 	cdpcs	3, 7, cr0, cr8, cr6, {3}
    17e8:	03060f05 	movweq	r0, #28421	; 0x6f05
    17ec:	01059e09 	tsteq	r5, r9, lsl #28
    17f0:	0004022f 	andeq	r0, r4, pc, lsr #4
    17f4:	03040101 	movweq	r0, #16641	; 0x4101
    17f8:	18020500 	stmdane	r2, {r8, sl}
    17fc:	03080029 	movweq	r0, #32809	; 0x8029
    1800:	0f05010c 	svceq	0x0005010c
    1804:	0e05f30a 	cdpeq	3, 0, cr15, cr5, cr10, {0}
    1808:	bb0f05bb 	bllt	3c2efc <__Vectors_Size+0x3c2d04>
    180c:	052f1405 	streq	r1, [pc, #-1029]!	; 140f <__Vectors_Size+0x1217>
    1810:	052e0607 	streq	r0, [lr, #-1543]!	; 0xfffff9f9
    1814:	1b052e19 	blne	14d080 <__Vectors_Size+0x14ce88>
    1818:	2e02052e 	cfsh32cs	mvfx0, mvfx2, #30
    181c:	03662405 	cmneq	r6, #83886080	; 0x5000000
    1820:	35052e6f 	strcc	r2, [r5, #-3695]	; 0xfffff191
    1824:	05821103 	streq	r1, [r2, #259]	; 0x103
    1828:	20052e24 	andcs	r2, r5, r4, lsr #28
    182c:	660205ba 			; <UNDEFINED> instruction: 0x660205ba
    1830:	052e6f03 	streq	r6, [lr, #-3843]!	; 0xfffff0fd
    1834:	1203060f 	andne	r0, r3, #15728640	; 0xf00000
    1838:	2f01059e 	svccs	0x0001059e
    183c:	01000402 	tsteq	r0, r2, lsl #8
    1840:	00067101 	andeq	r7, r6, r1, lsl #2
    1844:	dd000400 	cfstrsle	mvf0, [r0, #-0]
    1848:	01000000 	mrseq	r0, (UNDEF: 0)
    184c:	0efb0101 	cdpeq	1, 15, cr0, cr11, cr1, {0}
    1850:	0101000d 	tsteq	r1, sp
    1854:	00000101 	andeq	r0, r0, r1, lsl #2
    1858:	00000100 	andeq	r0, r0, r0, lsl #2
    185c:	5c3a4401 	cfldrspl	mvf4, [sl], #-4
    1860:	54464f53 	strbpl	r4, [r6], #-3923	; 0xfffff0ad
    1864:	6956755c 	ldmdbvs	r6, {r2, r3, r4, r6, r8, sl, ip, sp, lr}^
    1868:	6e6f6973 			; <UNDEFINED> instruction: 0x6e6f6973
    186c:	69654b5c 	stmdbvs	r5!, {r2, r3, r4, r6, r8, r9, fp, lr}^
    1870:	35565f6c 	ldrbcc	r5, [r6, #-3948]	; 0xfffff094
    1874:	4d52415c 	ldfmie	f4, [r2, #-368]	; 0xfffffe90
    1878:	4d52415c 	ldfmie	f4, [r2, #-368]	; 0xfffffe90
    187c:	4e414c43 	cdpmi	12, 4, cr4, cr1, cr3, {2}
    1880:	69425c47 	stmdbvs	r2, {r0, r1, r2, r6, sl, fp, ip, lr}^
    1884:	2e2e5c6e 	cdpcs	12, 2, cr5, cr14, cr14, {3}
    1888:	636e695c 	cmnvs	lr, #92, 18	; 0x170000
    188c:	6564756c 	strbvs	r7, [r4, #-1388]!	; 0xfffffa94
    1890:	44002e00 	strmi	r2, [r0], #-3584	; 0xfffff200
    1894:	4f532f3a 	svcmi	0x00532f3a
    1898:	752f5446 	strvc	r5, [pc, #-1094]!	; 145a <__Vectors_Size+0x1262>
    189c:	69736956 	ldmdbvs	r3!, {r1, r2, r4, r6, r8, fp, sp, lr}^
    18a0:	502f6e6f 	eorpl	r6, pc, pc, ror #28
    18a4:	736b6361 	cmnvc	fp, #-2080374783	; 0x84000001
    18a8:	69654b2f 	stmdbvs	r5!, {r0, r1, r2, r3, r5, r8, r9, fp, lr}^
    18ac:	54532f6c 	ldrbpl	r2, [r3], #-3948	; 0xfffff094
    18b0:	4632334d 	ldrtmi	r3, [r2], -sp, asr #6
    18b4:	5f787837 	svcpl	0x00787837
    18b8:	2f504644 	svccs	0x00504644
    18bc:	35312e32 	ldrcc	r2, [r1, #-3634]!	; 0xfffff1ce
    18c0:	442f322e 	strtmi	r3, [pc], #-558	; 18c8 <__Vectors_Size+0x16d0>
    18c4:	65766972 	ldrbvs	r6, [r6, #-2418]!	; 0xfffff68e
    18c8:	432f7372 			; <UNDEFINED> instruction: 0x432f7372
    18cc:	5349534d 	movtpl	r5, #37709	; 0x934d
    18d0:	7665442f 	strbtvc	r4, [r5], -pc, lsr #8
    18d4:	2f656369 	svccs	0x00656369
    18d8:	532f5453 			; <UNDEFINED> instruction: 0x532f5453
    18dc:	32334d54 	eorscc	r4, r3, #84, 26	; 0x1500
    18e0:	78783746 	ldmdavc	r8!, {r1, r2, r6, r8, r9, sl, ip, sp}^
    18e4:	636e492f 	cmnvs	lr, #770048	; 0xbc000
    18e8:	6564756c 	strbvs	r7, [r4, #-1388]!	; 0xfffffa94
    18ec:	616d0000 	cmnvs	sp, r0
    18f0:	632e6e69 			; <UNDEFINED> instruction: 0x632e6e69
    18f4:	00000000 	andeq	r0, r0, r0
    18f8:	69647473 	stmdbvs	r4!, {r0, r1, r4, r5, r6, sl, ip, sp, lr}^
    18fc:	682e746e 	stmdavs	lr!, {r1, r2, r3, r5, r6, sl, ip, sp, lr}
    1900:	00000100 	andeq	r0, r0, r0, lsl #2
    1904:	39377473 	ldmdbcc	r7!, {r0, r1, r4, r5, r6, sl, ip, sp, lr}
    1908:	665f3032 			; <UNDEFINED> instruction: 0x665f3032
    190c:	73746e6f 	cmnvc	r4, #1776	; 0x6f0
    1910:	0200682e 	andeq	r6, r0, #3014656	; 0x2e0000
    1914:	74730000 	ldrbtvc	r0, [r3], #-0
    1918:	6632336d 	ldrtvs	r3, [r2], -sp, ror #6
    191c:	78373637 	ldmdavc	r7!, {r0, r1, r2, r4, r5, r9, sl, ip, sp}
    1920:	00682e78 	rsbeq	r2, r8, r8, ror lr
    1924:	00000003 	andeq	r0, r0, r3
    1928:	00020500 	andeq	r0, r2, r0, lsl #10
    192c:	03080034 	movweq	r0, #32820	; 0x8034
    1930:	0205011e 	andeq	r0, r5, #-2147483641	; 0x80000007
    1934:	4b4b830a 	blmi	12e2564 <__Vectors_Size+0x12e236c>
    1938:	4f4b4bf3 	svcmi	0x004b4bf3
    193c:	4b300305 	blmi	c02558 <__Vectors_Size+0xc02360>
    1940:	054b1f05 	strbeq	r1, [fp, #-3845]	; 0xfffff0fb
    1944:	3c080603 	stccc	6, cr0, [r8], {3}
    1948:	4b060b05 	blmi	184564 <__Vectors_Size+0x18436c>
    194c:	9e060305 	cdpls	3, 0, cr0, cr6, cr5, {0}
    1950:	f5060505 			; <UNDEFINED> instruction: 0xf5060505
    1954:	4b304b4b 	blmi	c14688 <__Vectors_Size+0xc14490>
    1958:	05300905 	ldreq	r0, [r0, #-2309]!	; 0xfffff6fb
    195c:	0205f303 	andeq	pc, r5, #201326592	; 0xc000000
    1960:	024a7003 	subeq	r7, sl, #3
    1964:	01010002 	tsteq	r1, r2
    1968:	d0020500 	andle	r0, r2, r0, lsl #10
    196c:	0308001e 	movweq	r0, #32798	; 0x801e
    1970:	050101e2 	streq	r0, [r1, #-482]	; 0xfffffe1e
    1974:	054b0a07 	strbeq	r0, [fp, #-2567]	; 0xfffff5f9
    1978:	9e06bc06 	cdpls	12, 0, cr11, cr6, cr6, {0}
    197c:	68062605 	stmdavs	r6, {r0, r2, r9, sl, sp}
    1980:	9e061705 	cdpls	7, 0, cr1, cr6, cr5, {0}
    1984:	054a1605 	strbeq	r1, [sl, #-1541]	; 0xfffff9fb
    1988:	36054a45 	strcc	r4, [r5], -r5, asr #20
    198c:	4a16059e 	bmi	58300c <__Vectors_Size+0x582e14>
    1990:	054a6405 	strbeq	r6, [sl, #-1029]	; 0xfffffbfb
    1994:	16059e55 			; <UNDEFINED> instruction: 0x16059e55
    1998:	0181054a 	orreq	r0, r1, sl, asr #10
    199c:	9e72054a 	cdpls	5, 7, cr0, cr2, cr10, {2}
    19a0:	054a1605 	strbeq	r1, [sl, #-1541]	; 0xfffff9fb
    19a4:	054a01a1 	strbeq	r0, [sl, #-417]	; 0xfffffe5f
    19a8:	059e0192 	ldreq	r0, [lr, #402]	; 0x192
    19ac:	c2054a16 	andgt	r4, r5, #90112	; 0x16000
    19b0:	b3054a01 	movwlt	r4, #23041	; 0x5a01
    19b4:	16059e01 	strne	r9, [r5], -r1, lsl #28
    19b8:	01e0054a 	mvneq	r0, sl, asr #10
    19bc:	01d1054a 	bicseq	r0, r1, sl, asr #10
    19c0:	4a16059e 	bmi	583040 <__Vectors_Size+0x582e48>
    19c4:	f3060305 	vcgt.u8	d0, d6, d5
    19c8:	05670a05 	strbeq	r0, [r7, #-2565]!	; 0xfffff5fb
    19cc:	01059f02 	tsteq	r5, r2, lsl #30
    19d0:	0004022f 	andeq	r0, r4, pc, lsr #4
    19d4:	05000101 	streq	r0, [r0, #-257]	; 0xfffffeff
    19d8:	001d0002 	andseq	r0, sp, r2
    19dc:	013f0308 	teqeq	pc, r8, lsl #6
    19e0:	670a0a05 	strvs	r0, [sl, -r5, lsl #20]
    19e4:	05d70205 	ldrbeq	r0, [r7, #517]	; 0x205
    19e8:	29056721 	stmdbcs	r5, {r0, r5, r8, r9, sl, sp, lr}
    19ec:	12054a06 	andne	r4, r5, #24576	; 0x6000
    19f0:	4a10054a 	bmi	402f20 <__Vectors_Size+0x402d28>
    19f4:	bb062105 	bllt	189e10 <__Vectors_Size+0x189c18>
    19f8:	4a061205 	bmi	186214 <__Vectors_Size+0x18601c>
    19fc:	054a1005 	strbeq	r1, [sl, #-5]
    1a00:	05bb061f 	ldreq	r0, [fp, #1567]!	; 0x61f
    1a04:	054a0627 	strbeq	r0, [sl, #-1575]	; 0xfffff9d9
    1a08:	0e054a10 	vmoveq	s10, r4
    1a0c:	0622054a 	strteq	r0, [r2], -sl, asr #10
    1a10:	061305bb 			; <UNDEFINED> instruction: 0x061305bb
    1a14:	4a11054a 	bmi	442f44 <__Vectors_Size+0x442d4c>
    1a18:	bb062305 	bllt	18a634 <__Vectors_Size+0x18a43c>
    1a1c:	4a061405 	bmi	186a38 <__Vectors_Size+0x186840>
    1a20:	054a1205 	strbeq	r1, [sl, #-517]	; 0xfffffdfb
    1a24:	05bb0620 	ldreq	r0, [fp, #1568]!	; 0x620
    1a28:	054a0611 	strbeq	r0, [sl, #-1553]	; 0xfffff9ef
    1a2c:	1f054a0f 	svcne	0x00054a0f
    1a30:	1005bb06 	andne	fp, r5, r6, lsl #22
    1a34:	0e054a06 	vmlaeq.f32	s8, s10, s12
    1a38:	0622054a 	strteq	r0, [r2], -sl, asr #10
    1a3c:	062a05bb 			; <UNDEFINED> instruction: 0x062a05bb
    1a40:	4a13054a 	bmi	4c2f70 <__Vectors_Size+0x4c2d78>
    1a44:	05661105 	strbeq	r1, [r6, #-261]!	; 0xfffffefb
    1a48:	05a00602 	streq	r0, [r0, #1538]!	; 0x602
    1a4c:	132c023b 			; <UNDEFINED> instruction: 0x132c023b
    1a50:	4a064805 	bmi	193a6c <__Vectors_Size+0x193874>
    1a54:	054a5705 	strbeq	r5, [sl, #-1797]	; 0xfffff8fb
    1a58:	35054a02 	strcc	r4, [r5, #-2562]	; 0xfffff5fe
    1a5c:	132c0206 			; <UNDEFINED> instruction: 0x132c0206
    1a60:	4a063005 	bmi	18da7c <__Vectors_Size+0x18d884>
    1a64:	05ba0205 	ldreq	r0, [sl, #517]!	; 0x205
    1a68:	28020642 	stmdacs	r2, {r1, r6, r9, sl}
    1a6c:	063b0513 			; <UNDEFINED> instruction: 0x063b0513
    1a70:	ba51054a 	blt	1442fa0 <__Vectors_Size+0x1442da8>
    1a74:	054a6205 	strbeq	r6, [sl, #-517]	; 0xfffffdfb
    1a78:	02054a72 	andeq	r4, r5, #466944	; 0x72000
    1a7c:	2802064a 	stmdacs	r2, {r1, r3, r6, r9, sl}
    1a80:	053d0813 	ldreq	r0, [sp, #-2067]!	; 0xfffff7ed
    1a84:	0402bb01 	streq	fp, [r2], #-2817	; 0xfffff4ff
    1a88:	00010100 	andeq	r0, r1, r0, lsl #2
    1a8c:	1f900205 	svcne	0x00900205
    1a90:	b6030800 	strlt	r0, [r3], -r0, lsl #16
    1a94:	09050101 	stmdbeq	r5, {r0, r8}
    1a98:	06054b0a 	streq	r4, [r5], -sl, lsl #22
    1a9c:	059e06bc 	ldreq	r0, [lr, #1724]	; 0x6bc
    1aa0:	054c0607 	strbeq	r0, [ip, #-1543]	; 0xfffff9f9
    1aa4:	0205d715 	andeq	sp, r5, #5505024	; 0x540000
    1aa8:	2f0605bb 	svccs	0x000605bb
    1aac:	07059e06 	streq	r9, [r5, -r6, lsl #28]
    1ab0:	14054c06 	strne	r4, [r5], #-3078	; 0xfffff3fa
    1ab4:	bb0205d7 	bllt	83218 <__Vectors_Size+0x83020>
    1ab8:	06300605 	ldrteq	r0, [r0], -r5, lsl #12
    1abc:	6615059e 			; <UNDEFINED> instruction: 0x6615059e
    1ac0:	05ba1005 	ldreq	r1, [sl, #5]!
    1ac4:	062f0606 	strteq	r0, [pc], -r6, lsl #12
    1ac8:	8215059e 	andshi	r0, r5, #662700032	; 0x27800000
    1acc:	05ba1005 	ldreq	r1, [sl, #5]!
    1ad0:	0530060a 	ldreq	r0, [r0, #-1546]!	; 0xfffff9f6
    1ad4:	039e0602 	orrseq	r0, lr, #2097152	; 0x200000
    1ad8:	05667eb8 	strbeq	r7, [r6, #-3768]!	; 0xfffff148
    1adc:	cb030604 	blgt	c32f4 <__Vectors_Size+0xc30fc>
    1ae0:	7508d601 	strvc	sp, [r8, #-1537]	; 0xfffff9ff
    1ae4:	30750830 	rsbscc	r0, r5, r0, lsr r8
    1ae8:	08307508 	ldmdaeq	r0!, {r3, r8, sl, ip, sp, lr}
    1aec:	304b3075 	subcc	r3, fp, r5, ror r0
    1af0:	054b304b 	strbeq	r3, [fp, #-75]	; 0xffffffb5
    1af4:	04023001 	streq	r3, [r2], #-1
    1af8:	00010100 	andeq	r0, r1, r0, lsl #2
    1afc:	2af00205 	bcs	ffc02318 <__initial_sp+0xdfbde470>
    1b00:	d4030800 	strle	r0, [r3], #-2048	; 0xfffff800
    1b04:	06050100 	streq	r0, [r5], -r0, lsl #2
    1b08:	9e06bb0a 	vmlals.f64	d11, d6, d10
    1b0c:	4c060505 	cfstr32mi	mvfx0, [r6], {5}
    1b10:	2e060a05 	vmlacs.f32	s0, s12, s10
    1b14:	67061305 	strvs	r1, [r6, -r5, lsl #6]
    1b18:	05bb0205 	ldreq	r0, [fp, #517]!	; 0x205
    1b1c:	9e062f06 	cdpls	15, 0, cr2, cr6, cr6, {0}
    1b20:	4c060505 	cfstr32mi	mvfx0, [r6], {5}
    1b24:	2e060a05 	vmlacs.f32	s0, s12, s10
    1b28:	67061605 	strvs	r1, [r6, -r5, lsl #12]
    1b2c:	05bb0205 	ldreq	r0, [fp, #517]!	; 0x205
    1b30:	06053007 	streq	r3, [r5], -r7
    1b34:	0e052e06 	cdpeq	14, 0, cr2, cr5, cr6, {0}
    1b38:	2e06054a 	cfsh32cs	mvfx0, mvfx6, #42
    1b3c:	05661b05 	strbeq	r1, [r6, #-2821]!	; 0xfffff4fb
    1b40:	19052e14 	stmdbne	r5, {r2, r4, r9, sl, fp, sp}
    1b44:	2e13052e 	cfmul64cs	mvdx0, mvdx3, mvdx14
    1b48:	2f060705 	svccs	0x00060705
    1b4c:	2e060605 	cfmadd32cs	mvax0, mvfx0, mvfx6, mvfx5
    1b50:	054a0e05 	strbeq	r0, [sl, #-3589]	; 0xfffff1fb
    1b54:	1b052e06 	blne	14d374 <__Vectors_Size+0x14d17c>
    1b58:	2e140566 	cfmsc32cs	mvfx0, mvfx4, mvfx6
    1b5c:	052e1905 	streq	r1, [lr, #-2309]!	; 0xfffff6fb
    1b60:	3c052e13 	stccc	14, cr2, [r5], {19}
    1b64:	44053006 	strmi	r3, [r5], #-6
    1b68:	43052e06 	movwmi	r2, #24070	; 0x5e06
    1b6c:	4a02052e 	bmi	8302c <__Vectors_Size+0x82e34>
    1b70:	02060105 	andeq	r0, r6, #1073741825	; 0x40000001
    1b74:	04021322 	streq	r1, [r2], #-802	; 0xfffffcde
    1b78:	00010100 	andeq	r0, r1, r0, lsl #2
    1b7c:	2ba00205 	blcs	fe802398 <__initial_sp+0xde7de4f0>
    1b80:	e7030800 	str	r0, [r3, -r0, lsl #16]
    1b84:	18050100 	stmdane	r5, {r8}
    1b88:	24054b0a 	strcs	r4, [r5], #-2826	; 0xfffff4f6
    1b8c:	2c05ba06 			; <UNDEFINED> instruction: 0x2c05ba06
    1b90:	4a2f059e 	bmi	bc3210 <__Vectors_Size+0xbc3018>
    1b94:	c8084605 	stmdagt	r8, {r0, r2, r9, sl, lr}
    1b98:	74084a05 	strvc	r4, [r8], #-2565	; 0xfffff5fb
    1b9c:	ac085b05 			; <UNDEFINED> instruction: 0xac085b05
    1ba0:	74084605 	strvc	r4, [r8], #-1541	; 0xfffff9fb
    1ba4:	4a7f9703 	bmi	1fe77b8 <__Vectors_Size+0x1fe75c0>
    1ba8:	e9031705 	stmdb	r3, {r0, r2, r8, r9, sl, ip}
    1bac:	0a052e00 	beq	14d3b4 <__Vectors_Size+0x14d1bc>
    1bb0:	0606054a 	streq	r0, [r6], -sl, asr #10
    1bb4:	059e064c 	ldreq	r0, [lr, #1612]	; 0x64c
    1bb8:	054c0612 	strbeq	r0, [ip, #-1554]	; 0xfffff9ee
    1bbc:	0205d713 	andeq	sp, r5, #4980736	; 0x4c0000
    1bc0:	2f0605bb 	svccs	0x000605bb
    1bc4:	12059e06 	andne	r9, r5, #6, 28	; 0x60
    1bc8:	16054c06 	strne	r4, [r5], -r6, lsl #24
    1bcc:	bb0205d7 	bllt	83330 <__Vectors_Size+0x83138>
    1bd0:	05300705 	ldreq	r0, [r0, #-1797]!	; 0xfffff8fb
    1bd4:	05ba0619 	ldreq	r0, [sl, #1561]!	; 0x619
    1bd8:	2e05661c 	mcrcs	6, 0, r6, cr5, cr12, {0}
    1bdc:	663105ba 			; <UNDEFINED> instruction: 0x663105ba
    1be0:	05ba4305 	ldreq	r4, [sl, #773]!	; 0x305
    1be4:	5a056646 	bpl	15b504 <__Vectors_Size+0x15b30c>
    1be8:	665e05ba 			; <UNDEFINED> instruction: 0x665e05ba
    1bec:	05ba0605 	ldreq	r0, [sl, #1541]!	; 0x605
    1bf0:	05660184 	strbeq	r0, [r6, #-388]!	; 0xfffffe7c
    1bf4:	0705ba75 	smlsdxeq	r5, r5, sl, fp
    1bf8:	19052f06 	stmdbne	r5, {r1, r2, r8, r9, sl, fp, sp}
    1bfc:	1c05ba06 			; <UNDEFINED> instruction: 0x1c05ba06
    1c00:	ba2e0566 	blt	b831a0 <__Vectors_Size+0xb82fa8>
    1c04:	05663105 	strbeq	r3, [r6, #-261]!	; 0xfffffefb
    1c08:	4605ba43 	strmi	fp, [r5], -r3, asr #20
    1c0c:	ba5a0566 	blt	16831ac <__Vectors_Size+0x1682fb4>
    1c10:	05665e05 	strbeq	r5, [r6, #-3589]!	; 0xfffff1fb
    1c14:	8305ba06 	movwhi	fp, #23046	; 0x5a06
    1c18:	74058201 	strvc	r8, [r5], #-513	; 0xfffffdff
    1c1c:	060705ba 			; <UNDEFINED> instruction: 0x060705ba
    1c20:	0619052f 	ldreq	r0, [r9], -pc, lsr #10
    1c24:	661c05ba 			; <UNDEFINED> instruction: 0x661c05ba
    1c28:	05ba2e05 	ldreq	r2, [sl, #3589]!	; 0xe05
    1c2c:	43056631 	movwmi	r6, #22065	; 0x5631
    1c30:	664605ba 			; <UNDEFINED> instruction: 0x664605ba
    1c34:	05ba5805 	ldreq	r5, [sl, #2053]!	; 0x805
    1c38:	6d05665b 	stcvs	6, cr6, [r5, #-364]	; 0xfffffe94
    1c3c:	667005ba 			; <UNDEFINED> instruction: 0x667005ba
    1c40:	ba018405 	blt	62c5c <__Vectors_Size+0x62a64>
    1c44:	66018805 	strvs	r8, [r1], -r5, lsl #16
    1c48:	05ba0605 	ldreq	r0, [sl, #1541]!	; 0x605
    1c4c:	056601ae 	strbeq	r0, [r6, #-430]!	; 0xfffffe52
    1c50:	05ba019f 	ldreq	r0, [sl, #415]!	; 0x19f
    1c54:	052f0607 	streq	r0, [pc, #-1543]!	; 1655 <__Vectors_Size+0x145d>
    1c58:	05ba0619 	ldreq	r0, [sl, #1561]!	; 0x619
    1c5c:	2e05661c 	mcrcs	6, 0, r6, cr5, cr12, {0}
    1c60:	663105ba 			; <UNDEFINED> instruction: 0x663105ba
    1c64:	05ba4305 	ldreq	r4, [sl, #773]!	; 0x305
    1c68:	58056646 	stmdapl	r5, {r1, r2, r6, r9, sl, sp, lr}
    1c6c:	665b05ba 			; <UNDEFINED> instruction: 0x665b05ba
    1c70:	05ba6d05 	ldreq	r6, [sl, #3333]!	; 0xd05
    1c74:	84056670 	strhi	r6, [r5], #-1648	; 0xfffff990
    1c78:	8805ba01 	stmdahi	r5, {r0, r9, fp, ip, sp, pc}
    1c7c:	06056601 	streq	r6, [r5], -r1, lsl #12
    1c80:	01ad05ba 			; <UNDEFINED> instruction: 0x01ad05ba
    1c84:	019e0582 	orrseq	r0, lr, r2, lsl #11
    1c88:	060705ba 			; <UNDEFINED> instruction: 0x060705ba
    1c8c:	061a052f 	ldreq	r0, [sl], -pc, lsr #10
    1c90:	661e05ba 			; <UNDEFINED> instruction: 0x661e05ba
    1c94:	05ba0605 	ldreq	r0, [sl, #1541]!	; 0x605
    1c98:	35056644 	strcc	r6, [r5, #-1604]	; 0xfffff9bc
    1c9c:	060705ba 			; <UNDEFINED> instruction: 0x060705ba
    1ca0:	061a052f 	ldreq	r0, [sl], -pc, lsr #10
    1ca4:	661e05ba 			; <UNDEFINED> instruction: 0x661e05ba
    1ca8:	05ba0605 	ldreq	r0, [sl, #1541]!	; 0x605
    1cac:	34058243 	strcc	r8, [r5], #-579	; 0xfffffdbd
    1cb0:	060605ba 			; <UNDEFINED> instruction: 0x060605ba
    1cb4:	0618052f 	ldreq	r0, [r8], -pc, lsr #10
    1cb8:	661b05ba 			; <UNDEFINED> instruction: 0x661b05ba
    1cbc:	054a2605 	strbeq	r2, [sl, #-1541]	; 0xfffff9fb
    1cc0:	06054a29 	streq	r4, [r5], -r9, lsr #20
    1cc4:	664f05ba 			; <UNDEFINED> instruction: 0x664f05ba
    1cc8:	05ba3f05 	ldreq	r3, [sl, #3845]!	; 0xf05
    1ccc:	052f0606 	streq	r0, [pc, #-1542]!	; 16ce <__Vectors_Size+0x14d6>
    1cd0:	05ba0618 	ldreq	r0, [sl, #1560]!	; 0x618
    1cd4:	2705661c 	smladcs	r5, ip, r6, r6
    1cd8:	4a2a054a 	bmi	a83208 <__Vectors_Size+0xa83010>
    1cdc:	05ba0605 	ldreq	r0, [sl, #1541]!	; 0x605
    1ce0:	40056650 	andmi	r6, r5, r0, asr r6
    1ce4:	060605ba 			; <UNDEFINED> instruction: 0x060605ba
    1ce8:	0618052f 	ldreq	r0, [r8], -pc, lsr #10
    1cec:	661b05ba 			; <UNDEFINED> instruction: 0x661b05ba
    1cf0:	054a2605 	strbeq	r2, [sl, #-1541]	; 0xfffff9fb
    1cf4:	06054a29 	streq	r4, [r5], -r9, lsr #20
    1cf8:	824e05ba 	subhi	r0, lr, #780140544	; 0x2e800000
    1cfc:	05ba3e05 	ldreq	r3, [sl, #3589]!	; 0xe05
    1d00:	052f0606 	streq	r0, [pc, #-1542]!	; 1702 <__Vectors_Size+0x150a>
    1d04:	05ba0618 	ldreq	r0, [sl, #1560]!	; 0x618
    1d08:	2705661c 	smladcs	r5, ip, r6, r6
    1d0c:	4a2a054a 	bmi	a8323c <__Vectors_Size+0xa83044>
    1d10:	05ba0605 	ldreq	r0, [sl, #1541]!	; 0x605
    1d14:	3f05824f 	svccc	0x0005824f
    1d18:	063d05ba 			; <UNDEFINED> instruction: 0x063d05ba
    1d1c:	06020530 			; <UNDEFINED> instruction: 0x06020530
    1d20:	060105ba 			; <UNDEFINED> instruction: 0x060105ba
    1d24:	0402e508 	streq	lr, [r2], #-1288	; 0xfffffaf8
    1d28:	00010100 	andeq	r0, r1, r0, lsl #2
    1d2c:	2ff80205 	svccs	0x00f80205
    1d30:	84030800 	strhi	r0, [r3], #-2048	; 0xfffff800
    1d34:	18050101 	stmdane	r5, {r0, r8}
    1d38:	24054b0a 	strcs	r4, [r5], #-2826	; 0xfffff4f6
    1d3c:	2c05ba06 			; <UNDEFINED> instruction: 0x2c05ba06
    1d40:	4a2f059e 	bmi	bc33c0 <__Vectors_Size+0xbc31c8>
    1d44:	c8084605 	stmdagt	r8, {r0, r2, r9, sl, lr}
    1d48:	74084a05 	strvc	r4, [r8], #-2565	; 0xfffff5fb
    1d4c:	ac085b05 			; <UNDEFINED> instruction: 0xac085b05
    1d50:	74084605 	strvc	r4, [r8], #-1541	; 0xfffff9fb
    1d54:	4a7efa03 	bmi	1fc0568 <__Vectors_Size+0x1fc0370>
    1d58:	86031705 	strhi	r1, [r3], -r5, lsl #14
    1d5c:	0a052e01 	beq	14d568 <__Vectors_Size+0x14d370>
    1d60:	0606054a 	streq	r0, [r6], -sl, asr #10
    1d64:	059e064c 	ldreq	r0, [lr, #1612]	; 0x64c
    1d68:	054c060f 	strbeq	r0, [ip, #-1551]	; 0xfffff9f1
    1d6c:	0205d713 	andeq	sp, r5, #4980736	; 0x4c0000
    1d70:	2f0605bb 	svccs	0x000605bb
    1d74:	0f059e06 	svceq	0x00059e06
    1d78:	16054c06 	strne	r4, [r5], -r6, lsl #24
    1d7c:	bb0205d7 	bllt	834e0 <__Vectors_Size+0x832e8>
    1d80:	06300605 	ldrteq	r0, [r0], -r5, lsl #12
    1d84:	662305ba 			; <UNDEFINED> instruction: 0x662305ba
    1d88:	05ba1705 	ldreq	r1, [sl, #1797]!	; 0x705
    1d8c:	062f0606 	strteq	r0, [pc], -r6, lsl #12
    1d90:	662205ba 			; <UNDEFINED> instruction: 0x662205ba
    1d94:	05ba1605 	ldreq	r1, [sl, #1541]!	; 0x605
    1d98:	05300607 	ldreq	r0, [r0, #-1543]!	; 0xfffff9f9
    1d9c:	05ba0619 	ldreq	r0, [sl, #1561]!	; 0x619
    1da0:	2e05661c 	mcrcs	6, 0, r6, cr5, cr12, {0}
    1da4:	663105ba 			; <UNDEFINED> instruction: 0x663105ba
    1da8:	05ba4305 	ldreq	r4, [sl, #773]!	; 0x305
    1dac:	5a056646 	bpl	15b6cc <__Vectors_Size+0x15b4d4>
    1db0:	665e05ba 			; <UNDEFINED> instruction: 0x665e05ba
    1db4:	05ba0605 	ldreq	r0, [sl, #1541]!	; 0x605
    1db8:	05660184 	strbeq	r0, [r6, #-388]!	; 0xfffffe7c
    1dbc:	0605ba75 			; <UNDEFINED> instruction: 0x0605ba75
    1dc0:	18053006 	stmdane	r5, {r1, r2, ip, sp}
    1dc4:	1b05ba06 	blne	1705e4 <__Vectors_Size+0x1703ec>
    1dc8:	4a260566 	bmi	983368 <__Vectors_Size+0x983170>
    1dcc:	054a2905 	strbeq	r2, [sl, #-2309]	; 0xfffff6fb
    1dd0:	4f05ba06 	svcmi	0x0005ba06
    1dd4:	ba3f0566 	blt	fc3374 <__Vectors_Size+0xfc317c>
    1dd8:	2f060605 	svccs	0x00060605
    1ddc:	ba061805 	blt	187df8 <__Vectors_Size+0x187c00>
    1de0:	05661c05 	strbeq	r1, [r6, #-3077]!	; 0xfffff3fb
    1de4:	2a054a27 	bcs	154688 <__Vectors_Size+0x154490>
    1de8:	ba06054a 	blt	183318 <__Vectors_Size+0x183120>
    1dec:	05665005 	strbeq	r5, [r6, #-5]!
    1df0:	3f05ba40 	svccc	0x0005ba40
    1df4:	02053006 	andeq	r3, r5, #6
    1df8:	0105ba06 	tsteq	r5, r6, lsl #20
    1dfc:	02e50806 	rsceq	r0, r5, #393216	; 0x60000
    1e00:	01010004 	tsteq	r1, r4
    1e04:	30020500 	andcc	r0, r2, r0, lsl #10
    1e08:	03080032 	movweq	r0, #32818	; 0x8032
    1e0c:	0501019e 	streq	r0, [r1, #-414]	; 0xfffffe62
    1e10:	054b0a18 	strbeq	r0, [fp, #-2584]	; 0xfffff5e8
    1e14:	05ba0624 	ldreq	r0, [sl, #1572]!	; 0x624
    1e18:	2f059e2c 	svccs	0x00059e2c
    1e1c:	0846054a 	stmdaeq	r6, {r1, r3, r6, r8, sl}^
    1e20:	084a05c8 	stmdaeq	sl, {r3, r6, r7, r8, sl}^
    1e24:	085b0574 	ldmdaeq	fp, {r2, r4, r5, r6, r8, sl}^
    1e28:	084605ac 	stmdaeq	r6, {r2, r3, r5, r7, r8, sl}^
    1e2c:	7ee00374 	mcrvc	3, 7, r0, cr0, cr4, {3}
    1e30:	0317054a 	tsteq	r7, #310378496	; 0x12800000
    1e34:	052e01a0 	streq	r0, [lr, #-416]!	; 0xfffffe60
    1e38:	06054a0a 	streq	r4, [r5], -sl, lsl #20
    1e3c:	9e064c06 	cdpls	12, 0, cr4, cr6, cr6, {0}
    1e40:	4c060e05 	stcmi	14, cr0, [r6], {5}
    1e44:	05d71305 	ldrbeq	r1, [r7, #773]	; 0x305
    1e48:	0605bb02 	streq	fp, [r5], -r2, lsl #22
    1e4c:	059e062f 	ldreq	r0, [lr, #1583]	; 0x62f
    1e50:	054c060e 	strbeq	r0, [ip, #-1550]	; 0xfffff9f2
    1e54:	0205d716 	andeq	sp, r5, #5767168	; 0x580000
    1e58:	300605bb 			; <UNDEFINED> instruction: 0x300605bb
    1e5c:	2105ba06 	tstcs	r5, r6, lsl #20
    1e60:	ba160566 	blt	583400 <__Vectors_Size+0x583208>
    1e64:	2f060605 	svccs	0x00060605
    1e68:	2005ba06 	andcs	fp, r5, r6, lsl #20
    1e6c:	ba150582 	blt	54347c <__Vectors_Size+0x543284>
    1e70:	30060605 	andcc	r0, r6, r5, lsl #12
    1e74:	ba061805 	blt	187e90 <__Vectors_Size+0x187c98>
    1e78:	05661b05 	strbeq	r1, [r6, #-2821]!	; 0xfffff4fb
    1e7c:	29054a26 	stmdbcs	r5, {r1, r2, r5, r9, fp, lr}
    1e80:	ba06054a 	blt	1833b0 <__Vectors_Size+0x1831b8>
    1e84:	05664f05 	strbeq	r4, [r6, #-3845]!	; 0xfffff0fb
    1e88:	0605ba3f 			; <UNDEFINED> instruction: 0x0605ba3f
    1e8c:	18052f06 	stmdane	r5, {r1, r2, r8, r9, sl, fp, sp}
    1e90:	1c05ba06 			; <UNDEFINED> instruction: 0x1c05ba06
    1e94:	4a270566 	bmi	9c3434 <__Vectors_Size+0x9c323c>
    1e98:	054a2a05 	strbeq	r2, [sl, #-2565]	; 0xfffff5fb
    1e9c:	5005ba06 	andpl	fp, r5, r6, lsl #20
    1ea0:	ba400566 	blt	1003440 <__Vectors_Size+0x1003248>
    1ea4:	30063e05 	andcc	r3, r6, r5, lsl #28
    1ea8:	ba060205 	blt	1826c4 <__Vectors_Size+0x1824cc>
    1eac:	08060105 	stmdaeq	r6, {r0, r2, r8}
    1eb0:	000402e5 	andeq	r0, r4, r5, ror #5
    1eb4:	02c60101 	sbceq	r0, r6, #1073741824	; 0x40000000
    1eb8:	00040000 	andeq	r0, r4, r0
    1ebc:	000000c9 	andeq	r0, r0, r9, asr #1
    1ec0:	fb010101 	blx	422ce <__Vectors_Size+0x420d6>
    1ec4:	01000d0e 	tsteq	r0, lr, lsl #26
    1ec8:	00010101 	andeq	r0, r1, r1, lsl #2
    1ecc:	00010000 	andeq	r0, r1, r0
    1ed0:	3a440100 	bcc	11022d8 <__Vectors_Size+0x11020e0>
    1ed4:	464f535c 			; <UNDEFINED> instruction: 0x464f535c
    1ed8:	56755c54 			; <UNDEFINED> instruction: 0x56755c54
    1edc:	6f697369 	svcvs	0x00697369
    1ee0:	654b5c6e 	strbvs	r5, [fp, #-3182]	; 0xfffff392
    1ee4:	565f6c69 	ldrbpl	r6, [pc], -r9, ror #24
    1ee8:	52415c35 	subpl	r5, r1, #13568	; 0x3500
    1eec:	52415c4d 	subpl	r5, r1, #19712	; 0x4d00
    1ef0:	414c434d 	cmpmi	ip, sp, asr #6
    1ef4:	425c474e 	subsmi	r4, ip, #20447232	; 0x1380000
    1ef8:	2e5c6e69 	cdpcs	14, 5, cr6, cr12, cr9, {3}
    1efc:	6e695c2e 	cdpvs	12, 6, cr5, cr9, cr14, {1}
    1f00:	64756c63 	ldrbtvs	r6, [r5], #-3171	; 0xfffff39d
    1f04:	3a440065 	bcc	11020a0 <__Vectors_Size+0x1101ea8>
    1f08:	464f532f 	strbmi	r5, [pc], -pc, lsr #6
    1f0c:	56752f54 	uhsaxpl	r2, r5, r4
    1f10:	6f697369 	svcvs	0x00697369
    1f14:	61502f6e 	cmpvs	r0, lr, ror #30
    1f18:	2f736b63 	svccs	0x00736b63
    1f1c:	6c69654b 	cfstr64vs	mvdx6, [r9], #-300	; 0xfffffed4
    1f20:	4d54532f 	ldclmi	3, cr5, [r4, #-188]	; 0xffffff44
    1f24:	37463233 	smlaldxcc	r3, r6, r3, r2
    1f28:	445f7878 	ldrbmi	r7, [pc], #-2168	; 1f30 <__Vectors_Size+0x1d38>
    1f2c:	322f5046 	eorcc	r5, pc, #70	; 0x46
    1f30:	2e35312e 	rsfcssp	f3, f5, #0.5
    1f34:	72442f32 	subvc	r2, r4, #50, 30	; 0xc8
    1f38:	72657669 	rsbvc	r7, r5, #110100480	; 0x6900000
    1f3c:	4d432f73 	stclmi	15, cr2, [r3, #-460]	; 0xfffffe34
    1f40:	2f534953 	svccs	0x00534953
    1f44:	69766544 	ldmdbvs	r6!, {r2, r6, r8, sl, sp, lr}^
    1f48:	532f6563 			; <UNDEFINED> instruction: 0x532f6563
    1f4c:	54532f54 	ldrbpl	r2, [r3], #-3924	; 0xfffff0ac
    1f50:	4632334d 	ldrtmi	r3, [r2], -sp, asr #6
    1f54:	2f787837 	svccs	0x00787837
    1f58:	6c636e49 	stclvs	14, cr6, [r3], #-292	; 0xfffffedc
    1f5c:	00656475 	rsbeq	r6, r5, r5, ror r4
    1f60:	64747300 	ldrbtvs	r7, [r4], #-768	; 0xfffffd00
    1f64:	2e746e69 	cdpcs	14, 7, cr6, cr4, cr9, {3}
    1f68:	00010068 	andeq	r0, r1, r8, rrx
    1f6c:	6d747300 	ldclvs	3, cr7, [r4, #-0]
    1f70:	37663233 			; <UNDEFINED> instruction: 0x37663233
    1f74:	78783736 	ldmdavc	r8!, {r1, r2, r4, r5, r8, r9, sl, ip, sp}^
    1f78:	0200682e 	andeq	r6, r0, #3014656	; 0x2e0000
    1f7c:	70670000 	rsbvc	r0, r7, r0
    1f80:	632e6f69 			; <UNDEFINED> instruction: 0x632e6f69
    1f84:	00000000 	andeq	r0, r0, r0
    1f88:	00030400 	andeq	r0, r3, r0, lsl #8
    1f8c:	1b280205 	blne	a027a8 <__Vectors_Size+0xa025b0>
    1f90:	05150800 	ldreq	r0, [r5, #-2048]	; 0xfffff800
    1f94:	06bc0a09 	ldrteq	r0, [ip], r9, lsl #20
    1f98:	667a0382 	ldrbtvs	r0, [sl], -r2, lsl #7
    1f9c:	05882505 	streq	r2, [r8, #1285]	; 0x505
    1fa0:	0e058218 	mcreq	2, 0, r8, cr5, cr8, {0}
    1fa4:	9e062f06 	cdpls	15, 0, cr2, cr6, cr6, {0}
    1fa8:	05667903 	strbeq	r7, [r6, #-2307]!	; 0xfffff6fd
    1fac:	1d05892a 	vstrne.16	s16, [r5, #-84]	; 0xffffffac	; <UNPREDICTABLE>
    1fb0:	060e0582 	streq	r0, [lr], -r2, lsl #11
    1fb4:	039e062f 	orrseq	r0, lr, #49283072	; 0x2f00000
    1fb8:	2a056678 	bcs	15b9a0 <__Vectors_Size+0x15b7a8>
    1fbc:	821d058a 	andshi	r0, sp, #578813952	; 0x22800000
    1fc0:	2f060e05 	svccs	0x00060e05
    1fc4:	77039e06 	strvc	r9, [r3, -r6, lsl #28]
    1fc8:	032a0566 			; <UNDEFINED> instruction: 0x032a0566
    1fcc:	1d058209 	sfmne	f0, 1, [r5, #-36]	; 0xffffffdc
    1fd0:	060e0582 	streq	r0, [lr], -r2, lsl #11
    1fd4:	039e062f 	orrseq	r0, lr, #49283072	; 0x2f00000
    1fd8:	2a056676 	bcs	15b9b8 <__Vectors_Size+0x15b7c0>
    1fdc:	05820a03 	streq	r0, [r2, #2563]	; 0xa03
    1fe0:	0e05821d 	mcreq	2, 0, r8, cr5, cr13, {0}
    1fe4:	9e062f06 	cdpls	15, 0, cr2, cr6, cr6, {0}
    1fe8:	05667503 	strbeq	r7, [r6, #-1283]!	; 0xfffffafd
    1fec:	820b032a 	andhi	r0, fp, #-1476395008	; 0xa8000000
    1ff0:	05821d05 	streq	r1, [r2, #3333]	; 0xd05
    1ff4:	062f060e 	strteq	r0, [pc], -lr, lsl #12
    1ff8:	6674039e 			; <UNDEFINED> instruction: 0x6674039e
    1ffc:	0c032a05 			; <UNDEFINED> instruction: 0x0c032a05
    2000:	821d0582 	andshi	r0, sp, #545259520	; 0x20800000
    2004:	2f060e05 	svccs	0x00060e05
    2008:	73039e06 	movwvc	r9, #15878	; 0x3e06
    200c:	032a0566 			; <UNDEFINED> instruction: 0x032a0566
    2010:	1d05820d 	sfmne	f0, 1, [r5, #-52]	; 0xffffffcc
    2014:	060e0582 	streq	r0, [lr], -r2, lsl #11
    2018:	039e062f 	orrseq	r0, lr, #49283072	; 0x2f00000
    201c:	2a056672 	bcs	15b9ec <__Vectors_Size+0x15b7f4>
    2020:	05820e03 	streq	r0, [r2, #3587]	; 0xe03
    2024:	0c05821d 	sfmeq	f0, 1, [r5], {29}
    2028:	9e062f06 	cdpls	15, 0, cr2, cr6, cr6, {0}
    202c:	05667103 	strbeq	r7, [r6, #-259]!	; 0xfffffefd
    2030:	820f0328 	andhi	r0, pc, #40, 6	; 0xa0000000
    2034:	05821b05 	streq	r1, [r2, #2821]	; 0xb05
    2038:	062f060a 	strteq	r0, [pc], -sl, lsl #12
    203c:	052e7003 	streq	r7, [lr, #-3]!
    2040:	12030609 	andne	r0, r3, #9437184	; 0x900000
    2044:	4a062008 	bmi	18a06c <__Vectors_Size+0x189e74>
    2048:	05661305 	strbeq	r1, [r6, #-773]!	; 0xfffffcfb
    204c:	06310609 	ldrteq	r0, [r1], -r9, lsl #12
    2050:	0625054a 	strteq	r0, [r5], -sl, asr #10
    2054:	0623054c 	strteq	r0, [r3], -ip, asr #10
    2058:	4a1d054a 	bmi	743588 <__Vectors_Size+0x743390>
    205c:	054a0905 	strbeq	r0, [sl, #-2309]	; 0xfffff6fb
    2060:	05052e15 	streq	r2, [r5, #-3605]	; 0xfffff1eb
    2064:	0e056706 	cdpeq	7, 0, cr6, cr5, cr6, {0}
    2068:	054a062f 	strbeq	r0, [sl, #-1583]	; 0xfffff9d1
    206c:	05680625 	strbeq	r0, [r8, #-1573]!	; 0xfffff9db
    2070:	054a0623 	strbeq	r0, [sl, #-1571]	; 0xfffff9dd
    2074:	09054a1d 	stmdbeq	r5, {r0, r2, r3, r4, r9, fp, lr}
    2078:	2e15054a 	cfmac32cs	mvfx0, mvfx5, mvfx10
    207c:	67062405 	strvs	r2, [r6, -r5, lsl #8]
    2080:	4a062205 	bmi	18a89c <__Vectors_Size+0x18a6a4>
    2084:	054a1c05 	strbeq	r1, [sl, #-3077]	; 0xfffff3fb
    2088:	15054a09 	strne	r4, [r5, #-2569]	; 0xfffff5f7
    208c:	0605052e 	streq	r0, [r5], -lr, lsr #10
    2090:	2f0a0567 	svccs	0x000a0567
    2094:	2e620306 	cdpcs	3, 6, cr0, cr2, cr6, {0}
    2098:	03060105 	movweq	r0, #24837	; 0x6105
    209c:	04022e1f 	streq	r2, [r2], #-3615	; 0xfffff1e1
    20a0:	04010100 	streq	r0, [r1], #-256	; 0xffffff00
    20a4:	02050003 	andeq	r0, r5, #3
    20a8:	08001ae0 	stmdaeq	r0, {r5, r6, r7, r9, fp, ip}
    20ac:	05012103 	streq	r2, [r1, #-259]	; 0xfffffefd
    20b0:	06bb0a09 	ldrteq	r0, [fp], r9, lsl #20
    20b4:	6628054a 	strtvs	r0, [r8], -sl, asr #10
    20b8:	05662505 	strbeq	r2, [r6, #-1285]!	; 0xfffffafb
    20bc:	20052e15 	andcs	r2, r5, r5, lsl lr
    20c0:	2e15052e 	cfmul64cs	mvdx0, mvdx5, mvdx14
    20c4:	2f060e05 	svccs	0x00060e05
    20c8:	2e054a06 	vmlacs.f32	s8, s10, s12
    20cc:	4a32054a 	bmi	c835fc <__Vectors_Size+0xc83404>
    20d0:	05662a05 	strbeq	r2, [r6, #-2565]!	; 0xfffff5fb
    20d4:	25052e1a 	strcs	r2, [r5, #-3610]	; 0xfffff1e6
    20d8:	2e1a052e 	cfmul64cs	mvdx0, mvdx10, mvdx14
    20dc:	052e5c03 	streq	r5, [lr, #-3075]!	; 0xfffff3fd
    20e0:	25030601 	strcs	r0, [r3, #-1537]	; 0xfffff9ff
    20e4:	0004022e 	andeq	r0, r4, lr, lsr #4
    20e8:	03040101 	movweq	r0, #16641	; 0x4101
    20ec:	00020500 	andeq	r0, r2, r0, lsl #10
    20f0:	03000000 	movweq	r0, #0
    20f4:	09050127 	stmdbeq	r5, {r0, r1, r2, r5, r8}
    20f8:	0f05830a 	svceq	0x0005830a
    20fc:	1c052e06 	stcne	14, cr2, [r5], {6}
    2100:	4a09052e 	bmi	2435c0 <__Vectors_Size+0x2433c8>
    2104:	05825703 	streq	r5, [r2, #1795]	; 0x703
    2108:	2e290322 	cdpcs	3, 2, cr0, cr9, cr2, {1}
    210c:	05665703 	strbeq	r5, [r6, #-1795]!	; 0xfffff8fd
    2110:	2a03060a 	bcs	c3940 <__Vectors_Size+0xc3748>
    2114:	6701052e 	strvs	r0, [r1, -lr, lsr #10]
    2118:	01000802 	tsteq	r0, r2, lsl #16
    211c:	00030401 	andeq	r0, r3, r1, lsl #8
    2120:	00000205 	andeq	r0, r0, r5, lsl #4
    2124:	2d030000 	stccs	0, cr0, [r3, #-0]
    2128:	0a210501 	beq	843534 <__Vectors_Size+0x84333c>
    212c:	061f0584 	ldreq	r0, [pc], -r4, lsl #11
    2130:	4a19054a 	bmi	643660 <__Vectors_Size+0x643468>
    2134:	054a0505 	strbeq	r0, [sl, #-1285]	; 0xfffffafb
    2138:	12052e11 	andne	r2, r5, #272	; 0x110
    213c:	10056906 	andne	r6, r5, r6, lsl #18
    2140:	0f05ba06 	svceq	0x0005ba06
    2144:	05059f06 	streq	r9, [r5, #-3846]	; 0xfffff0fa
    2148:	49030685 	stmdbmi	r3, {r0, r2, r7, r9, sl}
    214c:	0314052e 	tsteq	r4, #192937984	; 0xb800000
    2150:	05058237 	streq	r8, [r5, #-567]	; 0xfffffdc9
    2154:	9e49032e 	cdpls	3, 4, cr0, cr9, cr14, {1}
    2158:	03062205 	movweq	r2, #25093	; 0x6205
    215c:	0e05823a 	mcreq	2, 0, r8, cr5, cr10, {1}
    2160:	22052e06 	andcs	r2, r5, #6, 28	; 0x60
    2164:	20054d06 	andcs	r4, r5, r6, lsl #26
    2168:	1a054a06 	bne	154988 <__Vectors_Size+0x154790>
    216c:	4a05054a 	bmi	14369c <__Vectors_Size+0x1434a4>
    2170:	052e1105 	streq	r1, [lr, #-261]!	; 0xfffffefb
    2174:	0568060c 	strbeq	r0, [r8, #-1548]!	; 0xfffff9f4
    2178:	024a0605 	subeq	r0, sl, #5242880	; 0x500000
    217c:	01010004 	tsteq	r1, r4

Disassembly of section .debug_ranges:

00000000 <.debug_ranges>:
TIM_WaitMicros():
D:\#Documents\UVISION\SMART_WAKE_UP/tim.c:4
   0:	08002830 	stmdaeq	r0, {r4, r5, fp, sp}
   4:	08002842 	stmdaeq	r0, {r1, r6, fp, sp}
	...
D:\#Documents\UVISION\SMART_WAKE_UP/tim.c:5
  18:	080014c8 	stmdaeq	r0, {r3, r6, r7, sl, ip}
D:\#Documents\UVISION\SMART_WAKE_UP/tim.c:6
  1c:	080014e8 	stmdaeq	r0, {r3, r5, r6, r7, sl, ip}
  20:	080014e8 	stmdaeq	r0, {r3, r5, r6, r7, sl, ip}
  24:	080015fa 	stmdaeq	r0, {r1, r3, r4, r5, r6, r7, r8, sl, ip}
D:\#Documents\UVISION\SMART_WAKE_UP/tim.c:8
  28:	08001600 	stmdaeq	r0, {r9, sl, ip}
  2c:	08001648 	stmdaeq	r0, {r3, r6, r9, sl, ip}
  30:	08001668 	stmdaeq	r0, {r3, r5, r6, r9, sl, ip}
  34:	080016c2 	stmdaeq	r0, {r1, r6, r7, r9, sl, ip}
D:\#Documents\UVISION\SMART_WAKE_UP/tim.c:52
  38:	080019f0 	stmdaeq	r0, {r4, r5, r6, r7, r8, fp, ip}
  3c:	08001a2c 	stmdaeq	r0, {r2, r3, r5, r9, fp, ip}
D:\#Documents\UVISION\SMART_WAKE_UP/tim.c:8
  40:	08001a30 	stmdaeq	r0, {r4, r5, r9, fp, ip}
  44:	08001a6c 	stmdaeq	r0, {r2, r3, r5, r6, r9, fp, ip}
  48:	08001aa8 	stmdaeq	r0, {r3, r5, r7, r9, fp, ip}
  4c:	08001ada 	stmdaeq	r0, {r1, r3, r4, r6, r7, r9, fp, ip}
  50:	08001a70 	stmdaeq	r0, {r4, r5, r6, r9, fp, ip}
  54:	08001aa2 	stmdaeq	r0, {r1, r5, r7, r9, fp, ip}
D:\#Documents\UVISION\SMART_WAKE_UP/tim.c:58
  58:	08001648 	stmdaeq	r0, {r3, r6, r9, sl, ip}
  5c:	08001662 	stmdaeq	r0, {r1, r5, r6, r9, sl, ip}
D:\#Documents\UVISION\SMART_WAKE_UP/tim.c:9
  60:	08002848 	stmdaeq	r0, {r3, r6, fp, sp}
D:\#Documents\UVISION\SMART_WAKE_UP/tim.c:10
  64:	08002912 	stmdaeq	r0, {r1, r4, r8, fp, sp}
GPIO_AnalogRead():
D:\#Documents\UVISION\SMART_WAKE_UP/gpio.c:61
  68:	08002aa8 	stmdaeq	r0, {r3, r5, r7, r9, fp, sp}
  6c:	08002aea 	stmdaeq	r0, {r1, r3, r5, r6, r7, r9, fp, sp}
  70:	08002a78 	stmdaeq	r0, {r3, r4, r5, r6, r9, fp, sp}
D:\#Documents\UVISION\SMART_WAKE_UP/gpio.c:63
  74:	08002aa8 	stmdaeq	r0, {r3, r5, r7, r9, fp, sp}
	...
URM37_Init():
D:\#Documents\UVISION\SMART_WAKE_UP/urm37.c:126
  80:	08002530 	stmdaeq	r0, {r4, r5, r8, sl, sp}
  84:	08002594 	stmdaeq	r0, {r2, r4, r7, r8, sl, sp}
  88:	08002598 	stmdaeq	r0, {r3, r4, r7, r8, sl, sp}
  8c:	080025ca 	stmdaeq	r0, {r1, r3, r6, r7, r8, sl, sp}
  90:	080025d0 	stmdaeq	r0, {r4, r6, r7, r8, sl, sp}
  94:	08002606 	stmdaeq	r0, {r1, r2, r9, sl, sp}
  98:	08002628 	stmdaeq	r0, {r3, r5, r9, sl, sp}
D:\#Documents\UVISION\SMART_WAKE_UP/urm37.c:128
  9c:	080026d6 	stmdaeq	r0, {r1, r2, r4, r6, r7, r9, sl, sp}
D:\#Documents\UVISION\SMART_WAKE_UP/urm37.c:129
  a0:	08002340 	stmdaeq	r0, {r6, r8, r9, sp}
  a4:	08002462 	stmdaeq	r0, {r1, r5, r6, sl, sp}
  a8:	08002100 	stmdaeq	r0, {r8, sp}
  ac:	0800220e 	stmdaeq	r0, {r1, r2, r3, r9, sp}
  b0:	08002210 	stmdaeq	r0, {r4, r9, sp}
  b4:	08002340 	stmdaeq	r0, {r6, r8, r9, sp}
	...
SystemCoreClockUpdate():
D:\#Documents\UVISION\SMART_WAKE_UP/RTE/Device/STM32F767ZITx/system_stm32f7xx.c:235
  d8:	080020d0 	stmdaeq	r0, {r4, r6, r7, sp}
  dc:	080020fe 	stmdaeq	r0, {r1, r2, r3, r4, r5, r6, r7, sp}
  e0:	08002468 	stmdaeq	r0, {r3, r5, r6, sl, sp}
  e4:	080024f2 	stmdaeq	r0, {r1, r4, r5, r6, r7, sl, sp}
  e8:	080026d8 	stmdaeq	r0, {r3, r4, r6, r7, r9, sl, sp}
D:\#Documents\UVISION\SMART_WAKE_UP/RTE/Device/STM32F767ZITx/system_stm32f7xx.c:238
  ec:	080027be 	stmdaeq	r0, {r1, r2, r3, r4, r5, r7, r8, r9, sl, sp}
  f0:	080024f8 	stmdaeq	r0, {r3, r4, r5, r6, r7, sl, sp}
  f4:	0800252c 	stmdaeq	r0, {r2, r3, r5, r8, sl, sp}
  f8:	08002608 	stmdaeq	r0, {r3, r9, sl, sp}
  fc:	08002628 	stmdaeq	r0, {r3, r5, r9, sl, sp}
D:\#Documents\UVISION\SMART_WAKE_UP/RTE/Device/STM32F767ZITx/system_stm32f7xx.c:456
 100:	080027c0 	stmdaeq	r0, {r6, r7, r8, r9, sl, sp}
D:\#Documents\UVISION\SMART_WAKE_UP/RTE/Device/STM32F767ZITx/system_stm32f7xx.c:457
 104:	0800282e 	stmdaeq	r0, {r1, r2, r3, r5, fp, sp}
	...
D:\#Documents\UVISION\SMART_WAKE_UP/RTE/Device/STM32F767ZITx/system_stm32f7xx.c:243
 110:	08001708 	stmdaeq	r0, {r3, r8, r9, sl, ip}
 114:	08001798 	stmdaeq	r0, {r3, r4, r7, r8, r9, sl, ip}
 118:	080016c8 	stmdaeq	r0, {r3, r6, r7, r9, sl, ip}
D:\#Documents\UVISION\SMART_WAKE_UP/RTE/Device/STM32F767ZITx/system_stm32f7xx.c:245
 11c:	080016e0 	stmdaeq	r0, {r5, r6, r7, r9, sl, ip}
 120:	080016e0 	stmdaeq	r0, {r5, r6, r7, r9, sl, ip}
 124:	08001704 	stmdaeq	r0, {r2, r8, r9, sl, ip}
 128:	08001798 	stmdaeq	r0, {r3, r4, r7, r8, r9, sl, ip}
D:\#Documents\UVISION\SMART_WAKE_UP/RTE/Device/STM32F767ZITx/system_stm32f7xx.c:246
 12c:	08001920 	stmdaeq	r0, {r5, r8, fp, ip}
SH1106_DrawCircle():
D:\#Documents\UVISION\SMART_WAKE_UP/sh1106.c:461
 130:	08001920 	stmdaeq	r0, {r5, r8, fp, ip}
 134:	080019f0 	stmdaeq	r0, {r4, r5, r6, r7, r8, fp, ip}
	...
D:\#Documents\UVISION\SMART_WAKE_UP/sh1106.c:462
 160:	08002980 	stmdaeq	r0, {r7, r8, fp, sp}
 164:	08002a72 	stmdaeq	r0, {r1, r4, r5, r6, r9, fp, sp}
	...
D:\#Documents\UVISION\SMART_WAKE_UP/sh1106.c:464
 188:	08002918 	stmdaeq	r0, {r3, r4, r8, fp, sp}
 18c:	08002980 	stmdaeq	r0, {r7, r8, fp, sp}
	...
 198:	08003400 	stmdaeq	r0, {sl, ip, sp}
 19c:	0800348e 	stmdaeq	r0, {r1, r2, r3, r7, sl, ip, sp}
D:\#Documents\UVISION\SMART_WAKE_UP/sh1106.c:465
 1a0:	08001ed0 	stmdaeq	r0, {r4, r6, r7, r9, sl, fp, ip}
SH1106_DrawFilledCircle():
D:\#Documents\UVISION\SMART_WAKE_UP/sh1106.c:465
 1a4:	08001f90 	stmdaeq	r0, {r4, r7, r8, r9, sl, fp, ip}
 1a8:	08001d00 	stmdaeq	r0, {r8, sl, fp, ip}
 1ac:	08001eca 	stmdaeq	r0, {r1, r3, r6, r7, r9, sl, fp, ip}
 1b0:	08001f90 	stmdaeq	r0, {r4, r7, r8, r9, sl, fp, ip}
 1b4:	080020ce 	stmdaeq	r0, {r1, r2, r3, r6, r7, sp}
 1b8:	08002af0 	stmdaeq	r0, {r4, r5, r6, r7, r9, fp, sp}
 1bc:	08002b9e 	stmdaeq	r0, {r1, r2, r3, r4, r7, r8, r9, fp, sp}
 1c0:	08002ba0 	stmdaeq	r0, {r5, r7, r8, r9, fp, sp}
 1c4:	08002ff8 	stmdaeq	r0, {r3, r4, r5, r6, r7, r8, r9, sl, fp, sp}
D:\#Documents\UVISION\SMART_WAKE_UP/sh1106.c:449
 1c8:	08002ff8 	stmdaeq	r0, {r3, r4, r5, r6, r7, r8, r9, sl, fp, sp}
D:\#Documents\UVISION\SMART_WAKE_UP/sh1106.c:467
 1cc:	0800322e 	stmdaeq	r0, {r1, r2, r3, r5, r9, ip, sp}
 1d0:	08003230 	stmdaeq	r0, {r4, r5, r9, ip, sp}
 1d4:	08003400 	stmdaeq	r0, {sl, ip, sp}
	...
 1e0:	08001b28 	stmdaeq	r0, {r3, r5, r8, r9, fp, ip}
 1e4:	08001d00 	stmdaeq	r0, {r8, sl, fp, ip}
 1e8:	08001ae0 	stmdaeq	r0, {r5, r6, r7, r9, fp, ip}
 1ec:	08001b24 	stmdaeq	r0, {r2, r5, r8, r9, fp, ip}
	...

Disassembly of section .debug_str:

00000000 <.debug_str>:
TIM_WaitMicros():
D:\#Documents\UVISION\SMART_WAKE_UP/tim.c:4
       0:	706d6f43 	rsbvc	r6, sp, r3, asr #30
       4:	6e656e6f 	cdpvs	14, 6, cr6, cr5, cr15, {3}
       8:	41203a74 			; <UNDEFINED> instruction: 0x41203a74
       c:	43206d72 			; <UNDEFINED> instruction: 0x43206d72
D:\#Documents\UVISION\SMART_WAKE_UP/tim.c:5
      10:	69706d6f 	ldmdbvs	r0!, {r0, r1, r2, r3, r5, r6, r8, sl, fp, sp, lr}^
      14:	2072656c 	rsbscs	r6, r2, ip, ror #10
      18:	20726f66 	rsbscs	r6, r2, r6, ror #30
D:\#Documents\UVISION\SMART_WAKE_UP/tim.c:6
      1c:	65626d45 	strbvs	r6, [r2, #-3397]!	; 0xfffff2bb
      20:	64656464 	strbtvs	r6, [r5], #-1124	; 0xfffffb9c
      24:	312e3620 			; <UNDEFINED> instruction: 0x312e3620
D:\#Documents\UVISION\SMART_WAKE_UP/tim.c:8
      28:	6f542039 	svcvs	0x00542039
      2c:	203a6c6f 	eorscs	r6, sl, pc, ror #24
      30:	636d7261 	cmnvs	sp, #268435462	; 0x10000006
      34:	676e616c 	strbvs	r6, [lr, -ip, ror #2]!
D:\#Documents\UVISION\SMART_WAKE_UP/tim.c:52
      38:	65355b20 	ldrvs	r5, [r5, #-2848]!	; 0xfffff4e0
      3c:	62633337 	rsbvs	r3, r3, #-603979776	; 0xdc000000
D:\#Documents\UVISION\SMART_WAKE_UP/tim.c:8
      40:	005d3030 	subseq	r3, sp, r0, lsr r0
      44:	2f455452 	svccs	0x00455452
      48:	69766544 	ldmdbvs	r6!, {r2, r6, r8, sl, sp, lr}^
      4c:	532f6563 			; <UNDEFINED> instruction: 0x532f6563
      50:	32334d54 	eorscc	r4, r3, #84, 26	; 0x1500
      54:	37363746 	ldrcc	r3, [r6, -r6, asr #14]!
D:\#Documents\UVISION\SMART_WAKE_UP/tim.c:58
      58:	7854495a 	ldmdavc	r4, {r1, r3, r4, r6, r8, fp, lr}^
      5c:	7379735c 	cmnvc	r9, #92, 6	; 0x70000001
D:\#Documents\UVISION\SMART_WAKE_UP/tim.c:9
      60:	5f6d6574 	svcpl	0x006d6574
D:\#Documents\UVISION\SMART_WAKE_UP/tim.c:10
      64:	336d7473 	cmncc	sp, #1929379840	; 0x73000000
GPIO_AnalogRead():
D:\#Documents\UVISION\SMART_WAKE_UP/gpio.c:61
      68:	78376632 	ldmdavc	r7!, {r1, r4, r5, r9, sl, sp, lr}
      6c:	00632e78 	rsbeq	r2, r3, r8, ror lr
      70:	235c3a44 	cmpcs	ip, #68, 20	; 0x44000
D:\#Documents\UVISION\SMART_WAKE_UP/gpio.c:63
      74:	75636f44 	strbvc	r6, [r3, #-3908]!	; 0xfffff0bc
      78:	746e656d 	strbtvc	r6, [lr], #-1389	; 0xfffffa93
URM37_Init():
D:\#Documents\UVISION\SMART_WAKE_UP/urm37.c:125
      7c:	56555c73 			; <UNDEFINED> instruction: 0x56555c73
D:\#Documents\UVISION\SMART_WAKE_UP/urm37.c:126
      80:	4f495349 	svcmi	0x00495349
      84:	4d535c4e 	ldclmi	12, cr5, [r3, #-312]	; 0xfffffec8
      88:	5f545241 	svcpl	0x00545241
      8c:	454b4157 	strbmi	r4, [fp, #-343]	; 0xfffffea9
      90:	0050555f 	subseq	r5, r0, pc, asr r5
      94:	74737953 	ldrbtvc	r7, [r3], #-2387	; 0xfffff6ad
      98:	6f436d65 	svcvs	0x00436d65
D:\#Documents\UVISION\SMART_WAKE_UP/urm37.c:128
      9c:	6c436572 	cfstr64vs	mvdx6, [r3], {114}	; 0x72
D:\#Documents\UVISION\SMART_WAKE_UP/urm37.c:129
      a0:	006b636f 	rsbeq	r6, fp, pc, ror #6
      a4:	69736e75 	ldmdbvs	r3!, {r0, r2, r4, r5, r6, r9, sl, fp, sp, lr}^
      a8:	64656e67 	strbtvs	r6, [r5], #-3687	; 0xfffff199
      ac:	746e6920 	strbtvc	r6, [lr], #-2336	; 0xfffff6e0
      b0:	6e697500 	cdpvs	5, 6, cr7, cr9, cr0, {0}
      b4:	5f323374 	svcpl	0x00323374
      b8:	48410074 	stmdami	r1, {r2, r4, r5, r6}^
URM37_GetTemperature():
      bc:	65725042 	ldrbvs	r5, [r2, #-66]!	; 0xffffffbe
SystemCoreClockUpdate():
D:\#Documents\UVISION\SMART_WAKE_UP/RTE/Device/STM32F767ZITx/system_stm32f7xx.c:231
      c0:	61546373 	cmpvs	r4, r3, ror r3
D:\#Documents\UVISION\SMART_WAKE_UP/RTE/Device/STM32F767ZITx/system_stm32f7xx.c:449
      c4:	00656c62 	rsbeq	r6, r5, r2, ror #24
      c8:	69736e75 	ldmdbvs	r3!, {r0, r2, r4, r5, r6, r9, sl, fp, sp, lr}^
D:\#Documents\UVISION\SMART_WAKE_UP/RTE/Device/STM32F767ZITx/system_stm32f7xx.c:234
      cc:	64656e67 	strbtvs	r6, [r5], #-3687	; 0xfffff199
      d0:	61686320 	cmnvs	r8, r0, lsr #6
      d4:	69750072 	ldmdbvs	r5!, {r1, r4, r5, r6}^
D:\#Documents\UVISION\SMART_WAKE_UP/RTE/Device/STM32F767ZITx/system_stm32f7xx.c:235
      d8:	5f38746e 	svcpl	0x0038746e
      dc:	5f5f0074 	svcpl	0x005f0074
      e0:	41525241 	cmpmi	r2, r1, asr #4
      e4:	49535f59 	ldmdbmi	r3, {r0, r3, r4, r6, r8, r9, sl, fp, ip, lr}^
      e8:	545f455a 	ldrbpl	r4, [pc], #-1370	; f0 <BuildAttributes$$THM_ISAv4$E$P$D$K$B$S$7EM$VFPv5_D16$PE$PLD8$A:L22UL41UL21$X:L11$S22US41US21$IEEE1$IW$~IW$USESV6$~STKCKD$USESV7$~SHL$OTIME$ROPI$IEEEJ$EBA8$UX$STANDARDLIB$REQ8$PRES8$EABIv2+0xf0>
D:\#Documents\UVISION\SMART_WAKE_UP/RTE/Device/STM32F767ZITx/system_stm32f7xx.c:238
      ec:	5f455059 	svcpl	0x00455059
      f0:	5041005f 	subpl	r0, r1, pc, asr r0
      f4:	65725042 	ldrbvs	r5, [r2, #-66]!	; 0xffffffbe
      f8:	61546373 	cmpvs	r4, r3, ror r3
      fc:	00656c62 	rsbeq	r6, r5, r2, ror #24
D:\#Documents\UVISION\SMART_WAKE_UP/RTE/Device/STM32F767ZITx/system_stm32f7xx.c:456
     100:	49555043 	ldmdbmi	r5, {r0, r1, r6, ip, lr}^
D:\#Documents\UVISION\SMART_WAKE_UP/RTE/Device/STM32F767ZITx/system_stm32f7xx.c:457
     104:	43490044 	movtmi	r0, #36932	; 0x9044
D:\#Documents\UVISION\SMART_WAKE_UP/RTE/Device/STM32F767ZITx/system_stm32f7xx.c:243
     108:	56005253 			; <UNDEFINED> instruction: 0x56005253
     10c:	00524f54 	subseq	r4, r2, r4, asr pc
     110:	43524941 	cmpmi	r2, #1064960	; 0x104000
     114:	43530052 	cmpmi	r3, #82	; 0x52
     118:	43430052 	movtmi	r0, #12370	; 0x3052
D:\#Documents\UVISION\SMART_WAKE_UP/RTE/Device/STM32F767ZITx/system_stm32f7xx.c:245
     11c:	48530052 	ldmdami	r3, {r1, r4, r6}^
     120:	53005250 	movwpl	r5, #592	; 0x250
     124:	52534348 	subspl	r4, r3, #72, 6	; 0x20000001
     128:	53464300 	movtpl	r4, #25344	; 0x6300
D:\#Documents\UVISION\SMART_WAKE_UP/RTE/Device/STM32F767ZITx/system_stm32f7xx.c:246
     12c:	46480052 			; <UNDEFINED> instruction: 0x46480052
SH1106_DrawCircle():
D:\#Documents\UVISION\SMART_WAKE_UP/sh1106.c:461
     130:	44005253 	strmi	r5, [r0], #-595	; 0xfffffdad
     134:	00525346 	subseq	r5, r2, r6, asr #6
     138:	41464d4d 	cmpmi	r6, sp, asr #26
     13c:	46420052 			; <UNDEFINED> instruction: 0x46420052
     140:	41005241 	tstmi	r0, r1, asr #4
     144:	00525346 	subseq	r5, r2, r6, asr #6
     148:	505f4449 	subspl	r4, pc, r9, asr #8
     14c:	49005246 	stmdbmi	r0, {r1, r2, r6, r9, ip, lr}
D:\#Documents\UVISION\SMART_WAKE_UP/sh1106.c:462
     150:	46445f44 	strbmi	r5, [r4], -r4, asr #30
     154:	44490052 	strbmi	r0, [r9], #-82	; 0xffffffae
     158:	5246415f 	subpl	r4, r6, #-1073741801	; 0xc0000017
     15c:	5f444900 	svcpl	0x00444900
     160:	0052464d 	subseq	r4, r2, sp, asr #12
     164:	495f4449 	ldmdbmi	pc, {r0, r3, r6, sl, lr}^	; <UNPREDICTABLE>
     168:	00524153 	subseq	r4, r2, r3, asr r1
     16c:	45534552 	ldrbmi	r4, [r3, #-1362]	; 0xfffffaae
     170:	44455652 	strbmi	r5, [r5], #-1618	; 0xfffff9ae
     174:	4c430030 	mcrrmi	0, 3, r0, r3, cr0
D:\#Documents\UVISION\SMART_WAKE_UP/sh1106.c:464
     178:	00524449 	subseq	r4, r2, r9, asr #8
     17c:	00525443 	subseq	r5, r2, r3, asr #8
     180:	49534343 	ldmdbmi	r3, {r0, r1, r6, r8, r9, lr}^
     184:	43005244 	movwmi	r5, #580	; 0x244
     188:	4c455353 	mcrrmi	3, 5, r5, r5, cr3
     18c:	50430052 	subpl	r0, r3, r2, asr r0
     190:	00524341 	subseq	r4, r2, r1, asr #6
     194:	45534552 	ldrbmi	r4, [r3, #-1362]	; 0xfffffaae
     198:	44455652 	strbmi	r5, [r5], #-1618	; 0xfffff9ae
     19c:	54530033 	ldrbpl	r0, [r3], #-51	; 0xffffffcd
D:\#Documents\UVISION\SMART_WAKE_UP/sh1106.c:465
     1a0:	52005249 	andpl	r5, r0, #-1879048188	; 0x90000004
SH1106_DrawFilledCircle():
D:\#Documents\UVISION\SMART_WAKE_UP/sh1106.c:465
     1a4:	52455345 	subpl	r5, r5, #335544321	; 0x14000001
     1a8:	34444556 	strbcc	r4, [r4], #-1366	; 0xfffffaaa
     1ac:	46564d00 	ldrbmi	r4, [r6], -r0, lsl #26
     1b0:	4d003052 	stcmi	0, cr3, [r0, #-328]	; 0xfffffeb8
     1b4:	31524656 	cmpcc	r2, r6, asr r6
     1b8:	46564d00 	ldrbmi	r4, [r6], -r0, lsl #26
     1bc:	52003252 	andpl	r3, r0, #536870917	; 0x20000005
     1c0:	52455345 	subpl	r5, r5, #335544321	; 0x14000001
     1c4:	35444556 	strbcc	r4, [r4, #-1366]	; 0xfffffaaa
D:\#Documents\UVISION\SMART_WAKE_UP/sh1106.c:449
     1c8:	49434900 	stmdbmi	r3, {r8, fp, lr}^
D:\#Documents\UVISION\SMART_WAKE_UP/sh1106.c:467
     1cc:	554c4c41 	strbpl	r4, [ip, #-3137]	; 0xfffff3bf
     1d0:	53455200 	movtpl	r5, #20992	; 0x5200
     1d4:	45565245 	ldrbmi	r5, [r6, #-581]	; 0xfffffdbb
     1d8:	49003644 	stmdbmi	r0, {r2, r6, r9, sl, ip, sp}
     1dc:	564d4943 	strbpl	r4, [sp], -r3, asr #18
     1e0:	44005541 	strmi	r5, [r0], #-1345	; 0xfffffabf
     1e4:	564d4943 	strbpl	r4, [sp], -r3, asr #18
     1e8:	44004341 	strmi	r4, [r0], #-833	; 0xfffffcbf
     1ec:	57534943 	ldrbpl	r4, [r3, -r3, asr #18]
     1f0:	43434400 	movtmi	r4, #13312	; 0x3400
     1f4:	5541564d 	strbpl	r5, [r1, #-1613]	; 0xfffff9b3
     1f8:	43434400 	movtmi	r4, #13312	; 0x3400
     1fc:	4341564d 	movtmi	r5, #5709	; 0x164d
     200:	43434400 	movtmi	r4, #13312	; 0x3400
     204:	44005753 	strmi	r5, [r0], #-1875	; 0xfffff8ad
     208:	4d494343 	stclmi	3, cr4, [r9, #-268]	; 0xfffffef4
     20c:	00434156 	subeq	r4, r3, r6, asr r1
     210:	49434344 	stmdbmi	r3, {r2, r6, r8, r9, lr}^
     214:	42005753 	andmi	r5, r0, #21757952	; 0x14c0000
     218:	4c414950 	mcrrmi	9, 5, r4, r1, cr0	; <UNPREDICTABLE>
     21c:	4552004c 	ldrbmi	r0, [r2, #-76]	; 0xffffffb4
     220:	56524553 			; <UNDEFINED> instruction: 0x56524553
     224:	00374445 	eorseq	r4, r7, r5, asr #8
     228:	4d435449 	cfstrdmi	mvd5, [r3, #-292]	; 0xfffffedc
     22c:	44005243 	strmi	r5, [r0], #-579	; 0xfffffdbd
     230:	434d4354 	movtmi	r4, #54100	; 0xd354
     234:	48410052 	stmdami	r1, {r1, r4, r6}^
     238:	52435042 	subpl	r5, r3, #66	; 0x42
     23c:	43414300 	movtmi	r4, #4864	; 0x1300
     240:	48410052 	stmdami	r1, {r1, r4, r6}^
     244:	52435342 	subpl	r5, r3, #134217729	; 0x8000001
     248:	53455200 	movtpl	r5, #20992	; 0x5200
     24c:	45565245 	ldrbmi	r5, [r6, #-581]	; 0xfffffdbb
     250:	41003844 	tstmi	r0, r4, asr #16
     254:	52534642 	subspl	r4, r3, #69206016	; 0x4200000
     258:	42435300 	submi	r5, r3, #0, 6
     25c:	7079545f 	rsbsvc	r5, r9, pc, asr r4
     260:	52430065 	subpl	r0, r3, #101	; 0x65
     264:	4c4c5000 	marmi	acc0, r5, ip
     268:	52474643 	subpl	r4, r7, #70254592	; 0x4300000
     26c:	47464300 	strbmi	r4, [r6, -r0, lsl #6]
     270:	49430052 	stmdbmi	r3, {r1, r4, r6}^
     274:	48410052 	stmdami	r1, {r1, r4, r6}^
     278:	53523142 	cmppl	r2, #-2147483632	; 0x80000010
     27c:	41005254 	tstmi	r0, r4, asr r2
     280:	52324248 	eorspl	r4, r2, #72, 4	; 0x80000004
     284:	00525453 	subseq	r5, r2, r3, asr r4
     288:	33424841 	movtcc	r4, #10305	; 0x2841
     28c:	52545352 	subspl	r5, r4, #1207959553	; 0x48000001
     290:	42504100 	subsmi	r4, r0, #0, 2
     294:	54535231 	ldrbpl	r5, [r3], #-561	; 0xfffffdcf
     298:	50410052 	subpl	r0, r1, r2, asr r0
     29c:	53523242 	cmppl	r2, #536870916	; 0x20000004
     2a0:	52005254 	andpl	r5, r0, #84, 4	; 0x40000005
     2a4:	52455345 	subpl	r5, r5, #335544321	; 0x14000001
     2a8:	31444556 	cmpcc	r4, r6, asr r5
     2ac:	42484100 	submi	r4, r8, #0, 2
     2b0:	524e4531 	subpl	r4, lr, #205520896	; 0xc400000
     2b4:	42484100 	submi	r4, r8, #0, 2
     2b8:	524e4532 	subpl	r4, lr, #209715200	; 0xc800000
     2bc:	42484100 	submi	r4, r8, #0, 2
     2c0:	524e4533 	subpl	r4, lr, #213909504	; 0xcc00000
     2c4:	53455200 	movtpl	r5, #20992	; 0x5200
     2c8:	45565245 	ldrbmi	r5, [r6, #-581]	; 0xfffffdbb
     2cc:	41003244 	tstmi	r0, r4, asr #4
     2d0:	45314250 	ldrmi	r4, [r1, #-592]!	; 0xfffffdb0
     2d4:	4100524e 	tstmi	r0, lr, asr #4
     2d8:	45324250 	ldrmi	r4, [r2, #-592]!	; 0xfffffdb0
     2dc:	4100524e 	tstmi	r0, lr, asr #4
     2e0:	4c314248 	lfmmi	f4, 4, [r1], #-288	; 0xfffffee0
     2e4:	524e4550 	subpl	r4, lr, #80, 10	; 0x14000000
     2e8:	42484100 	submi	r4, r8, #0, 2
     2ec:	45504c32 	ldrbmi	r4, [r0, #-3122]	; 0xfffff3ce
     2f0:	4100524e 	tstmi	r0, lr, asr #4
     2f4:	4c334248 	lfmmi	f4, 4, [r3], #-288	; 0xfffffee0
     2f8:	524e4550 	subpl	r4, lr, #80, 10	; 0x14000000
     2fc:	42504100 	subsmi	r4, r0, #0, 2
     300:	45504c31 	ldrbmi	r4, [r0, #-3121]	; 0xfffff3cf
     304:	4100524e 	tstmi	r0, lr, asr #4
     308:	4c324250 	lfmmi	f4, 4, [r2], #-320	; 0xfffffec0
     30c:	524e4550 	subpl	r4, lr, #80, 10	; 0x14000000
     310:	43444200 	movtmi	r4, #16896	; 0x4200
     314:	53430052 	movtpl	r0, #12370	; 0x3052
     318:	53530052 	cmppl	r3, #82	; 0x52
     31c:	00524743 	subseq	r4, r2, r3, asr #14
     320:	494c4c50 	stmdbmi	ip, {r4, r6, sl, fp, lr}^
     324:	46435332 			; <UNDEFINED> instruction: 0x46435332
     328:	50005247 	andpl	r5, r0, r7, asr #4
     32c:	41534c4c 	cmpmi	r3, ip, asr #24
     330:	47464349 	strbmi	r4, [r6, -r9, asr #6]
     334:	43440052 	movtmi	r0, #16466	; 0x4052
     338:	4746434b 	strbmi	r4, [r6, -fp, asr #6]
     33c:	44003152 	strmi	r3, [r0], #-338	; 0xfffffeae
     340:	46434b43 	strbmi	r4, [r3], -r3, asr #22
     344:	00325247 	eorseq	r5, r2, r7, asr #4
     348:	5f434352 	svcpl	0x00434352
     34c:	65707954 	ldrbvs	r7, [r0, #-2388]!	; 0xfffff6ac
     350:	00666544 	rsbeq	r6, r6, r4, asr #10
     354:	74737953 	ldrbtvc	r7, [r3], #-2387	; 0xfffff6ad
     358:	6e496d65 	cdpvs	13, 4, cr6, cr9, cr5, {3}
     35c:	53007469 	movwpl	r7, #1129	; 0x469
     360:	65747379 	ldrbvs	r7, [r4, #-889]!	; 0xfffffc87
     364:	726f436d 	rsbvc	r4, pc, #-1275068415	; 0xb4000001
     368:	6f6c4365 	svcvs	0x006c4365
     36c:	70556b63 	subsvc	r6, r5, r3, ror #22
     370:	65746164 	ldrbvs	r6, [r4, #-356]!	; 0xfffffe9c
     374:	706d7400 	rsbvc	r7, sp, r0, lsl #8
     378:	6c6c7000 	stclvs	0, cr7, [ip], #-0
     37c:	006f6376 	rsbeq	r6, pc, r6, ror r3	; <UNPREDICTABLE>
     380:	706c6c70 	rsbvc	r6, ip, r0, ror ip
     384:	6c6c7000 	stclvs	0, cr7, [ip], #-0
     388:	72756f73 	rsbsvc	r6, r5, #460	; 0x1cc
     38c:	70006563 	andvc	r6, r0, r3, ror #10
     390:	006d6c6c 	rsbeq	r6, sp, ip, ror #24
     394:	706d6f43 	rsbvc	r6, sp, r3, asr #30
     398:	6e656e6f 	cdpvs	14, 6, cr6, cr5, cr15, {3}
     39c:	41203a74 			; <UNDEFINED> instruction: 0x41203a74
     3a0:	43206d72 			; <UNDEFINED> instruction: 0x43206d72
     3a4:	69706d6f 	ldmdbvs	r0!, {r0, r1, r2, r3, r5, r6, r8, sl, fp, sp, lr}^
     3a8:	2072656c 	rsbscs	r6, r2, ip, ror #10
     3ac:	20726f66 	rsbscs	r6, r2, r6, ror #30
     3b0:	65626d45 	strbvs	r6, [r2, #-3397]!	; 0xfffff2bb
     3b4:	64656464 	strbtvs	r6, [r5], #-1124	; 0xfffffb9c
     3b8:	312e3620 			; <UNDEFINED> instruction: 0x312e3620
     3bc:	6f542039 	svcvs	0x00542039
     3c0:	203a6c6f 	eorscs	r6, sl, pc, ror #24
     3c4:	636d7261 	cmnvs	sp, #268435462	; 0x10000006
     3c8:	676e616c 	strbvs	r6, [lr, -ip, ror #2]!
     3cc:	65355b20 	ldrvs	r5, [r5, #-2848]!	; 0xfffff4e0
     3d0:	62633337 	rsbvs	r3, r3, #-603979776	; 0xdc000000
     3d4:	005d3030 	subseq	r3, sp, r0, lsr r0
     3d8:	74747562 	ldrbtvc	r7, [r4], #-1378	; 0xfffffa9e
     3dc:	2e736e6f 	cdpcs	14, 7, cr6, cr3, cr15, {3}
     3e0:	3a440063 	bcc	1100574 <__Vectors_Size+0x110037c>
     3e4:	6f44235c 	svcvs	0x0044235c
     3e8:	656d7563 	strbvs	r7, [sp, #-1379]!	; 0xfffffa9d
     3ec:	5c73746e 	cfldrdpl	mvd7, [r3], #-440	; 0xfffffe48
     3f0:	53495655 	movtpl	r5, #38485	; 0x9655
     3f4:	5c4e4f49 	mcrrpl	15, 4, r4, lr, cr9
     3f8:	52414d53 	subpl	r4, r1, #5312	; 0x14c0
     3fc:	41575f54 	cmpmi	r7, r4, asr pc
     400:	555f454b 	ldrbpl	r4, [pc, #-1355]	; fffffebd <__initial_sp+0xdffdc015>
     404:	55420050 	strbpl	r0, [r2, #-80]	; 0xffffffb0
     408:	4e4f5454 	mcrmi	4, 2, r5, cr15, cr4, {2}
     40c:	706f545f 	rsbvc	r5, pc, pc, asr r4	; <UNPREDICTABLE>
     410:	74617453 	strbtvc	r7, [r1], #-1107	; 0xfffffbad
     414:	6e750065 	cdpvs	0, 7, cr0, cr5, cr5, {3}
     418:	6e676973 			; <UNDEFINED> instruction: 0x6e676973
     41c:	63206465 			; <UNDEFINED> instruction: 0x63206465
     420:	00726168 	rsbseq	r6, r2, r8, ror #2
     424:	746e6975 	strbtvc	r6, [lr], #-2421	; 0xfffff68b
     428:	00745f38 	rsbseq	r5, r4, r8, lsr pc
     42c:	54545542 	ldrbpl	r5, [r4], #-1346	; 0xfffffabe
     430:	425f4e4f 	subsmi	r4, pc, #1264	; 0x4f0
     434:	6f74746f 	svcvs	0x0074746f
     438:	6174536d 	cmnvs	r4, sp, ror #6
     43c:	42006574 	andmi	r6, r0, #116, 10	; 0x1d000000
     440:	4f545455 	svcmi	0x00545455
     444:	69525f4e 	ldmdbvs	r2, {r1, r2, r3, r6, r8, r9, sl, fp, ip, lr}^
     448:	53746867 	cmnpl	r4, #6750208	; 0x670000
     44c:	65746174 	ldrbvs	r6, [r4, #-372]!	; 0xfffffe8c
     450:	54554200 	ldrbpl	r4, [r5], #-512	; 0xfffffe00
     454:	5f4e4f54 	svcpl	0x004e4f54
     458:	7466654c 	strbtvc	r6, [r6], #-1356	; 0xfffffab4
     45c:	74617453 	strbtvc	r7, [r1], #-1107	; 0xfffffbad
     460:	55420065 	strbpl	r0, [r2, #-101]	; 0xffffff9b
     464:	4e4f5454 	mcrmi	4, 2, r5, cr15, cr4, {2}
     468:	6977535f 	ldmdbvs	r7!, {r0, r1, r2, r3, r4, r6, r8, r9, ip, lr}^
     46c:	00686374 	rsbeq	r6, r8, r4, ror r3
     470:	6e676973 			; <UNDEFINED> instruction: 0x6e676973
     474:	63206465 			; <UNDEFINED> instruction: 0x63206465
     478:	00726168 	rsbseq	r6, r2, r8, ror #2
     47c:	4d6e6f4e 	stclmi	15, cr6, [lr, #-312]!	; 0xfffffec8
     480:	616b7361 	cmnvs	fp, r1, ror #6
     484:	49656c62 	stmdbmi	r5!, {r1, r5, r6, sl, fp, sp, lr}^
     488:	495f746e 	ldmdbmi	pc, {r1, r2, r3, r5, r6, sl, ip, sp, lr}^	; <UNPREDICTABLE>
     48c:	006e5152 	rsbeq	r5, lr, r2, asr r1
     490:	6f6d654d 	svcvs	0x006d654d
     494:	614d7972 	hvcvs	55186	; 0xd792
     498:	6567616e 	strbvs	r6, [r7, #-366]!	; 0xfffffe92
     49c:	746e656d 	strbtvc	r6, [lr], #-1389	; 0xfffffa93
     4a0:	5152495f 	cmppl	r2, pc, asr r9
     4a4:	7542006e 	strbvc	r0, [r2, #-110]	; 0xffffff92
     4a8:	75614673 	strbvc	r4, [r1, #-1651]!	; 0xfffff98d
     4ac:	495f746c 	ldmdbmi	pc, {r2, r3, r5, r6, sl, ip, sp, lr}^	; <UNPREDICTABLE>
     4b0:	006e5152 	rsbeq	r5, lr, r2, asr r1
     4b4:	67617355 			; <UNDEFINED> instruction: 0x67617355
     4b8:	75614665 	strbvc	r4, [r1, #-1637]!	; 0xfffff99b
     4bc:	495f746c 	ldmdbmi	pc, {r2, r3, r5, r6, sl, ip, sp, lr}^	; <UNPREDICTABLE>
     4c0:	006e5152 	rsbeq	r5, lr, r2, asr r1
     4c4:	61435653 	cmpvs	r3, r3, asr r6
     4c8:	495f6c6c 	ldmdbmi	pc, {r2, r3, r5, r6, sl, fp, sp, lr}^	; <UNPREDICTABLE>
     4cc:	006e5152 	rsbeq	r5, lr, r2, asr r1
     4d0:	75626544 	strbvc	r6, [r2, #-1348]!	; 0xfffffabc
     4d4:	6e6f4d67 	cdpvs	13, 6, cr4, cr15, cr7, {3}
     4d8:	726f7469 	rsbvc	r7, pc, #1761607680	; 0x69000000
     4dc:	5152495f 	cmppl	r2, pc, asr r9
     4e0:	6550006e 	ldrbvs	r0, [r0, #-110]	; 0xffffff92
     4e4:	5653646e 	ldrbpl	r6, [r3], -lr, ror #8
     4e8:	5152495f 	cmppl	r2, pc, asr r9
     4ec:	7953006e 	ldmdbvc	r3, {r1, r2, r3, r5, r6}^
     4f0:	63695473 	cmnvs	r9, #1929379840	; 0x73000000
     4f4:	52495f6b 	subpl	r5, r9, #428	; 0x1ac
     4f8:	57006e51 	smlsdpl	r0, r1, lr, r6
     4fc:	5f474457 	svcpl	0x00474457
     500:	6e515249 	cdpvs	2, 5, cr5, cr1, cr9, {2}
     504:	44565000 	ldrbmi	r5, [r6], #-0
     508:	5152495f 	cmppl	r2, pc, asr r9
     50c:	4154006e 	cmpmi	r4, lr, rrx
     510:	535f504d 	cmppl	pc, #77	; 0x4d
     514:	504d4154 	subpl	r4, sp, r4, asr r1
     518:	5152495f 	cmppl	r2, pc, asr r9
     51c:	5452006e 	ldrbpl	r0, [r2], #-110	; 0xffffff92
     520:	4b575f43 	blmi	15d8234 <__Vectors_Size+0x15d803c>
     524:	495f5055 	ldmdbmi	pc, {r0, r2, r4, r6, ip, lr}^	; <UNPREDICTABLE>
     528:	006e5152 	rsbeq	r5, lr, r2, asr r1
     52c:	53414c46 	movtpl	r4, #7238	; 0x1c46
     530:	52495f48 	subpl	r5, r9, #72, 30	; 0x120
     534:	52006e51 	andpl	r6, r0, #1296	; 0x510
     538:	495f4343 	ldmdbmi	pc, {r0, r1, r6, r8, r9, lr}^	; <UNPREDICTABLE>
     53c:	006e5152 	rsbeq	r5, lr, r2, asr r1
     540:	49545845 	ldmdbmi	r4, {r0, r2, r6, fp, ip, lr}^
     544:	52495f30 	subpl	r5, r9, #48, 30	; 0xc0
     548:	45006e51 	strmi	r6, [r0, #-3665]	; 0xfffff1af
     54c:	31495458 	cmpcc	r9, r8, asr r4
     550:	5152495f 	cmppl	r2, pc, asr r9
     554:	5845006e 	stmdapl	r5, {r1, r2, r3, r5, r6}^
     558:	5f324954 	svcpl	0x00324954
     55c:	6e515249 	cdpvs	2, 5, cr5, cr1, cr9, {2}
     560:	54584500 	ldrbpl	r4, [r8], #-1280	; 0xfffffb00
     564:	495f3349 	ldmdbmi	pc, {r0, r3, r6, r8, r9, ip, sp}^	; <UNPREDICTABLE>
     568:	006e5152 	rsbeq	r5, lr, r2, asr r1
     56c:	49545845 	ldmdbmi	r4, {r0, r2, r6, fp, ip, lr}^
     570:	52495f34 	subpl	r5, r9, #52, 30	; 0xd0
     574:	44006e51 	strmi	r6, [r0], #-3665	; 0xfffff1af
     578:	5f31414d 	svcpl	0x0031414d
     57c:	65727453 	ldrbvs	r7, [r2, #-1107]!	; 0xfffffbad
     580:	5f306d61 	svcpl	0x00306d61
     584:	6e515249 	cdpvs	2, 5, cr5, cr1, cr9, {2}
     588:	414d4400 	cmpmi	sp, r0, lsl #8
     58c:	74535f31 	ldrbvc	r5, [r3], #-3889	; 0xfffff0cf
     590:	6d616572 	cfstr64vs	mvdx6, [r1, #-456]!	; 0xfffffe38
     594:	52495f31 	subpl	r5, r9, #49, 30	; 0xc4
     598:	44006e51 	strmi	r6, [r0], #-3665	; 0xfffff1af
     59c:	5f31414d 	svcpl	0x0031414d
     5a0:	65727453 	ldrbvs	r7, [r2, #-1107]!	; 0xfffffbad
     5a4:	5f326d61 	svcpl	0x00326d61
     5a8:	6e515249 	cdpvs	2, 5, cr5, cr1, cr9, {2}
     5ac:	414d4400 	cmpmi	sp, r0, lsl #8
     5b0:	74535f31 	ldrbvc	r5, [r3], #-3889	; 0xfffff0cf
     5b4:	6d616572 	cfstr64vs	mvdx6, [r1, #-456]!	; 0xfffffe38
     5b8:	52495f33 	subpl	r5, r9, #51, 30	; 0xcc
     5bc:	44006e51 	strmi	r6, [r0], #-3665	; 0xfffff1af
     5c0:	5f31414d 	svcpl	0x0031414d
     5c4:	65727453 	ldrbvs	r7, [r2, #-1107]!	; 0xfffffbad
     5c8:	5f346d61 	svcpl	0x00346d61
     5cc:	6e515249 	cdpvs	2, 5, cr5, cr1, cr9, {2}
     5d0:	414d4400 	cmpmi	sp, r0, lsl #8
     5d4:	74535f31 	ldrbvc	r5, [r3], #-3889	; 0xfffff0cf
     5d8:	6d616572 	cfstr64vs	mvdx6, [r1, #-456]!	; 0xfffffe38
     5dc:	52495f35 	subpl	r5, r9, #53, 30	; 0xd4
     5e0:	44006e51 	strmi	r6, [r0], #-3665	; 0xfffff1af
     5e4:	5f31414d 	svcpl	0x0031414d
     5e8:	65727453 	ldrbvs	r7, [r2, #-1107]!	; 0xfffffbad
     5ec:	5f366d61 	svcpl	0x00366d61
     5f0:	6e515249 	cdpvs	2, 5, cr5, cr1, cr9, {2}
     5f4:	43444100 	movtmi	r4, #16640	; 0x4100
     5f8:	5152495f 	cmppl	r2, pc, asr r9
     5fc:	4143006e 	cmpmi	r3, lr, rrx
     600:	545f314e 	ldrbpl	r3, [pc], #-334	; 608 <__Vectors_Size+0x410>
     604:	52495f58 	subpl	r5, r9, #88, 30	; 0x160
     608:	43006e51 	movwmi	r6, #3665	; 0xe51
     60c:	5f314e41 	svcpl	0x00314e41
     610:	5f305852 	svcpl	0x00305852
     614:	6e515249 	cdpvs	2, 5, cr5, cr1, cr9, {2}
     618:	4e414300 	cdpmi	3, 4, cr4, cr1, cr0, {0}
     61c:	58525f31 	ldmdapl	r2, {r0, r4, r5, r8, r9, sl, fp, ip, lr}^
     620:	52495f31 	subpl	r5, r9, #49, 30	; 0xc4
     624:	43006e51 	movwmi	r6, #3665	; 0xe51
     628:	5f314e41 	svcpl	0x00314e41
     62c:	5f454353 	svcpl	0x00454353
     630:	6e515249 	cdpvs	2, 5, cr5, cr1, cr9, {2}
     634:	54584500 	ldrbpl	r4, [r8], #-1280	; 0xfffffb00
     638:	355f3949 	ldrbcc	r3, [pc, #-2377]	; fffffcf7 <__initial_sp+0xdffdbe4f>
     63c:	5152495f 	cmppl	r2, pc, asr r9
     640:	4954006e 	ldmdbmi	r4, {r1, r2, r3, r5, r6}^
     644:	425f314d 	subsmi	r3, pc, #1073741843	; 0x40000013
     648:	545f4b52 	ldrbpl	r4, [pc], #-2898	; 650 <__Vectors_Size+0x458>
     64c:	5f394d49 	svcpl	0x00394d49
     650:	6e515249 	cdpvs	2, 5, cr5, cr1, cr9, {2}
     654:	4d495400 	cfstrdmi	mvd5, [r9, #-0]
     658:	50555f31 	subspl	r5, r5, r1, lsr pc
     65c:	4d49545f 	cfstrdmi	mvd5, [r9, #-380]	; 0xfffffe84
     660:	495f3031 	ldmdbmi	pc, {r0, r4, r5, ip, sp}^	; <UNPREDICTABLE>
     664:	006e5152 	rsbeq	r5, lr, r2, asr r1
     668:	314d4954 	cmpcc	sp, r4, asr r9
     66c:	4752545f 			; <UNDEFINED> instruction: 0x4752545f
     670:	4d4f435f 	stclmi	3, cr4, [pc, #-380]	; 4fc <__Vectors_Size+0x304>
     674:	4d49545f 	cfstrdmi	mvd5, [r9, #-380]	; 0xfffffe84
     678:	495f3131 	ldmdbmi	pc, {r0, r4, r5, r8, ip, sp}^	; <UNPREDICTABLE>
     67c:	006e5152 	rsbeq	r5, lr, r2, asr r1
     680:	314d4954 	cmpcc	sp, r4, asr r9
     684:	5f43435f 	svcpl	0x0043435f
     688:	6e515249 	cdpvs	2, 5, cr5, cr1, cr9, {2}
     68c:	4d495400 	cfstrdmi	mvd5, [r9, #-0]
     690:	52495f32 	subpl	r5, r9, #50, 30	; 0xc8
     694:	54006e51 	strpl	r6, [r0], #-3665	; 0xfffff1af
     698:	5f334d49 	svcpl	0x00334d49
     69c:	6e515249 	cdpvs	2, 5, cr5, cr1, cr9, {2}
     6a0:	4d495400 	cfstrdmi	mvd5, [r9, #-0]
     6a4:	52495f34 	subpl	r5, r9, #52, 30	; 0xd0
     6a8:	49006e51 	stmdbmi	r0, {r0, r4, r6, r9, sl, fp, sp, lr}
     6ac:	5f314332 	svcpl	0x00314332
     6b0:	495f5645 	ldmdbmi	pc, {r0, r2, r6, r9, sl, ip, lr}^	; <UNPREDICTABLE>
     6b4:	006e5152 	rsbeq	r5, lr, r2, asr r1
     6b8:	31433249 	cmpcc	r3, r9, asr #4
     6bc:	5f52455f 	svcpl	0x0052455f
     6c0:	6e515249 	cdpvs	2, 5, cr5, cr1, cr9, {2}
     6c4:	43324900 	teqmi	r2, #0, 18
     6c8:	56455f32 			; <UNDEFINED> instruction: 0x56455f32
     6cc:	5152495f 	cmppl	r2, pc, asr r9
     6d0:	3249006e 	subcc	r0, r9, #110	; 0x6e
     6d4:	455f3243 	ldrbmi	r3, [pc, #-579]	; 499 <__Vectors_Size+0x2a1>
     6d8:	52495f52 	subpl	r5, r9, #328	; 0x148
     6dc:	53006e51 	movwpl	r6, #3665	; 0xe51
     6e0:	5f314950 	svcpl	0x00314950
     6e4:	6e515249 	cdpvs	2, 5, cr5, cr1, cr9, {2}
     6e8:	49505300 	ldmdbmi	r0, {r8, r9, ip, lr}^
     6ec:	52495f32 	subpl	r5, r9, #50, 30	; 0xc8
     6f0:	55006e51 	strpl	r6, [r0, #-3665]	; 0xfffff1af
     6f4:	54524153 	ldrbpl	r4, [r2], #-339	; 0xfffffead
     6f8:	52495f31 	subpl	r5, r9, #49, 30	; 0xc4
     6fc:	55006e51 	strpl	r6, [r0, #-3665]	; 0xfffff1af
     700:	54524153 	ldrbpl	r4, [r2], #-339	; 0xfffffead
     704:	52495f32 	subpl	r5, r9, #50, 30	; 0xc8
     708:	55006e51 	strpl	r6, [r0, #-3665]	; 0xfffff1af
     70c:	54524153 	ldrbpl	r4, [r2], #-339	; 0xfffffead
     710:	52495f33 	subpl	r5, r9, #51, 30	; 0xcc
     714:	45006e51 	strmi	r6, [r0, #-3665]	; 0xfffff1af
     718:	31495458 	cmpcc	r9, r8, asr r4
     71c:	30315f35 	eorscc	r5, r1, r5, lsr pc
     720:	5152495f 	cmppl	r2, pc, asr r9
     724:	5452006e 	ldrbpl	r0, [r2], #-110	; 0xffffff92
     728:	6c415f43 	mcrrvs	15, 4, r5, r1, cr3
     72c:	5f6d7261 	svcpl	0x006d7261
     730:	6e515249 	cdpvs	2, 5, cr5, cr1, cr9, {2}
     734:	47544f00 	ldrbmi	r4, [r4, -r0, lsl #30]
     738:	5f53465f 	svcpl	0x0053465f
     73c:	50554b57 	subspl	r4, r5, r7, asr fp
     740:	5152495f 	cmppl	r2, pc, asr r9
     744:	4954006e 	ldmdbmi	r4, {r1, r2, r3, r5, r6}^
     748:	425f384d 	subsmi	r3, pc, #5046272	; 0x4d0000
     74c:	545f4b52 	ldrbpl	r4, [pc], #-2898	; 754 <__Vectors_Size+0x55c>
     750:	32314d49 	eorscc	r4, r1, #4672	; 0x1240
     754:	5152495f 	cmppl	r2, pc, asr r9
     758:	4954006e 	ldmdbmi	r4, {r1, r2, r3, r5, r6}^
     75c:	555f384d 	ldrbpl	r3, [pc, #-2125]	; ffffff17 <__initial_sp+0xdffdc06f>
     760:	49545f50 	ldmdbmi	r4, {r4, r6, r8, r9, sl, fp, ip, lr}^
     764:	5f33314d 	svcpl	0x0033314d
     768:	6e515249 	cdpvs	2, 5, cr5, cr1, cr9, {2}
     76c:	4d495400 	cfstrdmi	mvd5, [r9, #-0]
     770:	52545f38 	subspl	r5, r4, #56, 30	; 0xe0
     774:	4f435f47 	svcmi	0x00435f47
     778:	49545f4d 	ldmdbmi	r4, {r0, r2, r3, r6, r8, r9, sl, fp, ip, lr}^
     77c:	5f34314d 	svcpl	0x0034314d
     780:	6e515249 	cdpvs	2, 5, cr5, cr1, cr9, {2}
     784:	4d495400 	cfstrdmi	mvd5, [r9, #-0]
     788:	43435f38 	movtmi	r5, #16184	; 0x3f38
     78c:	5152495f 	cmppl	r2, pc, asr r9
     790:	4d44006e 	stclmi	0, cr0, [r4, #-440]	; 0xfffffe48
     794:	535f3141 	cmppl	pc, #1073741840	; 0x40000010
     798:	61657274 	smcvs	22308	; 0x5724
     79c:	495f376d 	ldmdbmi	pc, {r0, r2, r3, r5, r6, r8, r9, sl, ip, sp}^	; <UNPREDICTABLE>
     7a0:	006e5152 	rsbeq	r5, lr, r2, asr r1
     7a4:	5f434d46 	svcpl	0x00434d46
     7a8:	6e515249 	cdpvs	2, 5, cr5, cr1, cr9, {2}
     7ac:	4d445300 	stclmi	3, cr5, [r4, #-0]
     7b0:	5f31434d 	svcpl	0x0031434d
     7b4:	6e515249 	cdpvs	2, 5, cr5, cr1, cr9, {2}
     7b8:	4d495400 	cfstrdmi	mvd5, [r9, #-0]
     7bc:	52495f35 	subpl	r5, r9, #53, 30	; 0xd4
     7c0:	53006e51 	movwpl	r6, #3665	; 0xe51
     7c4:	5f334950 	svcpl	0x00334950
     7c8:	6e515249 	cdpvs	2, 5, cr5, cr1, cr9, {2}
     7cc:	52415500 	subpl	r5, r1, #0, 10
     7d0:	495f3454 	ldmdbmi	pc, {r2, r4, r6, sl, ip, sp}^	; <UNPREDICTABLE>
     7d4:	006e5152 	rsbeq	r5, lr, r2, asr r1
     7d8:	54524155 	ldrbpl	r4, [r2], #-341	; 0xfffffeab
     7dc:	52495f35 	subpl	r5, r9, #53, 30	; 0xd4
     7e0:	54006e51 	strpl	r6, [r0], #-3665	; 0xfffff1af
     7e4:	5f364d49 	svcpl	0x00364d49
     7e8:	5f434144 	svcpl	0x00434144
     7ec:	6e515249 	cdpvs	2, 5, cr5, cr1, cr9, {2}
     7f0:	4d495400 	cfstrdmi	mvd5, [r9, #-0]
     7f4:	52495f37 	subpl	r5, r9, #55, 30	; 0xdc
     7f8:	44006e51 	strmi	r6, [r0], #-3665	; 0xfffff1af
     7fc:	5f32414d 	svcpl	0x0032414d
     800:	65727453 	ldrbvs	r7, [r2, #-1107]!	; 0xfffffbad
     804:	5f306d61 	svcpl	0x00306d61
     808:	6e515249 	cdpvs	2, 5, cr5, cr1, cr9, {2}
     80c:	414d4400 	cmpmi	sp, r0, lsl #8
     810:	74535f32 	ldrbvc	r5, [r3], #-3890	; 0xfffff0ce
     814:	6d616572 	cfstr64vs	mvdx6, [r1, #-456]!	; 0xfffffe38
     818:	52495f31 	subpl	r5, r9, #49, 30	; 0xc4
     81c:	44006e51 	strmi	r6, [r0], #-3665	; 0xfffff1af
     820:	5f32414d 	svcpl	0x0032414d
     824:	65727453 	ldrbvs	r7, [r2, #-1107]!	; 0xfffffbad
     828:	5f326d61 	svcpl	0x00326d61
     82c:	6e515249 	cdpvs	2, 5, cr5, cr1, cr9, {2}
     830:	414d4400 	cmpmi	sp, r0, lsl #8
     834:	74535f32 	ldrbvc	r5, [r3], #-3890	; 0xfffff0ce
     838:	6d616572 	cfstr64vs	mvdx6, [r1, #-456]!	; 0xfffffe38
     83c:	52495f33 	subpl	r5, r9, #51, 30	; 0xcc
     840:	44006e51 	strmi	r6, [r0], #-3665	; 0xfffff1af
     844:	5f32414d 	svcpl	0x0032414d
     848:	65727453 	ldrbvs	r7, [r2, #-1107]!	; 0xfffffbad
     84c:	5f346d61 	svcpl	0x00346d61
     850:	6e515249 	cdpvs	2, 5, cr5, cr1, cr9, {2}
     854:	48544500 	ldmdami	r4, {r8, sl, lr}^
     858:	5152495f 	cmppl	r2, pc, asr r9
     85c:	5445006e 	strbpl	r0, [r5], #-110	; 0xffffff92
     860:	4b575f48 	blmi	15d8588 <__Vectors_Size+0x15d8390>
     864:	495f5055 	ldmdbmi	pc, {r0, r2, r4, r6, ip, lr}^	; <UNPREDICTABLE>
     868:	006e5152 	rsbeq	r5, lr, r2, asr r1
     86c:	324e4143 	subcc	r4, lr, #-1073741808	; 0xc0000010
     870:	5f58545f 	svcpl	0x0058545f
     874:	6e515249 	cdpvs	2, 5, cr5, cr1, cr9, {2}
     878:	4e414300 	cdpmi	3, 4, cr4, cr1, cr0, {0}
     87c:	58525f32 	ldmdapl	r2, {r1, r4, r5, r8, r9, sl, fp, ip, lr}^
     880:	52495f30 	subpl	r5, r9, #48, 30	; 0xc0
     884:	43006e51 	movwmi	r6, #3665	; 0xe51
     888:	5f324e41 	svcpl	0x00324e41
     88c:	5f315852 	svcpl	0x00315852
     890:	6e515249 	cdpvs	2, 5, cr5, cr1, cr9, {2}
     894:	4e414300 	cdpmi	3, 4, cr4, cr1, cr0, {0}
     898:	43535f32 	cmpmi	r3, #50, 30	; 0xc8
     89c:	52495f45 	subpl	r5, r9, #276	; 0x114
     8a0:	4f006e51 	svcmi	0x00006e51
     8a4:	465f4754 			; <UNDEFINED> instruction: 0x465f4754
     8a8:	52495f53 	subpl	r5, r9, #332	; 0x14c
     8ac:	44006e51 	strmi	r6, [r0], #-3665	; 0xfffff1af
     8b0:	5f32414d 	svcpl	0x0032414d
     8b4:	65727453 	ldrbvs	r7, [r2, #-1107]!	; 0xfffffbad
     8b8:	5f356d61 	svcpl	0x00356d61
     8bc:	6e515249 	cdpvs	2, 5, cr5, cr1, cr9, {2}
     8c0:	414d4400 	cmpmi	sp, r0, lsl #8
     8c4:	74535f32 	ldrbvc	r5, [r3], #-3890	; 0xfffff0ce
     8c8:	6d616572 	cfstr64vs	mvdx6, [r1, #-456]!	; 0xfffffe38
     8cc:	52495f36 	subpl	r5, r9, #54, 30	; 0xd8
     8d0:	44006e51 	strmi	r6, [r0], #-3665	; 0xfffff1af
     8d4:	5f32414d 	svcpl	0x0032414d
     8d8:	65727453 	ldrbvs	r7, [r2, #-1107]!	; 0xfffffbad
     8dc:	5f376d61 	svcpl	0x00376d61
     8e0:	6e515249 	cdpvs	2, 5, cr5, cr1, cr9, {2}
     8e4:	41535500 	cmpmi	r3, r0, lsl #10
     8e8:	5f365452 	svcpl	0x00365452
     8ec:	6e515249 	cdpvs	2, 5, cr5, cr1, cr9, {2}
     8f0:	43324900 	teqmi	r2, #0, 18
     8f4:	56455f33 			; <UNDEFINED> instruction: 0x56455f33
     8f8:	5152495f 	cmppl	r2, pc, asr r9
     8fc:	3249006e 	subcc	r0, r9, #110	; 0x6e
     900:	455f3343 	ldrbmi	r3, [pc, #-835]	; 5c5 <__Vectors_Size+0x3cd>
     904:	52495f52 	subpl	r5, r9, #328	; 0x148
     908:	4f006e51 	svcmi	0x00006e51
     90c:	485f4754 	ldmdami	pc, {r2, r4, r6, r8, r9, sl, lr}^	; <UNPREDICTABLE>
     910:	50455f53 	subpl	r5, r5, r3, asr pc
     914:	554f5f31 	strbpl	r5, [pc, #-3889]	; fffff9eb <__initial_sp+0xdffdbb43>
     918:	52495f54 	subpl	r5, r9, #84, 30	; 0x150
     91c:	4f006e51 	svcmi	0x00006e51
     920:	485f4754 	ldmdami	pc, {r2, r4, r6, r8, r9, sl, lr}^	; <UNPREDICTABLE>
     924:	50455f53 	subpl	r5, r5, r3, asr pc
     928:	4e495f31 	mcrmi	15, 2, r5, cr9, cr1, {1}
     92c:	5152495f 	cmppl	r2, pc, asr r9
     930:	544f006e 	strbpl	r0, [pc], #-110	; 938 <__Vectors_Size+0x740>
     934:	53485f47 	movtpl	r5, #36679	; 0x8f47
     938:	554b575f 	strbpl	r5, [fp, #-1887]	; 0xfffff8a1
     93c:	52495f50 	subpl	r5, r9, #80, 30	; 0x140
     940:	4f006e51 	svcmi	0x00006e51
     944:	485f4754 	ldmdami	pc, {r2, r4, r6, r8, r9, sl, lr}^	; <UNPREDICTABLE>
     948:	52495f53 	subpl	r5, r9, #332	; 0x14c
     94c:	44006e51 	strmi	r6, [r0], #-3665	; 0xfffff1af
     950:	5f494d43 	svcpl	0x00494d43
     954:	6e515249 	cdpvs	2, 5, cr5, cr1, cr9, {2}
     958:	474e5200 	strbmi	r5, [lr, -r0, lsl #4]
     95c:	5152495f 	cmppl	r2, pc, asr r9
     960:	5046006e 	subpl	r0, r6, lr, rrx
     964:	52495f55 	subpl	r5, r9, #340	; 0x154
     968:	55006e51 	strpl	r6, [r0, #-3665]	; 0xfffff1af
     96c:	37545241 	ldrbcc	r5, [r4, -r1, asr #4]
     970:	5152495f 	cmppl	r2, pc, asr r9
     974:	4155006e 	cmpmi	r5, lr, rrx
     978:	5f385452 	svcpl	0x00385452
     97c:	6e515249 	cdpvs	2, 5, cr5, cr1, cr9, {2}
     980:	49505300 	ldmdbmi	r0, {r8, r9, ip, lr}^
     984:	52495f34 	subpl	r5, r9, #52, 30	; 0xd0
     988:	53006e51 	movwpl	r6, #3665	; 0xe51
     98c:	5f354950 	svcpl	0x00354950
     990:	6e515249 	cdpvs	2, 5, cr5, cr1, cr9, {2}
     994:	49505300 	ldmdbmi	r0, {r8, r9, ip, lr}^
     998:	52495f36 	subpl	r5, r9, #54, 30	; 0xd8
     99c:	53006e51 	movwpl	r6, #3665	; 0xe51
     9a0:	5f314941 	svcpl	0x00314941
     9a4:	6e515249 	cdpvs	2, 5, cr5, cr1, cr9, {2}
     9a8:	44544c00 	ldrbmi	r4, [r4], #-3072	; 0xfffff400
     9ac:	52495f43 	subpl	r5, r9, #268	; 0x10c
     9b0:	4c006e51 	stcmi	14, cr6, [r0], {81}	; 0x51
     9b4:	5f434454 	svcpl	0x00434454
     9b8:	495f5245 	ldmdbmi	pc, {r0, r2, r6, r9, ip, lr}^	; <UNPREDICTABLE>
     9bc:	006e5152 	rsbeq	r5, lr, r2, asr r1
     9c0:	32414d44 	subcc	r4, r1, #68, 26	; 0x1100
     9c4:	52495f44 	subpl	r5, r9, #68, 30	; 0x110
     9c8:	53006e51 	movwpl	r6, #3665	; 0xe51
     9cc:	5f324941 	svcpl	0x00324941
     9d0:	6e515249 	cdpvs	2, 5, cr5, cr1, cr9, {2}
     9d4:	41555100 	cmpmi	r5, r0, lsl #2
     9d8:	49505344 	ldmdbmi	r0, {r2, r6, r8, r9, ip, lr}^
     9dc:	5152495f 	cmppl	r2, pc, asr r9
     9e0:	504c006e 	subpl	r0, ip, lr, rrx
     9e4:	314d4954 	cmpcc	sp, r4, asr r9
     9e8:	5152495f 	cmppl	r2, pc, asr r9
     9ec:	4543006e 	strbmi	r0, [r3, #-110]	; 0xffffff92
     9f0:	52495f43 	subpl	r5, r9, #268	; 0x10c
     9f4:	49006e51 	stmdbmi	r0, {r0, r4, r6, r9, sl, fp, sp, lr}
     9f8:	5f344332 	svcpl	0x00344332
     9fc:	495f5645 	ldmdbmi	pc, {r0, r2, r6, r9, sl, ip, lr}^	; <UNPREDICTABLE>
     a00:	006e5152 	rsbeq	r5, lr, r2, asr r1
     a04:	34433249 	strbcc	r3, [r3], #-585	; 0xfffffdb7
     a08:	5f52455f 	svcpl	0x0052455f
     a0c:	6e515249 	cdpvs	2, 5, cr5, cr1, cr9, {2}
     a10:	44505300 	ldrbmi	r5, [r0], #-768	; 0xfffffd00
     a14:	525f4649 	subspl	r4, pc, #76546048	; 0x4900000
     a18:	52495f58 	subpl	r5, r9, #88, 30	; 0x160
     a1c:	44006e51 	strmi	r6, [r0], #-3665	; 0xfffff1af
     a20:	4d445346 	stclmi	3, cr5, [r4, #-280]	; 0xfffffee8
     a24:	4c465f31 	mcrrmi	15, 3, r5, r6, cr1
     a28:	495f3054 	ldmdbmi	pc, {r2, r4, r6, ip, sp}^	; <UNPREDICTABLE>
     a2c:	006e5152 	rsbeq	r5, lr, r2, asr r1
     a30:	44534644 	ldrbmi	r4, [r3], #-1604	; 0xfffff9bc
     a34:	465f314d 	ldrbmi	r3, [pc], -sp, asr #2
     a38:	5f31544c 	svcpl	0x0031544c
     a3c:	6e515249 	cdpvs	2, 5, cr5, cr1, cr9, {2}
     a40:	53464400 	movtpl	r4, #25600	; 0x6400
     a44:	5f314d44 	svcpl	0x00314d44
     a48:	32544c46 	subscc	r4, r4, #17920	; 0x4600
     a4c:	5152495f 	cmppl	r2, pc, asr r9
     a50:	4644006e 	strbmi	r0, [r4], -lr, rrx
     a54:	314d4453 	cmpcc	sp, r3, asr r4
     a58:	544c465f 	strbpl	r4, [ip], #-1631	; 0xfffff9a1
     a5c:	52495f33 	subpl	r5, r9, #51, 30	; 0xcc
     a60:	53006e51 	movwpl	r6, #3665	; 0xe51
     a64:	434d4d44 	movtmi	r4, #56644	; 0xdd44
     a68:	52495f32 	subpl	r5, r9, #50, 30	; 0xc8
     a6c:	43006e51 	movwmi	r6, #3665	; 0xe51
     a70:	5f334e41 	svcpl	0x00334e41
     a74:	495f5854 	ldmdbmi	pc, {r2, r4, r6, fp, ip, lr}^	; <UNPREDICTABLE>
     a78:	006e5152 	rsbeq	r5, lr, r2, asr r1
     a7c:	334e4143 	movtcc	r4, #57667	; 0xe143
     a80:	3058525f 	subscc	r5, r8, pc, asr r2
     a84:	5152495f 	cmppl	r2, pc, asr r9
     a88:	4143006e 	cmpmi	r3, lr, rrx
     a8c:	525f334e 	subspl	r3, pc, #939524097	; 0x38000001
     a90:	495f3158 	ldmdbmi	pc, {r3, r4, r6, r8, ip, sp}^	; <UNPREDICTABLE>
     a94:	006e5152 	rsbeq	r5, lr, r2, asr r1
     a98:	334e4143 	movtcc	r4, #57667	; 0xe143
     a9c:	4543535f 	strbmi	r5, [r3, #-863]	; 0xfffffca1
     aa0:	5152495f 	cmppl	r2, pc, asr r9
     aa4:	504a006e 	subpl	r0, sl, lr, rrx
     aa8:	495f4745 	ldmdbmi	pc, {r0, r2, r6, r8, r9, sl, lr}^	; <UNPREDICTABLE>
     aac:	006e5152 	rsbeq	r5, lr, r2, asr r1
     ab0:	4f49444d 	svcmi	0x0049444d
     ab4:	52495f53 	subpl	r5, r9, #332	; 0x14c
     ab8:	43006e51 	movwmi	r6, #3665	; 0xe51
     abc:	6e750052 	mrcvs	0, 3, r0, cr5, cr2, {2}
     ac0:	6e676973 			; <UNDEFINED> instruction: 0x6e676973
     ac4:	69206465 	stmdbvs	r0!, {r0, r2, r5, r6, sl, sp, lr}
     ac8:	7500746e 	strvc	r7, [r0, #-1134]	; 0xfffffb92
     acc:	33746e69 	cmncc	r4, #1680	; 0x690
     ad0:	00745f32 	rsbseq	r5, r4, r2, lsr pc
     ad4:	434c4c50 	movtmi	r4, #52304	; 0xcc50
     ad8:	00524746 	subseq	r4, r2, r6, asr #14
     adc:	52474643 	subpl	r4, r7, #70254592	; 0x4300000
     ae0:	52494300 	subpl	r4, r9, #0, 6
     ae4:	42484100 	submi	r4, r8, #0, 2
     ae8:	54535231 	ldrbpl	r5, [r3], #-561	; 0xfffffdcf
     aec:	48410052 	stmdami	r1, {r1, r4, r6}^
     af0:	53523242 	cmppl	r2, #536870916	; 0x20000004
     af4:	41005254 	tstmi	r0, r4, asr r2
     af8:	52334248 	eorspl	r4, r3, #72, 4	; 0x80000004
     afc:	00525453 	subseq	r5, r2, r3, asr r4
     b00:	45534552 	ldrbmi	r4, [r3, #-1362]	; 0xfffffaae
     b04:	44455652 	strbmi	r5, [r5], #-1618	; 0xfffff9ae
     b08:	50410030 	subpl	r0, r1, r0, lsr r0
     b0c:	53523142 	cmppl	r2, #-2147483632	; 0x80000010
     b10:	41005254 	tstmi	r0, r4, asr r2
     b14:	52324250 	eorspl	r4, r2, #80, 4
     b18:	00525453 	subseq	r5, r2, r3, asr r4
     b1c:	45534552 	ldrbmi	r4, [r3, #-1362]	; 0xfffffaae
     b20:	44455652 	strbmi	r5, [r5], #-1618	; 0xfffff9ae
     b24:	5f5f0031 	svcpl	0x005f0031
     b28:	41525241 	cmpmi	r2, r1, asr #4
     b2c:	49535f59 	ldmdbmi	r3, {r0, r3, r4, r6, r8, r9, sl, fp, ip, lr}^
     b30:	545f455a 	ldrbpl	r4, [pc], #-1370	; b38 <__Vectors_Size+0x940>
     b34:	5f455059 	svcpl	0x00455059
     b38:	4841005f 	stmdami	r1, {r0, r1, r2, r3, r4, r6}^
     b3c:	4e453142 	dvfmism	f3, f5, f2
     b40:	48410052 	stmdami	r1, {r1, r4, r6}^
     b44:	4e453242 	cdpmi	2, 4, cr3, cr5, cr2, {2}
     b48:	48410052 	stmdami	r1, {r1, r4, r6}^
     b4c:	4e453342 	cdpmi	3, 4, cr3, cr5, cr2, {2}
     b50:	45520052 	ldrbmi	r0, [r2, #-82]	; 0xffffffae
     b54:	56524553 			; <UNDEFINED> instruction: 0x56524553
     b58:	00324445 	eorseq	r4, r2, r5, asr #8
     b5c:	31425041 	cmpcc	r2, r1, asr #32
     b60:	00524e45 	subseq	r4, r2, r5, asr #28
     b64:	32425041 	subcc	r5, r2, #65	; 0x41
     b68:	00524e45 	subseq	r4, r2, r5, asr #28
     b6c:	45534552 	ldrbmi	r4, [r3, #-1362]	; 0xfffffaae
     b70:	44455652 	strbmi	r5, [r5], #-1618	; 0xfffff9ae
     b74:	48410033 	stmdami	r1, {r0, r1, r4, r5}^
     b78:	504c3142 	subpl	r3, ip, r2, asr #2
     b7c:	00524e45 	subseq	r4, r2, r5, asr #28
     b80:	32424841 	subcc	r4, r2, #4259840	; 0x410000
     b84:	4e45504c 	cdpmi	0, 4, cr5, cr5, cr12, {2}
     b88:	48410052 	stmdami	r1, {r1, r4, r6}^
     b8c:	504c3342 	subpl	r3, ip, r2, asr #6
     b90:	00524e45 	subseq	r4, r2, r5, asr #28
     b94:	45534552 	ldrbmi	r4, [r3, #-1362]	; 0xfffffaae
     b98:	44455652 	strbmi	r5, [r5], #-1618	; 0xfffff9ae
     b9c:	50410034 	subpl	r0, r1, r4, lsr r0
     ba0:	504c3142 	subpl	r3, ip, r2, asr #2
     ba4:	00524e45 	subseq	r4, r2, r5, asr #28
     ba8:	32425041 	subcc	r5, r2, #65	; 0x41
     bac:	4e45504c 	cdpmi	0, 4, cr5, cr5, cr12, {2}
     bb0:	45520052 	ldrbmi	r0, [r2, #-82]	; 0xffffffae
     bb4:	56524553 			; <UNDEFINED> instruction: 0x56524553
     bb8:	00354445 	eorseq	r4, r5, r5, asr #8
     bbc:	52434442 	subpl	r4, r3, #1107296256	; 0x42000000
     bc0:	52534300 	subspl	r4, r3, #0, 6
     bc4:	53455200 	movtpl	r5, #20992	; 0x5200
     bc8:	45565245 	ldrbmi	r5, [r6, #-581]	; 0xfffffdbb
     bcc:	53003644 	movwpl	r3, #1604	; 0x644
     bd0:	52474353 	subpl	r4, r7, #1275068417	; 0x4c000001
     bd4:	4c4c5000 	marmi	acc0, r5, ip
     bd8:	43533249 	cmpmi	r3, #-1879048188	; 0x90000004
     bdc:	00524746 	subseq	r4, r2, r6, asr #14
     be0:	534c4c50 	movtpl	r4, #52304	; 0xcc50
     be4:	46434941 	strbmi	r4, [r3], -r1, asr #18
     be8:	44005247 	strmi	r5, [r0], #-583	; 0xfffffdb9
     bec:	46434b43 	strbmi	r4, [r3], -r3, asr #22
     bf0:	00315247 	eorseq	r5, r1, r7, asr #4
     bf4:	434b4344 	movtmi	r4, #45892	; 0xb344
     bf8:	32524746 	subscc	r4, r2, #18350080	; 0x1180000
     bfc:	43435200 	movtmi	r5, #12800	; 0x3200
     c00:	7079545f 	rsbsvc	r5, r9, pc, asr r4
     c04:	66654465 	strbtvs	r4, [r5], -r5, ror #8
     c08:	524d4900 	subpl	r4, sp, #0, 18
     c0c:	524d4500 	subpl	r4, sp, #0, 10
     c10:	53545200 	cmppl	r4, #0, 4
     c14:	54460052 	strbpl	r0, [r6], #-82	; 0xffffffae
     c18:	53005253 	movwpl	r5, #595	; 0x253
     c1c:	52454957 	subpl	r4, r5, #1425408	; 0x15c000
     c20:	00525000 	subseq	r5, r2, r0
     c24:	49545845 	ldmdbmi	r4, {r0, r2, r6, fp, ip, lr}^
     c28:	7079545f 	rsbsvc	r5, r9, pc, asr r4
     c2c:	66654465 	strbtvs	r4, [r5], -r5, ror #8
     c30:	31524300 	cmpcc	r2, r0, lsl #6
     c34:	32524300 	subscc	r4, r2, #0, 6
     c38:	434d5300 	movtmi	r5, #54016	; 0xd300
     c3c:	49440052 	stmdbmi	r4, {r1, r4, r6}^
     c40:	53005245 	movwpl	r5, #581	; 0x245
     c44:	47450052 	smlsldmi	r0, r5, r2, r0
     c48:	43430052 	movtmi	r0, #12370	; 0x3052
     c4c:	0031524d 	eorseq	r5, r1, sp, asr #4
     c50:	524d4343 	subpl	r4, sp, #201326593	; 0xc000001
     c54:	43430032 	movtmi	r0, #12338	; 0x3032
     c58:	43005245 	movwmi	r5, #581	; 0x245
     c5c:	5000544e 	andpl	r5, r0, lr, asr #8
     c60:	41004353 	tstmi	r0, r3, asr r3
     c64:	52005252 	andpl	r5, r0, #536870917	; 0x20000005
     c68:	43005243 	movwmi	r5, #579	; 0x243
     c6c:	00315243 	eorseq	r5, r1, r3, asr #4
     c70:	32524343 	subscc	r4, r2, #201326593	; 0xc000001
     c74:	52434300 	subpl	r4, r3, #0, 6
     c78:	43430033 	movtmi	r0, #12339	; 0x3033
     c7c:	42003452 	andmi	r3, r0, #1375731712	; 0x52000000
     c80:	00525444 	subseq	r5, r2, r4, asr #8
     c84:	00524344 	subseq	r4, r2, r4, asr #6
     c88:	52414d44 	subpl	r4, r1, #68, 26	; 0x1100
     c8c:	00524f00 	subseq	r4, r2, r0, lsl #30
     c90:	524d4343 	subpl	r4, sp, #201326593	; 0xc000001
     c94:	43430033 	movtmi	r0, #12339	; 0x3033
     c98:	43003552 	movwmi	r3, #1362	; 0x552
     c9c:	00365243 	eorseq	r5, r6, r3, asr #4
     ca0:	00314641 	eorseq	r4, r1, r1, asr #12
     ca4:	00324641 	eorseq	r4, r2, r1, asr #12
     ca8:	5f4d4954 	svcpl	0x004d4954
     cac:	65707954 	ldrbvs	r7, [r0, #-2388]!	; 0xfffff6ac
     cb0:	00666544 	rsbeq	r6, r6, r4, asr #10
     cb4:	45444f4d 	strbmi	r4, [r4, #-3917]	; 0xfffff0b3
     cb8:	544f0052 	strbpl	r0, [pc], #-82	; cc0 <__Vectors_Size+0xac8>
     cbc:	52455059 	subpl	r5, r5, #89	; 0x59
     cc0:	50534f00 	subspl	r4, r3, r0, lsl #30
     cc4:	52444545 	subpl	r4, r4, #289406976	; 0x11400000
     cc8:	50555000 	subspl	r5, r5, r0
     ccc:	49005244 	stmdbmi	r0, {r2, r6, r9, ip, lr}
     cd0:	4f005244 	svcmi	0x00005244
     cd4:	42005244 	andmi	r5, r0, #68, 4	; 0x40000004
     cd8:	00525253 	subseq	r5, r2, r3, asr r2
     cdc:	524b434c 	subpl	r4, fp, #76, 6	; 0x30000001
     ce0:	52464100 	subpl	r4, r6, #0, 2
     ce4:	49504700 	ldmdbmi	r0, {r8, r9, sl, lr}^
     ce8:	79545f4f 	ldmdbvc	r4, {r0, r1, r2, r3, r6, r8, r9, sl, fp, ip, lr}^
     cec:	65446570 	strbvs	r6, [r4, #-1392]	; 0xfffffa90
     cf0:	454d0066 	strbmi	r0, [sp, #-102]	; 0xffffff9a
     cf4:	504d524d 	subpl	r5, sp, sp, asr #4
     cf8:	434d5000 	movtmi	r5, #53248	; 0xd000
     cfc:	54584500 	ldrbpl	r4, [r8], #-1280	; 0xfffffb00
     d00:	00524349 	subseq	r4, r2, r9, asr #6
     d04:	45534552 	ldrbmi	r4, [r3, #-1362]	; 0xfffffaae
     d08:	44455652 	strbmi	r5, [r5], #-1618	; 0xfffff9ae
     d0c:	52424300 	subpl	r4, r2, #0, 6
     d10:	504d4300 	subpl	r4, sp, r0, lsl #6
     d14:	53005243 	movwpl	r5, #579	; 0x243
     d18:	46435359 			; <UNDEFINED> instruction: 0x46435359
     d1c:	79545f47 	ldmdbvc	r4, {r0, r1, r2, r6, r8, r9, sl, fp, ip, lr}^
     d20:	65446570 	strbvs	r6, [r4, #-1392]	; 0xfffffa90
     d24:	6e690066 	cdpvs	0, 6, cr0, cr9, cr6, {3}
     d28:	6e690074 	mcrvs	0, 3, r0, cr9, cr4, {3}
     d2c:	5f323374 	svcpl	0x00323374
     d30:	53490074 	movtpl	r0, #36980	; 0x9074
     d34:	49005245 	stmdbmi	r0, {r0, r2, r6, r9, ip, lr}
     d38:	00524543 	subseq	r4, r2, r3, asr #10
     d3c:	52505349 	subspl	r5, r0, #603979777	; 0x24000001
     d40:	50434900 	subpl	r4, r3, r0, lsl #18
     d44:	41490052 	qdaddmi	r0, r2, r9
     d48:	49005242 	stmdbmi	r0, {r1, r6, r9, ip, lr}
     d4c:	54530050 	ldrbpl	r0, [r3], #-80	; 0xffffffb0
     d50:	4e005249 	cdpmi	2, 0, cr5, cr0, cr9, {2}
     d54:	5f434956 	svcpl	0x00434956
     d58:	65707954 	ldrbvs	r7, [r0, #-2388]!	; 0xfffff6ac
     d5c:	55504300 	ldrbpl	r4, [r0, #-768]	; 0xfffffd00
     d60:	49004449 	stmdbmi	r0, {r0, r3, r6, sl, lr}
     d64:	00525343 	subseq	r5, r2, r3, asr #6
     d68:	524f5456 	subpl	r5, pc, #1442840576	; 0x56000000
     d6c:	52494100 	subpl	r4, r9, #0, 2
     d70:	53005243 	movwpl	r5, #579	; 0x243
     d74:	43005243 	movwmi	r5, #579	; 0x243
     d78:	53005243 	movwpl	r5, #579	; 0x243
     d7c:	00525048 	subseq	r5, r2, r8, asr #32
     d80:	53434853 	movtpl	r4, #14419	; 0x3853
     d84:	46430052 			; <UNDEFINED> instruction: 0x46430052
     d88:	48005253 	stmdami	r0, {r0, r1, r4, r6, r9, ip, lr}
     d8c:	00525346 	subseq	r5, r2, r6, asr #6
     d90:	52534644 	subspl	r4, r3, #68, 12	; 0x4400000
     d94:	464d4d00 	strbmi	r4, [sp], -r0, lsl #26
     d98:	42005241 	andmi	r5, r0, #268435460	; 0x10000004
     d9c:	00524146 	subseq	r4, r2, r6, asr #2
     da0:	52534641 	subspl	r4, r3, #68157440	; 0x4100000
     da4:	5f444900 	svcpl	0x00444900
     da8:	00524650 	subseq	r4, r2, r0, asr r6
     dac:	445f4449 	ldrbmi	r4, [pc], #-1097	; db4 <__Vectors_Size+0xbbc>
     db0:	49005246 	stmdbmi	r0, {r1, r2, r6, r9, ip, lr}
     db4:	46415f44 	strbmi	r5, [r1], -r4, asr #30
     db8:	44490052 	strbmi	r0, [r9], #-82	; 0xffffffae
     dbc:	52464d5f 	subpl	r4, r6, #6080	; 0x17c0
     dc0:	5f444900 	svcpl	0x00444900
     dc4:	52415349 	subpl	r5, r1, #603979777	; 0x24000001
     dc8:	494c4300 	stmdbmi	ip, {r8, r9, lr}^
     dcc:	43005244 	movwmi	r5, #580	; 0x244
     dd0:	43005254 	movwmi	r5, #596	; 0x254
     dd4:	44495343 	strbmi	r5, [r9], #-835	; 0xfffffcbd
     dd8:	53430052 	movtpl	r0, #12370	; 0x3052
     ddc:	524c4553 	subpl	r4, ip, #348127232	; 0x14c00000
     de0:	41504300 	cmpmi	r0, r0, lsl #6
     de4:	4d005243 	sfmmi	f5, 4, [r0, #-268]	; 0xfffffef4
     de8:	30524656 	subscc	r4, r2, r6, asr r6
     dec:	46564d00 	ldrbmi	r4, [r6], -r0, lsl #26
     df0:	4d003152 	stfmis	f3, [r0, #-328]	; 0xfffffeb8
     df4:	32524656 	subscc	r4, r2, #90177536	; 0x5600000
     df8:	49434900 	stmdbmi	r3, {r8, fp, lr}^
     dfc:	554c4c41 	strbpl	r4, [ip, #-3137]	; 0xfffff3bf
     e00:	49434900 	stmdbmi	r3, {r8, fp, lr}^
     e04:	5541564d 	strbpl	r5, [r1, #-1613]	; 0xfffff9b3
     e08:	49434400 	stmdbmi	r3, {sl, lr}^
     e0c:	4341564d 	movtmi	r5, #5709	; 0x164d
     e10:	49434400 	stmdbmi	r3, {sl, lr}^
     e14:	44005753 	strmi	r5, [r0], #-1875	; 0xfffff8ad
     e18:	564d4343 	strbpl	r4, [sp], -r3, asr #6
     e1c:	44005541 	strmi	r5, [r0], #-1345	; 0xfffffabf
     e20:	564d4343 	strbpl	r4, [sp], -r3, asr #6
     e24:	44004341 	strmi	r4, [r0], #-833	; 0xfffffcbf
     e28:	57534343 	ldrbpl	r4, [r3, -r3, asr #6]
     e2c:	43434400 	movtmi	r4, #13312	; 0x3400
     e30:	41564d49 	cmpmi	r6, r9, asr #26
     e34:	43440043 	movtmi	r0, #16451	; 0x4043
     e38:	57534943 	ldrbpl	r4, [r3, -r3, asr #18]
     e3c:	49504200 	ldmdbmi	r0, {r9, lr}^
     e40:	004c4c41 	subeq	r4, ip, r1, asr #24
     e44:	45534552 	ldrbmi	r4, [r3, #-1362]	; 0xfffffaae
     e48:	44455652 	strbmi	r5, [r5], #-1618	; 0xfffff9ae
     e4c:	54490037 	strbpl	r0, [r9], #-55	; 0xffffffc9
     e50:	52434d43 	subpl	r4, r3, #4288	; 0x10c0
     e54:	43544400 	cmpmi	r4, #0, 8
     e58:	0052434d 	subseq	r4, r2, sp, asr #6
     e5c:	50424841 	subpl	r4, r2, r1, asr #16
     e60:	43005243 	movwmi	r5, #579	; 0x243
     e64:	00524341 	subseq	r4, r2, r1, asr #6
     e68:	53424841 	movtpl	r4, #10305	; 0x2841
     e6c:	52005243 	andpl	r5, r0, #805306372	; 0x30000004
     e70:	52455345 	subpl	r5, r5, #335544321	; 0x14000001
     e74:	38444556 	stmdacc	r4, {r1, r2, r4, r6, r8, sl, lr}^
     e78:	46424100 	strbmi	r4, [r2], -r0, lsl #2
     e7c:	53005253 	movwpl	r5, #595	; 0x253
     e80:	545f4243 	ldrbpl	r4, [pc], #-579	; e88 <__Vectors_Size+0xc90>
     e84:	00657079 	rsbeq	r7, r5, r9, ror r0
     e88:	54545542 	ldrbpl	r5, [r4], #-1346	; 0xfffffabe
     e8c:	5f534e4f 	svcpl	0x00534e4f
     e90:	74696e49 	strbtvc	r6, [r9], #-3657	; 0xfffff1b7
     e94:	54554200 	ldrbpl	r4, [r5], #-512	; 0xfffffe00
     e98:	534e4f54 	movtpl	r4, #61268	; 0xef54
     e9c:	696e495f 	stmdbvs	lr!, {r0, r1, r2, r3, r4, r6, r8, fp, lr}^
     ea0:	49504774 	ldmdbmi	r0, {r2, r4, r5, r6, r8, r9, sl, lr}^
     ea4:	5542004f 	strbpl	r0, [r2, #-79]	; 0xffffffb1
     ea8:	4e4f5454 	mcrmi	4, 2, r5, cr15, cr4, {2}
     eac:	6e495f53 	mcrvs	15, 2, r5, cr9, cr3, {2}
     eb0:	6e497469 	cdpvs	4, 4, cr7, cr9, cr9, {3}
     eb4:	72726574 	rsbsvc	r6, r2, #116, 10	; 0x1d000000
     eb8:	73747075 	cmnvc	r4, #117	; 0x75
     ebc:	54554200 	ldrbpl	r4, [r5], #-512	; 0xfffffe00
     ec0:	534e4f54 	movtpl	r4, #61268	; 0xef54
     ec4:	4d49545f 	cfstrdmi	mvd5, [r9, #-380]	; 0xfffffe84
     ec8:	6e495f32 	mcrvs	15, 2, r5, cr9, cr2, {1}
     ecc:	45007469 	strmi	r7, [r0, #-1129]	; 0xfffffb97
     ed0:	31495458 	cmpcc	r9, r8, asr r4
     ed4:	30315f35 	eorscc	r5, r1, r5, lsr pc
     ed8:	5152495f 	cmppl	r2, pc, asr r9
     edc:	646e6148 	strbtvs	r6, [lr], #-328	; 0xfffffeb8
     ee0:	0072656c 	rsbseq	r6, r2, ip, ror #10
     ee4:	49545845 	ldmdbmi	r4, {r0, r2, r6, fp, ip, lr}^
     ee8:	52495f32 	subpl	r5, r9, #50, 30	; 0xc8
     eec:	6e614851 	mcrvs	8, 3, r4, cr1, cr1, {2}
     ef0:	72656c64 	rsbvc	r6, r5, #100, 24	; 0x6400
     ef4:	54584500 	ldrbpl	r4, [r8], #-1280	; 0xfffffb00
     ef8:	495f3449 	ldmdbmi	pc, {r0, r3, r6, sl, ip, sp}^	; <UNPREDICTABLE>
     efc:	61485152 	cmpvs	r8, r2, asr r1
     f00:	656c646e 	strbvs	r6, [ip, #-1134]!	; 0xfffffb92
     f04:	58450072 	stmdapl	r5, {r1, r4, r5, r6}^
     f08:	5f334954 	svcpl	0x00334954
     f0c:	48515249 	ldmdami	r1, {r0, r3, r6, r9, ip, lr}^
     f10:	6c646e61 	stclvs	14, cr6, [r4], #-388	; 0xfffffe7c
     f14:	42007265 	andmi	r7, r0, #1342177286	; 0x50000006
     f18:	4f545455 	svcmi	0x00545455
     f1c:	4b5f534e 	blmi	17d5c5c <__Vectors_Size+0x17d5a64>
     f20:	74537965 	ldrbvc	r7, [r3], #-2405	; 0xfffff69b
     f24:	00657461 	rsbeq	r7, r5, r1, ror #8
     f28:	324d4954 	subcc	r4, sp, #84, 18	; 0x150000
     f2c:	5152495f 	cmppl	r2, pc, asr r9
     f30:	646e6148 	strbtvs	r6, [lr], #-328	; 0xfffffeb8
     f34:	0072656c 	rsbseq	r6, r2, ip, ror #10
     f38:	564e5f5f 			; <UNDEFINED> instruction: 0x564e5f5f
     f3c:	535f4349 	cmppl	pc, #603979777	; 0x24000001
     f40:	72507465 	subsvc	r7, r0, #1694498816	; 0x65000000
     f44:	69726f69 	ldmdbvs	r2!, {r0, r3, r5, r6, r8, r9, sl, fp, sp, lr}^
     f48:	5f007974 	svcpl	0x00007974
     f4c:	49564e5f 	ldmdbmi	r6, {r0, r1, r2, r3, r4, r6, r9, sl, fp, lr}^
     f50:	6e455f43 	cdpvs	15, 4, cr5, cr5, cr3, {2}
     f54:	656c6261 	strbvs	r6, [ip, #-609]!	; 0xfffffd9f
     f58:	00515249 	subseq	r5, r1, r9, asr #4
     f5c:	6e515249 	cdpvs	2, 5, cr5, cr1, cr9, {2}
     f60:	51524900 	cmppl	r2, r0, lsl #18
     f64:	79545f6e 	ldmdbvc	r4, {r1, r2, r3, r5, r6, r8, r9, sl, fp, ip, lr}^
     f68:	70006570 	andvc	r6, r0, r0, ror r5
     f6c:	726f6972 	rsbvc	r6, pc, #1867776	; 0x1c8000
     f70:	00797469 	rsbseq	r7, r9, r9, ror #8
     f74:	706d6f43 	rsbvc	r6, sp, r3, asr #30
     f78:	6e656e6f 	cdpvs	14, 6, cr6, cr5, cr15, {3}
     f7c:	41203a74 			; <UNDEFINED> instruction: 0x41203a74
     f80:	43206d72 			; <UNDEFINED> instruction: 0x43206d72
     f84:	69706d6f 	ldmdbvs	r0!, {r0, r1, r2, r3, r5, r6, r8, sl, fp, sp, lr}^
     f88:	2072656c 	rsbscs	r6, r2, ip, ror #10
     f8c:	20726f66 	rsbscs	r6, r2, r6, ror #30
     f90:	65626d45 	strbvs	r6, [r2, #-3397]!	; 0xfffff2bb
     f94:	64656464 	strbtvs	r6, [r5], #-1124	; 0xfffffb9c
     f98:	312e3620 			; <UNDEFINED> instruction: 0x312e3620
     f9c:	6f542039 	svcvs	0x00542039
     fa0:	203a6c6f 	eorscs	r6, sl, pc, ror #24
     fa4:	636d7261 	cmnvs	sp, #268435462	; 0x10000006
     fa8:	676e616c 	strbvs	r6, [lr, -ip, ror #2]!
     fac:	65355b20 	ldrvs	r5, [r5, #-2848]!	; 0xfffff4e0
     fb0:	62633337 	rsbvs	r3, r3, #-603979776	; 0xdc000000
     fb4:	005d3030 	subseq	r3, sp, r0, lsr r0
     fb8:	31316873 	teqcc	r1, r3, ror r8
     fbc:	632e3630 			; <UNDEFINED> instruction: 0x632e3630
     fc0:	5c3a4400 	cfldrspl	mvf4, [sl], #-0
     fc4:	636f4423 	cmnvs	pc, #587202560	; 0x23000000
     fc8:	6e656d75 	mcrvs	13, 3, r6, cr5, cr5, {3}
     fcc:	555c7374 	ldrbpl	r7, [ip, #-884]	; 0xfffffc8c
     fd0:	49534956 	ldmdbmi	r3, {r1, r2, r4, r6, r8, fp, lr}^
     fd4:	535c4e4f 	cmppl	ip, #1264	; 0x4f0
     fd8:	5452414d 	ldrbpl	r4, [r2], #-333	; 0xfffffeb3
     fdc:	4b41575f 	blmi	1056d60 <__Vectors_Size+0x1056b68>
     fe0:	50555f45 	subspl	r5, r5, r5, asr #30
     fe4:	31485300 	mrscc	r5, (UNDEF: 120)
     fe8:	5f363031 	svcpl	0x00363031
     fec:	5f4e494d 	svcpl	0x004e494d
     ff0:	49435341 	stmdbmi	r3, {r0, r6, r8, r9, ip, lr}^
     ff4:	41565f49 	cmpmi	r6, r9, asr #30
     ff8:	0045554c 	subeq	r5, r5, ip, asr #10
     ffc:	69736e75 	ldmdbvs	r3!, {r0, r2, r4, r5, r6, r9, sl, fp, sp, lr}^
    1000:	64656e67 	strbtvs	r6, [r5], #-3687	; 0xfffff199
    1004:	61686320 	cmnvs	r8, r0, lsr #6
    1008:	69750072 	ldmdbvs	r5!, {r1, r4, r5, r6}^
    100c:	5f38746e 	svcpl	0x0038746e
    1010:	48530074 	ldmdami	r3, {r2, r4, r5, r6}^
    1014:	36303131 			; <UNDEFINED> instruction: 0x36303131
    1018:	58414d5f 	stmdapl	r1, {r0, r1, r2, r3, r4, r6, r8, sl, fp, lr}^
    101c:	4353415f 	cmpmi	r3, #-1073741801	; 0xc0000017
    1020:	565f4949 	ldrbpl	r4, [pc], -r9, asr #18
    1024:	45554c41 	ldrbmi	r4, [r5, #-3137]	; 0xfffff3bf
    1028:	31485300 	mrscc	r5, (UNDEF: 120)
    102c:	5f363031 	svcpl	0x00363031
    1030:	49435341 	stmdbmi	r3, {r0, r6, r8, r9, ip, lr}^
    1034:	464f5f49 	strbmi	r5, [pc], -r9, asr #30
    1038:	54455346 	strbpl	r5, [r5], #-838	; 0xfffffcba
    103c:	31485300 	mrscc	r5, (UNDEF: 120)
    1040:	5f363031 	svcpl	0x00363031
    1044:	66667542 	strbtvs	r7, [r6], -r2, asr #10
    1048:	5f007265 	svcpl	0x00007265
    104c:	5252415f 	subspl	r4, r2, #-1073741801	; 0xc0000017
    1050:	535f5941 	cmppl	pc, #1064960	; 0x104000
    1054:	5f455a49 	svcpl	0x00455a49
    1058:	45505954 	ldrbmi	r5, [r0, #-2388]	; 0xfffff6ac
    105c:	57005f5f 	smlsdpl	r0, pc, pc, r5	; <UNPREDICTABLE>
    1060:	48544449 	ldmdami	r4, {r0, r3, r6, sl, lr}^
    1064:	49454800 	stmdbmi	r5, {fp, lr}^
    1068:	00544847 	subseq	r4, r4, r7, asr #16
    106c:	31314853 	teqcc	r1, r3, asr r8
    1070:	445f3630 	ldrbmi	r3, [pc], #-1584	; 1078 <__Vectors_Size+0xe80>
    1074:	5f415441 	svcpl	0x00415441
    1078:	455a4953 	ldrbmi	r4, [sl, #-2387]	; 0xfffff6ad
    107c:	31485300 	mrscc	r5, (UNDEF: 120)
    1080:	5f363031 	svcpl	0x00363031
    1084:	454d4944 	strbmi	r4, [sp, #-2372]	; 0xfffff6bc
    1088:	4f49534e 	svcmi	0x0049534e
    108c:	5800534e 	stmdapl	r0, {r1, r2, r3, r6, r8, r9, ip, lr}
    1090:	6576654c 	ldrbvs	r6, [r6, #-1356]!	; 0xfffffab4
    1094:	58004c6c 	stmdapl	r0, {r2, r3, r5, r6, sl, fp, lr}
    1098:	6576654c 	ldrbvs	r6, [r6, #-1356]!	; 0xfffffab4
    109c:	5900486c 	stmdbpl	r0, {r2, r3, r5, r6, fp, lr}
    10a0:	6576654c 	ldrbvs	r6, [r6, #-1356]!	; 0xfffffab4
    10a4:	4944006c 	stmdbmi	r4, {r2, r3, r5, r6}^
    10a8:	414c5053 	qdaddmi	r5, r3, ip
    10ac:	464f5f59 			; <UNDEFINED> instruction: 0x464f5f59
    10b0:	49440046 	stmdbmi	r4, {r1, r2, r6}^
    10b4:	414c5053 	qdaddmi	r5, r3, ip
    10b8:	4e4f5f59 	mcrmi	15, 2, r5, cr15, cr9, {2}
    10bc:	53494400 	movtpl	r4, #37888	; 0x9400
    10c0:	59414c50 	stmdbpl	r1, {r4, r6, sl, fp, lr}^
    10c4:	4b4c435f 	blmi	1311e48 <__Vectors_Size+0x1311c50>
    10c8:	4c554d00 	mrrcmi	13, 0, r4, r5, cr0
    10cc:	5f584954 	svcpl	0x00584954
    10d0:	00544152 	subseq	r4, r4, r2, asr r1
    10d4:	50534944 	subspl	r4, r3, r4, asr #18
    10d8:	5f59414c 	svcpl	0x0059414c
    10dc:	5346464f 	movtpl	r4, #26191	; 0x664f
    10e0:	44005445 	strmi	r5, [r0], #-1093	; 0xfffffbbb
    10e4:	4c505349 	mrrcmi	3, 4, r5, r0, cr9
    10e8:	535f5941 	cmppl	pc, #1064960	; 0x104000
    10ec:	54524154 	ldrbpl	r4, [r2], #-340	; 0xfffffeac
    10f0:	454e494c 	strbmi	r4, [lr, #-2380]	; 0xfffff6b4
    10f4:	54455300 	strbpl	r5, [r5], #-768	; 0xfffffd00
    10f8:	4443445f 	strbmi	r4, [r3], #-1119	; 0xfffffba1
    10fc:	45530043 	ldrbmi	r0, [r3, #-67]	; 0xffffffbd
    1100:	45535f54 	ldrbmi	r5, [r3, #-3924]	; 0xfffff0ac
    1104:	4e454d47 	cdpmi	13, 4, cr4, cr5, cr7, {2}
    1108:	45530054 	ldrbmi	r0, [r3, #-84]	; 0xffffffac
    110c:	4f435f54 	svcmi	0x00435f54
    1110:	554f5f4d 	strbpl	r5, [pc, #-3917]	; 1cb <BuildAttributes$$THM_ISAv4$E$P$D$K$B$S$7EM$VFPv5_D16$PE$PLD8$A:L22UL41UL21$X:L11$S22US41US21$IEEE1$IW$~IW$USESV6$~STKCKD$USESV7$~SHL$OTIME$ROPI$IEEEJ$EBA8$UX$STANDARDLIB$REQ8$PRES8$EABIv2+0x1cb>
    1114:	43535f54 	cmpmi	r3, #84, 30	; 0x150
    1118:	445f4e41 	ldrbmi	r4, [pc], #-3649	; 1120 <__Vectors_Size+0xf28>
    111c:	53005249 	movwpl	r5, #585	; 0x249
    1120:	435f5445 	cmpmi	pc, #1157627904	; 0x45000000
    1124:	485f4d4f 	ldmdami	pc, {r0, r1, r2, r3, r6, r8, sl, fp, lr}^	; <UNPREDICTABLE>
    1128:	00445241 	subeq	r5, r4, r1, asr #4
    112c:	5f544553 	svcpl	0x00544553
    1130:	544e4f43 	strbpl	r4, [lr], #-3907	; 0xfffff0bd
    1134:	54534152 	ldrbpl	r4, [r3], #-338	; 0xfffffeae
    1138:	54455300 	strbpl	r5, [r5], #-768	; 0xfffffd00
    113c:	4552505f 	ldrbmi	r5, [r2, #-95]	; 0xffffffa1
    1140:	52414843 	subpl	r4, r1, #4390912	; 0x430000
    1144:	53004547 	movwpl	r4, #1351	; 0x547
    1148:	565f5445 	ldrbpl	r5, [pc], -r5, asr #8
    114c:	004d4f43 	subeq	r4, sp, r3, asr #30
    1150:	52415453 	subpl	r5, r1, #1392508928	; 0x53000000
    1154:	494c5f54 	stmdbmi	ip, {r2, r4, r6, r8, r9, sl, fp, ip, lr}^
    1158:	4e00454e 	cfsh32mi	mvfx4, mvfx0, #46
    115c:	414d524f 	cmpmi	sp, pc, asr #4
    1160:	49445f4c 	stmdbmi	r4, {r2, r3, r6, r8, r9, sl, fp, ip, lr}^
    1164:	414c5053 	qdaddmi	r5, r3, ip
    1168:	45520059 	ldrbmi	r0, [r2, #-89]	; 0xffffffa7
    116c:	53524556 	cmppl	r2, #360710144	; 0x15800000
    1170:	49445f45 	stmdbmi	r4, {r0, r2, r6, r8, r9, sl, fp, ip, lr}^
    1174:	414c5053 	qdaddmi	r5, r3, ip
    1178:	4e450059 	mcrmi	0, 2, r0, cr5, cr9, {2}
    117c:	45524954 	ldrbmi	r4, [r2, #-2388]	; 0xfffff6ac
    1180:	5349445f 	movtpl	r4, #37983	; 0x945f
    1184:	59414c50 	stmdbpl	r1, {r4, r6, sl, fp, lr}^
    1188:	46464f5f 			; <UNDEFINED> instruction: 0x46464f5f
    118c:	544e4500 	strbpl	r4, [lr], #-1280	; 0xfffffb00
    1190:	5f455249 	svcpl	0x00455249
    1194:	50534944 	subspl	r4, r3, r4, asr #18
    1198:	5f59414c 	svcpl	0x0059414c
    119c:	53004e4f 	movwpl	r4, #3663	; 0xe4f
    11a0:	30313148 	eorscc	r3, r1, r8, asr #2
    11a4:	4f435f36 	svcmi	0x00435f36
    11a8:	4e414d4d 	cdpmi	13, 4, cr4, cr1, cr13, {2}
    11ac:	4d005344 	stcmi	3, cr5, [r0, #-272]	; 0xfffffef0
    11b0:	5245444f 	subpl	r4, r5, #1325400064	; 0x4f000000
    11b4:	736e7500 	cmnvc	lr, #0, 10
    11b8:	656e6769 	strbvs	r6, [lr, #-1897]!	; 0xfffff897
    11bc:	6e692064 	cdpvs	0, 6, cr2, cr9, cr4, {3}
    11c0:	69750074 	ldmdbvs	r5!, {r2, r4, r5, r6}^
    11c4:	3233746e 	eorscc	r7, r3, #1845493760	; 0x6e000000
    11c8:	4f00745f 	svcmi	0x0000745f
    11cc:	45505954 	ldrbmi	r5, [r0, #-2388]	; 0xfffff6ac
    11d0:	534f0052 	movtpl	r0, #61522	; 0xf052
    11d4:	44454550 	strbmi	r4, [r5], #-1360	; 0xfffffab0
    11d8:	55500052 	ldrbpl	r0, [r0, #-82]	; 0xffffffae
    11dc:	00524450 	subseq	r4, r2, r0, asr r4
    11e0:	00524449 	subseq	r4, r2, r9, asr #8
    11e4:	0052444f 	subseq	r4, r2, pc, asr #8
    11e8:	52525342 	subspl	r5, r2, #134217729	; 0x8000001
    11ec:	4b434c00 	blmi	10d41f4 <__Vectors_Size+0x10d3ffc>
    11f0:	46410052 			; <UNDEFINED> instruction: 0x46410052
    11f4:	50470052 	subpl	r0, r7, r2, asr r0
    11f8:	545f4f49 	ldrbpl	r4, [pc], #-3913	; 1200 <__Vectors_Size+0x1008>
    11fc:	44657079 	strbtmi	r7, [r5], #-121	; 0xffffff87
    1200:	43006665 	movwmi	r6, #1637	; 0x665
    1204:	43003152 	movwmi	r3, #338	; 0x152
    1208:	53003252 	movwpl	r3, #594	; 0x252
    120c:	52440052 	subpl	r0, r4, #82	; 0x52
    1210:	43524300 	cmpmi	r2, #0, 6
    1214:	52005250 	andpl	r5, r0, #80, 4
    1218:	43524358 	cmpmi	r2, #88, 6	; 0x60000001
    121c:	58540052 	ldmdapl	r4, {r1, r4, r6}^
    1220:	52435243 	subpl	r5, r3, #805306372	; 0x30000004
    1224:	53324900 	teqpl	r2, #0, 18
    1228:	52474643 	subpl	r4, r7, #70254592	; 0x4300000
    122c:	53324900 	teqpl	r2, #0, 18
    1230:	53005250 	movwpl	r5, #592	; 0x250
    1234:	545f4950 	ldrbpl	r4, [pc], #-2384	; 123c <__Vectors_Size+0x1044>
    1238:	44657079 	strbtmi	r7, [r5], #-121	; 0xffffff87
    123c:	43006665 	movwmi	r6, #1637	; 0x665
    1240:	4c500052 	mrrcmi	0, 5, r0, r0, cr2	; <UNPREDICTABLE>
    1244:	4746434c 	strbmi	r4, [r6, -ip, asr #6]
    1248:	46430052 			; <UNDEFINED> instruction: 0x46430052
    124c:	43005247 	movwmi	r5, #583	; 0x247
    1250:	41005249 	tstmi	r0, r9, asr #4
    1254:	52314248 	eorspl	r4, r1, #72, 4	; 0x80000004
    1258:	00525453 	subseq	r5, r2, r3, asr r4
    125c:	32424841 	subcc	r4, r2, #4259840	; 0x410000
    1260:	52545352 	subspl	r5, r4, #1207959553	; 0x48000001
    1264:	42484100 	submi	r4, r8, #0, 2
    1268:	54535233 	ldrbpl	r5, [r3], #-563	; 0xfffffdcd
    126c:	45520052 	ldrbmi	r0, [r2, #-82]	; 0xffffffae
    1270:	56524553 			; <UNDEFINED> instruction: 0x56524553
    1274:	00304445 	eorseq	r4, r0, r5, asr #8
    1278:	31425041 	cmpcc	r2, r1, asr #32
    127c:	52545352 	subspl	r5, r4, #1207959553	; 0x48000001
    1280:	42504100 	subsmi	r4, r0, #0, 2
    1284:	54535232 	ldrbpl	r5, [r3], #-562	; 0xfffffdce
    1288:	45520052 	ldrbmi	r0, [r2, #-82]	; 0xffffffae
    128c:	56524553 			; <UNDEFINED> instruction: 0x56524553
    1290:	00314445 	eorseq	r4, r1, r5, asr #8
    1294:	31424841 	cmpcc	r2, r1, asr #16
    1298:	00524e45 	subseq	r4, r2, r5, asr #28
    129c:	32424841 	subcc	r4, r2, #4259840	; 0x410000
    12a0:	00524e45 	subseq	r4, r2, r5, asr #28
    12a4:	33424841 	movtcc	r4, #10305	; 0x2841
    12a8:	00524e45 	subseq	r4, r2, r5, asr #28
    12ac:	45534552 	ldrbmi	r4, [r3, #-1362]	; 0xfffffaae
    12b0:	44455652 	strbmi	r5, [r5], #-1618	; 0xfffff9ae
    12b4:	50410032 	subpl	r0, r1, r2, lsr r0
    12b8:	4e453142 	dvfmism	f3, f5, f2
    12bc:	50410052 	subpl	r0, r1, r2, asr r0
    12c0:	4e453242 	cdpmi	2, 4, cr3, cr5, cr2, {2}
    12c4:	45520052 	ldrbmi	r0, [r2, #-82]	; 0xffffffae
    12c8:	56524553 			; <UNDEFINED> instruction: 0x56524553
    12cc:	00334445 	eorseq	r4, r3, r5, asr #8
    12d0:	31424841 	cmpcc	r2, r1, asr #16
    12d4:	4e45504c 	cdpmi	0, 4, cr5, cr5, cr12, {2}
    12d8:	48410052 	stmdami	r1, {r1, r4, r6}^
    12dc:	504c3242 	subpl	r3, ip, r2, asr #4
    12e0:	00524e45 	subseq	r4, r2, r5, asr #28
    12e4:	33424841 	movtcc	r4, #10305	; 0x2841
    12e8:	4e45504c 	cdpmi	0, 4, cr5, cr5, cr12, {2}
    12ec:	45520052 	ldrbmi	r0, [r2, #-82]	; 0xffffffae
    12f0:	56524553 			; <UNDEFINED> instruction: 0x56524553
    12f4:	00344445 	eorseq	r4, r4, r5, asr #8
    12f8:	31425041 	cmpcc	r2, r1, asr #32
    12fc:	4e45504c 	cdpmi	0, 4, cr5, cr5, cr12, {2}
    1300:	50410052 	subpl	r0, r1, r2, asr r0
    1304:	504c3242 	subpl	r3, ip, r2, asr #4
    1308:	00524e45 	subseq	r4, r2, r5, asr #28
    130c:	45534552 	ldrbmi	r4, [r3, #-1362]	; 0xfffffaae
    1310:	44455652 	strbmi	r5, [r5], #-1618	; 0xfffff9ae
    1314:	44420035 	strbmi	r0, [r2], #-53	; 0xffffffcb
    1318:	43005243 	movwmi	r5, #579	; 0x243
    131c:	52005253 	andpl	r5, r0, #805306373	; 0x30000005
    1320:	52455345 	subpl	r5, r5, #335544321	; 0x14000001
    1324:	36444556 			; <UNDEFINED> instruction: 0x36444556
    1328:	43535300 	cmpmi	r3, #0, 6
    132c:	50005247 	andpl	r5, r0, r7, asr #4
    1330:	32494c4c 	subcc	r4, r9, #76, 24	; 0x4c00
    1334:	47464353 	smlsldmi	r4, r6, r3, r3
    1338:	4c500052 	mrrcmi	0, 5, r0, r0, cr2	; <UNPREDICTABLE>
    133c:	4941534c 	stmdbmi	r1, {r2, r3, r6, r8, r9, ip, lr}^
    1340:	52474643 	subpl	r4, r7, #70254592	; 0x4300000
    1344:	4b434400 	blmi	10d234c <__Vectors_Size+0x10d2154>
    1348:	52474643 	subpl	r4, r7, #70254592	; 0x4300000
    134c:	43440031 	movtmi	r0, #16433	; 0x4031
    1350:	4746434b 	strbmi	r4, [r6, -fp, asr #6]
    1354:	52003252 	andpl	r3, r0, #536870917	; 0x20000005
    1358:	545f4343 	ldrbpl	r4, [pc], #-835	; 1360 <__Vectors_Size+0x1168>
    135c:	44657079 	strbtmi	r7, [r5], #-121	; 0xffffff87
    1360:	53006665 	movwpl	r6, #1637	; 0x665
    1364:	30313148 	eorscc	r3, r1, r8, asr #2
    1368:	65535f36 	ldrbvs	r5, [r3, #-3894]	; 0xfffff0ca
    136c:	7542646e 	strbvc	r6, [r2, #-1134]	; 0xfffffb92
    1370:	72656666 	rsbvc	r6, r5, #106954752	; 0x6600000
    1374:	31485300 	mrscc	r5, (UNDEF: 120)
    1378:	5f363031 	svcpl	0x00363031
    137c:	646e6553 	strbtvs	r6, [lr], #-1363	; 0xfffffaad
    1380:	00646d43 	rsbeq	r6, r4, r3, asr #26
    1384:	31314853 	teqcc	r1, r3, asr r8
    1388:	535f3630 	cmppl	pc, #48, 12	; 0x3000000
    138c:	44646e65 	strbtmi	r6, [r4], #-3685	; 0xfffff19b
    1390:	00617461 	rsbeq	r7, r1, r1, ror #8
    1394:	31314853 	teqcc	r1, r3, asr r8
    1398:	535f3630 	cmppl	pc, #48, 12	; 0x3000000
    139c:	69507465 	ldmdbvs	r0, {r0, r2, r5, r6, sl, ip, sp, lr}^
    13a0:	006c6578 	rsbeq	r6, ip, r8, ror r5
    13a4:	31314853 	teqcc	r1, r3, asr r8
    13a8:	465f3630 			; <UNDEFINED> instruction: 0x465f3630
    13ac:	50746e6f 	rsbspl	r6, r4, pc, ror #28
    13b0:	746e6972 	strbtvc	r6, [lr], #-2418	; 0xfffff68e
    13b4:	31485300 	mrscc	r5, (UNDEF: 120)
    13b8:	5f363031 	svcpl	0x00363031
    13bc:	77617244 	strbvc	r7, [r1, -r4, asr #4]!
    13c0:	72616843 	rsbvc	r6, r1, #4390912	; 0x430000
    13c4:	65746361 	ldrbvs	r6, [r4, #-865]!	; 0xfffffc9f
    13c8:	48530072 	ldmdami	r3, {r1, r4, r5, r6}^
    13cc:	36303131 			; <UNDEFINED> instruction: 0x36303131
    13d0:	6172445f 	cmnvs	r2, pc, asr r4
    13d4:	6e694c77 	mcrvs	12, 3, r4, cr9, cr7, {3}
    13d8:	48530065 	ldmdami	r3, {r0, r2, r5, r6}^
    13dc:	36303131 			; <UNDEFINED> instruction: 0x36303131
    13e0:	6172445f 	cmnvs	r2, pc, asr r4
    13e4:	63655277 	cmnvs	r5, #1879048199	; 0x70000007
    13e8:	676e6174 			; <UNDEFINED> instruction: 0x676e6174
    13ec:	5300656c 	movwpl	r6, #1388	; 0x56c
    13f0:	30313148 	eorscc	r3, r1, r8, asr #2
    13f4:	72445f36 	subvc	r5, r4, #54, 30	; 0xd8
    13f8:	69467761 	stmdbvs	r6, {r0, r5, r6, r8, r9, sl, ip, sp, lr}^
    13fc:	64656c6c 	strbtvs	r6, [r5], #-3180	; 0xfffff394
    1400:	74636552 	strbtvc	r6, [r3], #-1362	; 0xfffffaae
    1404:	6c676e61 	stclvs	14, cr6, [r7], #-388	; 0xfffffe7c
    1408:	48530065 	ldmdami	r3, {r0, r2, r5, r6}^
    140c:	36303131 			; <UNDEFINED> instruction: 0x36303131
    1410:	6172445f 	cmnvs	r2, pc, asr r4
    1414:	72694377 	rsbvc	r4, r9, #-603979775	; 0xdc000001
    1418:	00656c63 	rsbeq	r6, r5, r3, ror #24
    141c:	31314853 	teqcc	r1, r3, asr r8
    1420:	445f3630 	ldrbmi	r3, [pc], #-1584	; 1428 <__Vectors_Size+0x1230>
    1424:	46776172 			; <UNDEFINED> instruction: 0x46776172
    1428:	656c6c69 	strbvs	r6, [ip, #-3177]!	; 0xfffff397
    142c:	72694364 	rsbvc	r4, r9, #100, 6	; 0x90000001
    1430:	00656c63 	rsbeq	r6, r5, r3, ror #24
    1434:	31314853 	teqcc	r1, r3, asr r8
    1438:	435f3630 	cmpmi	pc, #48, 12	; 0x3000000
    143c:	7261656c 	rsbvc	r6, r1, #108, 10	; 0x1b000000
    1440:	66667542 	strbtvs	r7, [r6], -r2, asr #10
    1444:	53007265 	movwpl	r7, #613	; 0x265
    1448:	30313148 	eorscc	r3, r1, r8, asr #2
    144c:	6e495f36 	mcrvs	15, 2, r5, cr9, cr6, {1}
    1450:	53007469 	movwpl	r7, #1129	; 0x469
    1454:	30313148 	eorscc	r3, r1, r8, asr #2
    1458:	70535f36 	subsvc	r5, r3, r6, lsr pc
    145c:	696e4969 	stmdbvs	lr!, {r0, r3, r5, r6, r8, fp, lr}^
    1460:	48530074 	ldmdami	r3, {r2, r4, r5, r6}^
    1464:	36303131 			; <UNDEFINED> instruction: 0x36303131
    1468:	7365525f 	cmnvc	r5, #-268435451	; 0xf0000005
    146c:	53007465 	movwpl	r7, #1125	; 0x465
    1470:	30313148 	eorscc	r3, r1, r8, asr #2
    1474:	65535f36 	ldrbvs	r5, [r3, #-3894]	; 0xfffff0ca
    1478:	6f44646e 	svcvs	0x0044646e
    147c:	656c6275 	strbvs	r6, [ip, #-629]!	; 0xfffffd8b
    1480:	00646d43 	rsbeq	r6, r4, r3, asr #26
    1484:	31314853 	teqcc	r1, r3, asr r8
    1488:	535f3630 	cmppl	pc, #48, 12	; 0x3000000
    148c:	545f6970 	ldrbpl	r6, [pc], #-2416	; 1494 <__Vectors_Size+0x129c>
    1490:	736e6172 	cmnvc	lr, #-2147483620	; 0x8000001c
    1494:	0074696d 	rsbseq	r6, r4, sp, ror #18
    1498:	6e690069 	cdpvs	0, 6, cr0, cr9, cr9, {3}
    149c:	006e0074 	rsbeq	r0, lr, r4, ror r0
    14a0:	00646d63 	rsbeq	r6, r4, r3, ror #26
    14a4:	00746164 	rsbseq	r6, r4, r4, ror #2
    14a8:	6f6c6f63 	svcvs	0x006c6f63
    14ac:	00780072 	rsbseq	r0, r8, r2, ror r0
    14b0:	726f6873 	rsbvc	r6, pc, #7536640	; 0x730000
    14b4:	6e690074 	mcrvs	0, 3, r0, cr9, cr4, {3}
    14b8:	5f363174 	svcpl	0x00363174
    14bc:	00790074 	rsbseq	r0, r9, r4, ror r0
    14c0:	65646e69 	strbvs	r6, [r4, #-3689]!	; 0xfffff197
    14c4:	6e750078 	mrcvs	0, 3, r0, cr5, cr8, {3}
    14c8:	6e676973 			; <UNDEFINED> instruction: 0x6e676973
    14cc:	73206465 			; <UNDEFINED> instruction: 0x73206465
    14d0:	74726f68 	ldrbtvc	r6, [r2], #-3944	; 0xfffff098
    14d4:	6e697500 	cdpvs	5, 6, cr7, cr9, cr0, {0}
    14d8:	5f363174 	svcpl	0x00363174
    14dc:	69620074 	stmdbvs	r2!, {r2, r4, r5, r6}^
    14e0:	66664f74 	uqsub16vs	r4, r6, r4
    14e4:	00746573 	rsbseq	r6, r4, r3, ror r5
    14e8:	746e6f66 	strbtvc	r6, [lr], #-3942	; 0xfffff09a
    14ec:	6675625f 			; <UNDEFINED> instruction: 0x6675625f
    14f0:	00726566 	rsbseq	r6, r2, r6, ror #10
    14f4:	6d726f66 	ldclvs	15, cr6, [r2, #-408]!	; 0xfffffe68
    14f8:	63007461 	movwvs	r7, #1121	; 0x461
    14fc:	00726168 	rsbseq	r6, r2, r8, ror #2
    1500:	61746164 	cmnvs	r4, r4, ror #2
    1504:	657a6953 	ldrbvs	r6, [sl, #-2387]!	; 0xfffff6ad
    1508:	6e656c00 	cdpvs	12, 6, cr6, cr5, cr0, {0}
    150c:	00687467 	rsbeq	r7, r8, r7, ror #8
    1510:	67696568 	strbvs	r6, [r9, -r8, ror #10]!
    1514:	62007468 	andvs	r7, r0, #104, 8	; 0x68000000
    1518:	73657479 	cmnvc	r5, #2030043136	; 0x79000000
    151c:	43726550 	cmnmi	r2, #80, 10	; 0x14000000
    1520:	6d756c6f 	ldclvs	12, cr6, [r5, #-444]!	; 0xfffffe44
    1524:	6100736e 	tstvs	r0, lr, ror #6
    1528:	00736772 	rsbseq	r6, r3, r2, ror r7
    152c:	70615f5f 	rsbvc	r5, r1, pc, asr pc
    1530:	765f5f00 	ldrbvc	r5, [pc], -r0, lsl #30
    1534:	696c5f61 	stmdbvs	ip!, {r0, r5, r6, r8, r9, sl, fp, ip, lr}^
    1538:	5f007473 	svcpl	0x00007473
    153c:	6975625f 	ldmdbvs	r5!, {r0, r1, r2, r3, r4, r6, r9, sp, lr}^
    1540:	6e69746c 	cdpvs	4, 6, cr7, cr9, cr12, {3}
    1544:	5f61765f 	svcpl	0x0061765f
    1548:	7473696c 	ldrbtvc	r6, [r3], #-2412	; 0xfffff694
    154c:	5f617600 	svcpl	0x00617600
    1550:	7473696c 	ldrbtvc	r6, [r3], #-2412	; 0xfffff694
    1554:	726f6600 	rsbvc	r6, pc, #0, 12
    1558:	7474616d 	ldrbtvc	r6, [r4], #-365	; 0xfffffe93
    155c:	735f6465 	cmpvc	pc, #1694498816	; 0x65000000
    1560:	6e697274 	mcrvs	2, 3, r7, cr9, cr4, {3}
    1564:	74730067 	ldrbtvc	r0, [r3], #-103	; 0xffffff99
    1568:	75630072 	strbvc	r0, [r3, #-114]!	; 0xffffff8e
    156c:	6e657272 	mcrvs	2, 3, r7, cr5, cr2, {3}
    1570:	61684374 	smcvs	33844	; 0x8434
    1574:	656c0072 	strbvs	r0, [ip, #-114]!	; 0xffffff8e
    1578:	72657474 	rsbvc	r7, r5, #116, 8	; 0x74000000
    157c:	626d754e 	rsbvs	r7, sp, #327155712	; 0x13800000
    1580:	69007265 	stmdbvs	r0, {r0, r2, r5, r6, r9, ip, sp, lr}
    1584:	7865646e 	stmdavc	r5!, {r1, r2, r3, r5, r6, sl, sp, lr}^
    1588:	74654c5f 	strbtvc	r4, [r5], #-3167	; 0xfffff3a1
    158c:	53726574 	cmnpl	r2, #116, 10	; 0x1d000000
    1590:	00657a69 	rsbeq	r7, r5, r9, ror #20
    1594:	7474656c 	ldrbtvc	r6, [r4], #-1388	; 0xfffffa94
    1598:	69537265 	ldmdbvs	r3, {r0, r2, r5, r6, r9, ip, sp, lr}^
    159c:	6300657a 	movwvs	r6, #1402	; 0x57a
    15a0:	6d756c6f 	ldclvs	12, cr6, [r5, #-444]!	; 0xfffffe44
    15a4:	7962006e 	stmdbvc	r2!, {r1, r2, r3, r5, r6}^
    15a8:	6f436574 	svcvs	0x00436574
    15ac:	6e6d756c 	cdpvs	5, 6, cr7, cr13, cr12, {3}
    15b0:	646e6900 	strbtvs	r6, [lr], #-2304	; 0xfffff700
    15b4:	425f7865 	subsmi	r7, pc, #6619136	; 0x650000
    15b8:	65666675 	strbvs	r6, [r6, #-1653]!	; 0xfffff98b
    15bc:	61640072 	smcvs	16386	; 0x4002
    15c0:	62006174 	andvs	r6, r0, #116, 2
    15c4:	70007469 	andvc	r7, r0, r9, ror #8
    15c8:	6c657869 	stclvs	8, cr7, [r5], #-420	; 0xfffffe5c
    15cc:	62006100 	andvs	r6, r0, #0, 2
    15d0:	00307800 	eorseq	r7, r0, r0, lsl #16
    15d4:	78003079 	stmdavc	r0, {r0, r3, r4, r5, r6, ip, sp}
    15d8:	31790031 	cmncc	r9, r1, lsr r0
    15dc:	00786400 	rsbseq	r6, r8, r0, lsl #8
    15e0:	73007964 	movwvc	r7, #2404	; 0x964
    15e4:	79730078 	ldmdbvc	r3!, {r3, r4, r5, r6}^
    15e8:	72726500 	rsbsvc	r6, r2, #0, 10
    15ec:	00326500 	eorseq	r6, r2, r0, lsl #10
    15f0:	00680077 	rsbeq	r0, r8, r7, ror r0
    15f4:	69646172 	stmdbvs	r4!, {r1, r4, r5, r6, r8, sp, lr}^
    15f8:	72007375 	andvc	r7, r0, #-738197503	; 0xd4000001
    15fc:	64006600 	strvs	r6, [r0], #-1536	; 0xfffffa00
    1600:	785f4664 	ldmdavc	pc, {r2, r5, r6, r9, sl, lr}^	; <UNPREDICTABLE>
    1604:	46646400 	strbtmi	r6, [r4], -r0, lsl #8
    1608:	6300795f 	movwvs	r7, #2399	; 0x95f
    160c:	0031646d 	eorseq	r6, r1, sp, ror #8
    1610:	32646d63 	rsbcc	r6, r4, #6336	; 0x18c0
    1614:	6d6f4300 	stclvs	3, cr4, [pc, #-0]	; 161c <__Vectors_Size+0x1424>
    1618:	656e6f70 	strbvs	r6, [lr, #-3952]!	; 0xfffff090
    161c:	203a746e 	eorscs	r7, sl, lr, ror #8
    1620:	206d7241 	rsbcs	r7, sp, r1, asr #4
    1624:	706d6f43 	rsbvc	r6, sp, r3, asr #30
    1628:	72656c69 	rsbvc	r6, r5, #26880	; 0x6900
    162c:	726f6620 	rsbvc	r6, pc, #32, 12	; 0x2000000
    1630:	626d4520 	rsbvs	r4, sp, #32, 10	; 0x8000000
    1634:	65646465 	strbvs	r6, [r4, #-1125]!	; 0xfffffb9b
    1638:	2e362064 	cdpcs	0, 3, cr2, cr6, cr4, {3}
    163c:	54203931 	strtpl	r3, [r0], #-2353	; 0xfffff6cf
    1640:	3a6c6f6f 	bcc	1b1d404 <__Vectors_Size+0x1b1d20c>
    1644:	6d726120 	ldfvse	f6, [r2, #-128]!	; 0xffffff80
    1648:	6e616c63 	cdpvs	12, 6, cr6, cr1, cr3, {3}
    164c:	355b2067 	ldrbcc	r2, [fp, #-103]	; 0xffffff99
    1650:	63333765 	teqvs	r3, #26476544	; 0x1940000
    1654:	5d303062 	ldcpl	0, cr3, [r0, #-392]!	; 0xfffffe78
    1658:	33736400 	cmncc	r3, #0, 8
    165c:	2e313332 	mrccs	3, 1, r3, cr1, cr2, {1}
    1660:	3a440063 	bcc	11017f4 <__Vectors_Size+0x11015fc>
    1664:	6f44235c 	svcvs	0x0044235c
    1668:	656d7563 	strbvs	r7, [sp, #-1379]!	; 0xfffffa9d
    166c:	5c73746e 	cfldrdpl	mvd7, [r3], #-440	; 0xfffffe48
    1670:	53495655 	movtpl	r5, #38485	; 0x9655
    1674:	5c4e4f49 	mcrrpl	15, 4, r4, lr, cr9
    1678:	52414d53 	subpl	r4, r1, #5312	; 0x14c0
    167c:	41575f54 	cmpmi	r7, r4, asr pc
    1680:	555f454b 	ldrbpl	r4, [pc, #-1355]	; 113d <__Vectors_Size+0xf45>
    1684:	53440050 	movtpl	r0, #16464	; 0x4050
    1688:	31333233 	teqcc	r3, r3, lsr r2
    168c:	0053485f 	subseq	r4, r3, pc, asr r8
    1690:	69736e75 	ldmdbvs	r3!, {r0, r2, r4, r5, r6, r9, sl, fp, sp, lr}^
    1694:	64656e67 	strbtvs	r6, [r5], #-3687	; 0xfffff199
    1698:	61686320 	cmnvs	r8, r0, lsr #6
    169c:	69750072 	ldmdbvs	r5!, {r1, r4, r5, r6}^
    16a0:	5f38746e 	svcpl	0x0038746e
    16a4:	52430074 	subpl	r0, r3, #116	; 0x74
    16a8:	736e7500 	cmnvc	lr, #0, 10
    16ac:	656e6769 	strbvs	r6, [lr, #-1897]!	; 0xfffff897
    16b0:	6e692064 	cdpvs	0, 6, cr2, cr9, cr4, {3}
    16b4:	69750074 	ldmdbvs	r5!, {r2, r4, r5, r6}^
    16b8:	3233746e 	eorscc	r7, r3, #1845493760	; 0x6e000000
    16bc:	5000745f 	andpl	r7, r0, pc, asr r4
    16c0:	46434c4c 	strbmi	r4, [r3], -ip, asr #24
    16c4:	43005247 	movwmi	r5, #583	; 0x247
    16c8:	00524746 	subseq	r4, r2, r6, asr #14
    16cc:	00524943 	subseq	r4, r2, r3, asr #18
    16d0:	31424841 	cmpcc	r2, r1, asr #16
    16d4:	52545352 	subspl	r5, r4, #1207959553	; 0x48000001
    16d8:	42484100 	submi	r4, r8, #0, 2
    16dc:	54535232 	ldrbpl	r5, [r3], #-562	; 0xfffffdce
    16e0:	48410052 	stmdami	r1, {r1, r4, r6}^
    16e4:	53523342 	cmppl	r2, #134217729	; 0x8000001
    16e8:	52005254 	andpl	r5, r0, #84, 4	; 0x40000005
    16ec:	52455345 	subpl	r5, r5, #335544321	; 0x14000001
    16f0:	30444556 	subcc	r4, r4, r6, asr r5
    16f4:	42504100 	subsmi	r4, r0, #0, 2
    16f8:	54535231 	ldrbpl	r5, [r3], #-561	; 0xfffffdcf
    16fc:	50410052 	subpl	r0, r1, r2, asr r0
    1700:	53523242 	cmppl	r2, #536870916	; 0x20000004
    1704:	52005254 	andpl	r5, r0, #84, 4	; 0x40000005
    1708:	52455345 	subpl	r5, r5, #335544321	; 0x14000001
    170c:	31444556 	cmpcc	r4, r6, asr r5
    1710:	415f5f00 	cmpmi	pc, r0, lsl #30
    1714:	59415252 	stmdbpl	r1, {r1, r4, r6, r9, ip, lr}^
    1718:	5a49535f 	bpl	125649c <__Vectors_Size+0x12562a4>
    171c:	59545f45 	ldmdbpl	r4, {r0, r2, r6, r8, r9, sl, fp, ip, lr}^
    1720:	5f5f4550 	svcpl	0x005f4550
    1724:	42484100 	submi	r4, r8, #0, 2
    1728:	524e4531 	subpl	r4, lr, #205520896	; 0xc400000
    172c:	42484100 	submi	r4, r8, #0, 2
    1730:	524e4532 	subpl	r4, lr, #209715200	; 0xc800000
    1734:	42484100 	submi	r4, r8, #0, 2
    1738:	524e4533 	subpl	r4, lr, #213909504	; 0xcc00000
    173c:	53455200 	movtpl	r5, #20992	; 0x5200
    1740:	45565245 	ldrbmi	r5, [r6, #-581]	; 0xfffffdbb
    1744:	41003244 	tstmi	r0, r4, asr #4
    1748:	45314250 	ldrmi	r4, [r1, #-592]!	; 0xfffffdb0
    174c:	4100524e 	tstmi	r0, lr, asr #4
    1750:	45324250 	ldrmi	r4, [r2, #-592]!	; 0xfffffdb0
    1754:	5200524e 	andpl	r5, r0, #-536870908	; 0xe0000004
    1758:	52455345 	subpl	r5, r5, #335544321	; 0x14000001
    175c:	33444556 	movtcc	r4, #17750	; 0x4556
    1760:	42484100 	submi	r4, r8, #0, 2
    1764:	45504c31 	ldrbmi	r4, [r0, #-3121]	; 0xfffff3cf
    1768:	4100524e 	tstmi	r0, lr, asr #4
    176c:	4c324248 	lfmmi	f4, 4, [r2], #-288	; 0xfffffee0
    1770:	524e4550 	subpl	r4, lr, #80, 10	; 0x14000000
    1774:	42484100 	submi	r4, r8, #0, 2
    1778:	45504c33 	ldrbmi	r4, [r0, #-3123]	; 0xfffff3cd
    177c:	5200524e 	andpl	r5, r0, #-536870908	; 0xe0000004
    1780:	52455345 	subpl	r5, r5, #335544321	; 0x14000001
    1784:	34444556 	strbcc	r4, [r4], #-1366	; 0xfffffaaa
    1788:	42504100 	subsmi	r4, r0, #0, 2
    178c:	45504c31 	ldrbmi	r4, [r0, #-3121]	; 0xfffff3cf
    1790:	4100524e 	tstmi	r0, lr, asr #4
    1794:	4c324250 	lfmmi	f4, 4, [r2], #-320	; 0xfffffec0
    1798:	524e4550 	subpl	r4, lr, #80, 10	; 0x14000000
    179c:	53455200 	movtpl	r5, #20992	; 0x5200
    17a0:	45565245 	ldrbmi	r5, [r6, #-581]	; 0xfffffdbb
    17a4:	42003544 	andmi	r3, r0, #68, 10	; 0x11000000
    17a8:	00524344 	subseq	r4, r2, r4, asr #6
    17ac:	00525343 	subseq	r5, r2, r3, asr #6
    17b0:	45534552 	ldrbmi	r4, [r3, #-1362]	; 0xfffffaae
    17b4:	44455652 	strbmi	r5, [r5], #-1618	; 0xfffff9ae
    17b8:	53530036 	cmppl	r3, #54	; 0x36
    17bc:	00524743 	subseq	r4, r2, r3, asr #14
    17c0:	494c4c50 	stmdbmi	ip, {r4, r6, sl, fp, lr}^
    17c4:	46435332 			; <UNDEFINED> instruction: 0x46435332
    17c8:	50005247 	andpl	r5, r0, r7, asr #4
    17cc:	41534c4c 	cmpmi	r3, ip, asr #24
    17d0:	47464349 	strbmi	r4, [r6, -r9, asr #6]
    17d4:	43440052 	movtmi	r0, #16466	; 0x4052
    17d8:	4746434b 	strbmi	r4, [r6, -fp, asr #6]
    17dc:	44003152 	strmi	r3, [r0], #-338	; 0xfffffeae
    17e0:	46434b43 	strbmi	r4, [r3], -r3, asr #22
    17e4:	00325247 	eorseq	r5, r2, r7, asr #4
    17e8:	5f434352 	svcpl	0x00434352
    17ec:	65707954 	ldrbvs	r7, [r0, #-2388]!	; 0xfffff6ac
    17f0:	00666544 	rsbeq	r6, r6, r4, asr #10
    17f4:	45444f4d 	strbmi	r4, [r4, #-3917]	; 0xfffff0b3
    17f8:	544f0052 	strbpl	r0, [pc], #-82	; 1800 <__Vectors_Size+0x1608>
    17fc:	52455059 	subpl	r5, r5, #89	; 0x59
    1800:	50534f00 	subspl	r4, r3, r0, lsl #30
    1804:	52444545 	subpl	r4, r4, #289406976	; 0x11400000
    1808:	50555000 	subspl	r5, r5, r0
    180c:	49005244 	stmdbmi	r0, {r2, r6, r9, ip, lr}
    1810:	4f005244 	svcmi	0x00005244
    1814:	42005244 	andmi	r5, r0, #68, 4	; 0x40000004
    1818:	00525253 	subseq	r5, r2, r3, asr r2
    181c:	524b434c 	subpl	r4, fp, #76, 6	; 0x30000001
    1820:	52464100 	subpl	r4, r6, #0, 2
    1824:	49504700 	ldmdbmi	r0, {r8, r9, sl, lr}^
    1828:	79545f4f 	ldmdbvc	r4, {r0, r1, r2, r3, r6, r8, r9, sl, fp, ip, lr}^
    182c:	65446570 	strbvs	r6, [r4, #-1392]	; 0xfffffa90
    1830:	52430066 	subpl	r0, r3, #102	; 0x66
    1834:	52430031 	subpl	r0, r3, #49	; 0x31
    1838:	414f0032 	cmpmi	pc, r2, lsr r0	; <UNPREDICTABLE>
    183c:	4f003152 	svcmi	0x00003152
    1840:	00325241 	eorseq	r5, r2, r1, asr #4
    1844:	494d4954 	stmdbmi	sp, {r2, r4, r6, r8, fp, lr}^
    1848:	0052474e 	subseq	r4, r2, lr, asr #14
    184c:	454d4954 	strbmi	r4, [sp, #-2388]	; 0xfffff6ac
    1850:	5254554f 	subspl	r5, r4, #331350016	; 0x13c00000
    1854:	52534900 	subspl	r4, r3, #0, 18
    1858:	52434900 	subpl	r4, r3, #0, 18
    185c:	43455000 	movtmi	r5, #20480	; 0x5000
    1860:	58520052 	ldmdapl	r2, {r1, r4, r6}^
    1864:	54005244 	strpl	r5, [r0], #-580	; 0xfffffdbc
    1868:	00524458 	subseq	r4, r2, r8, asr r4
    186c:	5f433249 	svcpl	0x00433249
    1870:	65707954 	ldrbvs	r7, [r0, #-2388]!	; 0xfffff6ac
    1874:	00666544 	rsbeq	r6, r6, r4, asr #10
    1878:	32335344 	eorscc	r5, r3, #68, 6	; 0x10000001
    187c:	495f3133 	ldmdbmi	pc, {r0, r1, r4, r5, r8, ip, sp}^	; <UNPREDICTABLE>
    1880:	0074696e 	rsbseq	r6, r4, lr, ror #18
    1884:	32335344 	eorscc	r5, r3, #68, 6	; 0x10000001
    1888:	425f3133 	subsmi	r3, pc, #-1073741812	; 0xc000000c
    188c:	445f4443 	ldrbmi	r4, [pc], #-1091	; 1894 <__Vectors_Size+0x169c>
    1890:	69004345 	stmdbvs	r0, {r0, r2, r6, r8, r9, lr}
    1894:	4400746e 	strmi	r7, [r0], #-1134	; 0xfffffb92
    1898:	33323353 	teqcc	r2, #1275068417	; 0x4c000001
    189c:	45445f31 	strbmi	r5, [r4, #-3889]	; 0xfffff0cf
    18a0:	43425f43 	movtmi	r5, #12099	; 0x2f43
    18a4:	53440044 	movtpl	r0, #16452	; 0x4044
    18a8:	31333233 	teqcc	r3, r3, lsr r2
    18ac:	6165525f 	cmnvs	r5, pc, asr r2
    18b0:	53440064 	movtpl	r0, #16484	; 0x4064
    18b4:	31333233 	teqcc	r3, r3, lsr r2
    18b8:	6972575f 	ldmdbvs	r2!, {r0, r1, r2, r3, r4, r6, r8, r9, sl, ip, lr}^
    18bc:	654d6574 	strbvs	r6, [sp, #-1396]	; 0xfffffa8c
    18c0:	79726f6d 	ldmdbvc	r2!, {r0, r2, r3, r5, r6, r8, r9, sl, fp, sp, lr}^
    18c4:	73007800 	movwvc	r7, #2048	; 0x800
    18c8:	5f76616c 	svcpl	0x0076616c
    18cc:	00646461 	rsbeq	r6, r4, r1, ror #8
    18d0:	616d656d 	cmnvs	sp, sp, ror #10
    18d4:	64006464 	strvs	r6, [r0], #-1124	; 0xfffffb9c
    18d8:	00617461 	rsbeq	r7, r1, r1, ror #8
    18dc:	676e656c 	strbvs	r6, [lr, -ip, ror #10]!
    18e0:	74006874 	strvc	r6, [r0], #-2164	; 0xfffff78c
    18e4:	6f656d69 	svcvs	0x00656d69
    18e8:	75007475 	strvc	r7, [r0, #-1141]	; 0xfffffb8b
    18ec:	6769736e 	strbvs	r7, [r9, -lr, ror #6]!
    18f0:	2064656e 	rsbcs	r6, r4, lr, ror #10
    18f4:	726f6873 	rsbvc	r6, pc, #7536640	; 0x730000
    18f8:	69750074 	ldmdbvs	r5!, {r2, r4, r5, r6}^
    18fc:	3631746e 	ldrtcc	r7, [r1], -lr, ror #8
    1900:	6900745f 	stmdbvs	r0, {r0, r1, r2, r3, r4, r6, sl, ip, sp, lr}
    1904:	6d6f4300 	stclvs	3, cr4, [pc, #-0]	; 190c <__Vectors_Size+0x1714>
    1908:	656e6f70 	strbvs	r6, [lr, #-3952]!	; 0xfffff090
    190c:	203a746e 	eorscs	r7, sl, lr, ror #8
    1910:	206d7241 	rsbcs	r7, sp, r1, asr #4
    1914:	706d6f43 	rsbvc	r6, sp, r3, asr #30
    1918:	72656c69 	rsbvc	r6, r5, #26880	; 0x6900
    191c:	726f6620 	rsbvc	r6, pc, #32, 12	; 0x2000000
    1920:	626d4520 	rsbvs	r4, sp, #32, 10	; 0x8000000
    1924:	65646465 	strbvs	r6, [r4, #-1125]!	; 0xfffffb9b
    1928:	2e362064 	cdpcs	0, 3, cr2, cr6, cr4, {3}
    192c:	54203931 	strtpl	r3, [r0], #-2353	; 0xfffff6cf
    1930:	3a6c6f6f 	bcc	1b1d6f4 <__Vectors_Size+0x1b1d4fc>
    1934:	6d726120 	ldfvse	f6, [r2, #-128]!	; 0xffffff80
    1938:	6e616c63 	cdpvs	12, 6, cr6, cr1, cr3, {3}
    193c:	355b2067 	ldrbcc	r2, [fp, #-103]	; 0xffffff99
    1940:	63333765 	teqvs	r3, #26476544	; 0x1940000
    1944:	5d303062 	ldcpl	0, cr3, [r0, #-392]!	; 0xfffffe78
    1948:	6d727500 	cfldr64vs	mvdx7, [r2, #-0]
    194c:	632e3733 			; <UNDEFINED> instruction: 0x632e3733
    1950:	5c3a4400 	cfldrspl	mvf4, [sl], #-0
    1954:	636f4423 	cmnvs	pc, #587202560	; 0x23000000
    1958:	6e656d75 	mcrvs	13, 3, r6, cr5, cr5, {3}
    195c:	555c7374 	ldrbpl	r7, [ip, #-884]	; 0xfffffc8c
    1960:	49534956 	ldmdbmi	r3, {r1, r2, r4, r6, r8, fp, lr}^
    1964:	535c4e4f 	cmppl	ip, #1264	; 0x4f0
    1968:	5452414d 	ldrbpl	r4, [r2], #-333	; 0xfffffeb3
    196c:	4b41575f 	blmi	10576f0 <__Vectors_Size+0x10574f8>
    1970:	50555f45 	subspl	r5, r5, r5, asr #30
    1974:	4d525500 	cfldr64mi	mvdx5, [r2, #-0]
    1978:	545f3733 	ldrbpl	r3, [pc], #-1843	; 1980 <__Vectors_Size+0x1788>
    197c:	65706d65 	ldrbvs	r6, [r0, #-3429]!	; 0xfffff29b
    1980:	75746172 	ldrbvc	r6, [r4, #-370]!	; 0xfffffe8e
    1984:	75006572 	strvc	r6, [r0, #-1394]	; 0xfffffa8e
    1988:	6769736e 	strbvs	r7, [r9, -lr, ror #6]!
    198c:	2064656e 	rsbcs	r6, r4, lr, ror #10
    1990:	72616863 	rsbvc	r6, r1, #6488064	; 0x630000
    1994:	6e697500 	cdpvs	5, 6, cr7, cr9, cr0, {0}
    1998:	745f3874 	ldrbvc	r3, [pc], #-2164	; 19a0 <__Vectors_Size+0x17a8>
    199c:	415f5f00 	cmpmi	pc, r0, lsl #30
    19a0:	59415252 	stmdbpl	r1, {r1, r4, r6, r9, ip, lr}^
    19a4:	5a49535f 	bpl	1256728 <__Vectors_Size+0x1256530>
    19a8:	59545f45 	ldmdbpl	r4, {r0, r2, r6, r8, r9, sl, fp, ip, lr}^
    19ac:	5f5f4550 	svcpl	0x005f4550
    19b0:	4d525500 	cfldr64mi	mvdx5, [r2, #-0]
    19b4:	445f3733 	ldrbmi	r3, [pc], #-1843	; 19bc <__Vectors_Size+0x17c4>
    19b8:	61747369 	cmnvs	r4, r9, ror #6
    19bc:	0065636e 	rsbeq	r6, r5, lr, ror #6
    19c0:	61746164 	cmnvs	r4, r4, ror #2
    19c4:	52550052 	subspl	r0, r5, #82	; 0x52
    19c8:	5f37334d 	svcpl	0x0037334d
    19cc:	69617641 	stmdbvs	r1!, {r0, r6, r9, sl, ip, sp, lr}^
    19d0:	6c62616c 	stfvse	f6, [r2], #-432	; 0xfffffe50
    19d4:	6e690065 	cdpvs	0, 6, cr0, cr9, cr5, {3}
    19d8:	54786564 	ldrbtpl	r6, [r8], #-1380	; 0xfffffa9c
    19dc:	746e6900 	strbtvc	r6, [lr], #-2304	; 0xfffff700
    19e0:	646e6900 	strbtvs	r6, [lr], #-2304	; 0xfffff700
    19e4:	00527865 	subseq	r7, r2, r5, ror #16
    19e8:	334d5255 	movtcc	r5, #53845	; 0xd255
    19ec:	65545f37 	ldrbvs	r5, [r4, #-3895]	; 0xfffff0c9
    19f0:	6552706d 	ldrbvs	r7, [r2, #-109]	; 0xffffff93
    19f4:	76696563 	strbtvc	r6, [r9], -r3, ror #10
    19f8:	52550065 	subspl	r0, r5, #101	; 0x65
    19fc:	5f37334d 	svcpl	0x0037334d
    1a00:	74736944 	ldrbtvc	r6, [r3], #-2372	; 0xfffff6bc
    1a04:	65636552 	strbvs	r6, [r3, #-1362]!	; 0xfffffaae
    1a08:	00657669 	rsbeq	r7, r5, r9, ror #12
    1a0c:	6e676973 			; <UNDEFINED> instruction: 0x6e676973
    1a10:	63206465 			; <UNDEFINED> instruction: 0x63206465
    1a14:	00726168 	rsbseq	r6, r2, r8, ror #2
    1a18:	4d6e6f4e 	stclmi	15, cr6, [lr, #-312]!	; 0xfffffec8
    1a1c:	616b7361 	cmnvs	fp, r1, ror #6
    1a20:	49656c62 	stmdbmi	r5!, {r1, r5, r6, sl, fp, sp, lr}^
    1a24:	495f746e 	ldmdbmi	pc, {r1, r2, r3, r5, r6, sl, ip, sp, lr}^	; <UNPREDICTABLE>
    1a28:	006e5152 	rsbeq	r5, lr, r2, asr r1
    1a2c:	6f6d654d 	svcvs	0x006d654d
    1a30:	614d7972 	hvcvs	55186	; 0xd792
    1a34:	6567616e 	strbvs	r6, [r7, #-366]!	; 0xfffffe92
    1a38:	746e656d 	strbtvc	r6, [lr], #-1389	; 0xfffffa93
    1a3c:	5152495f 	cmppl	r2, pc, asr r9
    1a40:	7542006e 	strbvc	r0, [r2, #-110]	; 0xffffff92
    1a44:	75614673 	strbvc	r4, [r1, #-1651]!	; 0xfffff98d
    1a48:	495f746c 	ldmdbmi	pc, {r2, r3, r5, r6, sl, ip, sp, lr}^	; <UNPREDICTABLE>
    1a4c:	006e5152 	rsbeq	r5, lr, r2, asr r1
    1a50:	67617355 			; <UNDEFINED> instruction: 0x67617355
    1a54:	75614665 	strbvc	r4, [r1, #-1637]!	; 0xfffff99b
    1a58:	495f746c 	ldmdbmi	pc, {r2, r3, r5, r6, sl, ip, sp, lr}^	; <UNPREDICTABLE>
    1a5c:	006e5152 	rsbeq	r5, lr, r2, asr r1
    1a60:	61435653 	cmpvs	r3, r3, asr r6
    1a64:	495f6c6c 	ldmdbmi	pc, {r2, r3, r5, r6, sl, fp, sp, lr}^	; <UNPREDICTABLE>
    1a68:	006e5152 	rsbeq	r5, lr, r2, asr r1
    1a6c:	75626544 	strbvc	r6, [r2, #-1348]!	; 0xfffffabc
    1a70:	6e6f4d67 	cdpvs	13, 6, cr4, cr15, cr7, {3}
    1a74:	726f7469 	rsbvc	r7, pc, #1761607680	; 0x69000000
    1a78:	5152495f 	cmppl	r2, pc, asr r9
    1a7c:	6550006e 	ldrbvs	r0, [r0, #-110]	; 0xffffff92
    1a80:	5653646e 	ldrbpl	r6, [r3], -lr, ror #8
    1a84:	5152495f 	cmppl	r2, pc, asr r9
    1a88:	7953006e 	ldmdbvc	r3, {r1, r2, r3, r5, r6}^
    1a8c:	63695473 	cmnvs	r9, #1929379840	; 0x73000000
    1a90:	52495f6b 	subpl	r5, r9, #428	; 0x1ac
    1a94:	57006e51 	smlsdpl	r0, r1, lr, r6
    1a98:	5f474457 	svcpl	0x00474457
    1a9c:	6e515249 	cdpvs	2, 5, cr5, cr1, cr9, {2}
    1aa0:	44565000 	ldrbmi	r5, [r6], #-0
    1aa4:	5152495f 	cmppl	r2, pc, asr r9
    1aa8:	4154006e 	cmpmi	r4, lr, rrx
    1aac:	535f504d 	cmppl	pc, #77	; 0x4d
    1ab0:	504d4154 	subpl	r4, sp, r4, asr r1
    1ab4:	5152495f 	cmppl	r2, pc, asr r9
    1ab8:	5452006e 	ldrbpl	r0, [r2], #-110	; 0xffffff92
    1abc:	4b575f43 	blmi	15d97d0 <__Vectors_Size+0x15d95d8>
    1ac0:	495f5055 	ldmdbmi	pc, {r0, r2, r4, r6, ip, lr}^	; <UNPREDICTABLE>
    1ac4:	006e5152 	rsbeq	r5, lr, r2, asr r1
    1ac8:	53414c46 	movtpl	r4, #7238	; 0x1c46
    1acc:	52495f48 	subpl	r5, r9, #72, 30	; 0x120
    1ad0:	52006e51 	andpl	r6, r0, #1296	; 0x510
    1ad4:	495f4343 	ldmdbmi	pc, {r0, r1, r6, r8, r9, lr}^	; <UNPREDICTABLE>
    1ad8:	006e5152 	rsbeq	r5, lr, r2, asr r1
    1adc:	49545845 	ldmdbmi	r4, {r0, r2, r6, fp, ip, lr}^
    1ae0:	52495f30 	subpl	r5, r9, #48, 30	; 0xc0
    1ae4:	45006e51 	strmi	r6, [r0, #-3665]	; 0xfffff1af
    1ae8:	31495458 	cmpcc	r9, r8, asr r4
    1aec:	5152495f 	cmppl	r2, pc, asr r9
    1af0:	5845006e 	stmdapl	r5, {r1, r2, r3, r5, r6}^
    1af4:	5f324954 	svcpl	0x00324954
    1af8:	6e515249 	cdpvs	2, 5, cr5, cr1, cr9, {2}
    1afc:	54584500 	ldrbpl	r4, [r8], #-1280	; 0xfffffb00
    1b00:	495f3349 	ldmdbmi	pc, {r0, r3, r6, r8, r9, ip, sp}^	; <UNPREDICTABLE>
    1b04:	006e5152 	rsbeq	r5, lr, r2, asr r1
    1b08:	49545845 	ldmdbmi	r4, {r0, r2, r6, fp, ip, lr}^
    1b0c:	52495f34 	subpl	r5, r9, #52, 30	; 0xd0
    1b10:	44006e51 	strmi	r6, [r0], #-3665	; 0xfffff1af
    1b14:	5f31414d 	svcpl	0x0031414d
    1b18:	65727453 	ldrbvs	r7, [r2, #-1107]!	; 0xfffffbad
    1b1c:	5f306d61 	svcpl	0x00306d61
    1b20:	6e515249 	cdpvs	2, 5, cr5, cr1, cr9, {2}
    1b24:	414d4400 	cmpmi	sp, r0, lsl #8
    1b28:	74535f31 	ldrbvc	r5, [r3], #-3889	; 0xfffff0cf
    1b2c:	6d616572 	cfstr64vs	mvdx6, [r1, #-456]!	; 0xfffffe38
    1b30:	52495f31 	subpl	r5, r9, #49, 30	; 0xc4
    1b34:	44006e51 	strmi	r6, [r0], #-3665	; 0xfffff1af
    1b38:	5f31414d 	svcpl	0x0031414d
    1b3c:	65727453 	ldrbvs	r7, [r2, #-1107]!	; 0xfffffbad
    1b40:	5f326d61 	svcpl	0x00326d61
    1b44:	6e515249 	cdpvs	2, 5, cr5, cr1, cr9, {2}
    1b48:	414d4400 	cmpmi	sp, r0, lsl #8
    1b4c:	74535f31 	ldrbvc	r5, [r3], #-3889	; 0xfffff0cf
    1b50:	6d616572 	cfstr64vs	mvdx6, [r1, #-456]!	; 0xfffffe38
    1b54:	52495f33 	subpl	r5, r9, #51, 30	; 0xcc
    1b58:	44006e51 	strmi	r6, [r0], #-3665	; 0xfffff1af
    1b5c:	5f31414d 	svcpl	0x0031414d
    1b60:	65727453 	ldrbvs	r7, [r2, #-1107]!	; 0xfffffbad
    1b64:	5f346d61 	svcpl	0x00346d61
    1b68:	6e515249 	cdpvs	2, 5, cr5, cr1, cr9, {2}
    1b6c:	414d4400 	cmpmi	sp, r0, lsl #8
    1b70:	74535f31 	ldrbvc	r5, [r3], #-3889	; 0xfffff0cf
    1b74:	6d616572 	cfstr64vs	mvdx6, [r1, #-456]!	; 0xfffffe38
    1b78:	52495f35 	subpl	r5, r9, #53, 30	; 0xd4
    1b7c:	44006e51 	strmi	r6, [r0], #-3665	; 0xfffff1af
    1b80:	5f31414d 	svcpl	0x0031414d
    1b84:	65727453 	ldrbvs	r7, [r2, #-1107]!	; 0xfffffbad
    1b88:	5f366d61 	svcpl	0x00366d61
    1b8c:	6e515249 	cdpvs	2, 5, cr5, cr1, cr9, {2}
    1b90:	43444100 	movtmi	r4, #16640	; 0x4100
    1b94:	5152495f 	cmppl	r2, pc, asr r9
    1b98:	4143006e 	cmpmi	r3, lr, rrx
    1b9c:	545f314e 	ldrbpl	r3, [pc], #-334	; 1ba4 <__Vectors_Size+0x19ac>
    1ba0:	52495f58 	subpl	r5, r9, #88, 30	; 0x160
    1ba4:	43006e51 	movwmi	r6, #3665	; 0xe51
    1ba8:	5f314e41 	svcpl	0x00314e41
    1bac:	5f305852 	svcpl	0x00305852
    1bb0:	6e515249 	cdpvs	2, 5, cr5, cr1, cr9, {2}
    1bb4:	4e414300 	cdpmi	3, 4, cr4, cr1, cr0, {0}
    1bb8:	58525f31 	ldmdapl	r2, {r0, r4, r5, r8, r9, sl, fp, ip, lr}^
    1bbc:	52495f31 	subpl	r5, r9, #49, 30	; 0xc4
    1bc0:	43006e51 	movwmi	r6, #3665	; 0xe51
    1bc4:	5f314e41 	svcpl	0x00314e41
    1bc8:	5f454353 	svcpl	0x00454353
    1bcc:	6e515249 	cdpvs	2, 5, cr5, cr1, cr9, {2}
    1bd0:	54584500 	ldrbpl	r4, [r8], #-1280	; 0xfffffb00
    1bd4:	355f3949 	ldrbcc	r3, [pc, #-2377]	; 1293 <__Vectors_Size+0x109b>
    1bd8:	5152495f 	cmppl	r2, pc, asr r9
    1bdc:	4954006e 	ldmdbmi	r4, {r1, r2, r3, r5, r6}^
    1be0:	425f314d 	subsmi	r3, pc, #1073741843	; 0x40000013
    1be4:	545f4b52 	ldrbpl	r4, [pc], #-2898	; 1bec <__Vectors_Size+0x19f4>
    1be8:	5f394d49 	svcpl	0x00394d49
    1bec:	6e515249 	cdpvs	2, 5, cr5, cr1, cr9, {2}
    1bf0:	4d495400 	cfstrdmi	mvd5, [r9, #-0]
    1bf4:	50555f31 	subspl	r5, r5, r1, lsr pc
    1bf8:	4d49545f 	cfstrdmi	mvd5, [r9, #-380]	; 0xfffffe84
    1bfc:	495f3031 	ldmdbmi	pc, {r0, r4, r5, ip, sp}^	; <UNPREDICTABLE>
    1c00:	006e5152 	rsbeq	r5, lr, r2, asr r1
    1c04:	314d4954 	cmpcc	sp, r4, asr r9
    1c08:	4752545f 			; <UNDEFINED> instruction: 0x4752545f
    1c0c:	4d4f435f 	stclmi	3, cr4, [pc, #-380]	; 1a98 <__Vectors_Size+0x18a0>
    1c10:	4d49545f 	cfstrdmi	mvd5, [r9, #-380]	; 0xfffffe84
    1c14:	495f3131 	ldmdbmi	pc, {r0, r4, r5, r8, ip, sp}^	; <UNPREDICTABLE>
    1c18:	006e5152 	rsbeq	r5, lr, r2, asr r1
    1c1c:	314d4954 	cmpcc	sp, r4, asr r9
    1c20:	5f43435f 	svcpl	0x0043435f
    1c24:	6e515249 	cdpvs	2, 5, cr5, cr1, cr9, {2}
    1c28:	4d495400 	cfstrdmi	mvd5, [r9, #-0]
    1c2c:	52495f32 	subpl	r5, r9, #50, 30	; 0xc8
    1c30:	54006e51 	strpl	r6, [r0], #-3665	; 0xfffff1af
    1c34:	5f334d49 	svcpl	0x00334d49
    1c38:	6e515249 	cdpvs	2, 5, cr5, cr1, cr9, {2}
    1c3c:	4d495400 	cfstrdmi	mvd5, [r9, #-0]
    1c40:	52495f34 	subpl	r5, r9, #52, 30	; 0xd0
    1c44:	49006e51 	stmdbmi	r0, {r0, r4, r6, r9, sl, fp, sp, lr}
    1c48:	5f314332 	svcpl	0x00314332
    1c4c:	495f5645 	ldmdbmi	pc, {r0, r2, r6, r9, sl, ip, lr}^	; <UNPREDICTABLE>
    1c50:	006e5152 	rsbeq	r5, lr, r2, asr r1
    1c54:	31433249 	cmpcc	r3, r9, asr #4
    1c58:	5f52455f 	svcpl	0x0052455f
    1c5c:	6e515249 	cdpvs	2, 5, cr5, cr1, cr9, {2}
    1c60:	43324900 	teqmi	r2, #0, 18
    1c64:	56455f32 			; <UNDEFINED> instruction: 0x56455f32
    1c68:	5152495f 	cmppl	r2, pc, asr r9
    1c6c:	3249006e 	subcc	r0, r9, #110	; 0x6e
    1c70:	455f3243 	ldrbmi	r3, [pc, #-579]	; 1a35 <__Vectors_Size+0x183d>
    1c74:	52495f52 	subpl	r5, r9, #328	; 0x148
    1c78:	53006e51 	movwpl	r6, #3665	; 0xe51
    1c7c:	5f314950 	svcpl	0x00314950
    1c80:	6e515249 	cdpvs	2, 5, cr5, cr1, cr9, {2}
    1c84:	49505300 	ldmdbmi	r0, {r8, r9, ip, lr}^
    1c88:	52495f32 	subpl	r5, r9, #50, 30	; 0xc8
    1c8c:	55006e51 	strpl	r6, [r0, #-3665]	; 0xfffff1af
    1c90:	54524153 	ldrbpl	r4, [r2], #-339	; 0xfffffead
    1c94:	52495f31 	subpl	r5, r9, #49, 30	; 0xc4
    1c98:	55006e51 	strpl	r6, [r0, #-3665]	; 0xfffff1af
    1c9c:	54524153 	ldrbpl	r4, [r2], #-339	; 0xfffffead
    1ca0:	52495f32 	subpl	r5, r9, #50, 30	; 0xc8
    1ca4:	55006e51 	strpl	r6, [r0, #-3665]	; 0xfffff1af
    1ca8:	54524153 	ldrbpl	r4, [r2], #-339	; 0xfffffead
    1cac:	52495f33 	subpl	r5, r9, #51, 30	; 0xcc
    1cb0:	45006e51 	strmi	r6, [r0, #-3665]	; 0xfffff1af
    1cb4:	31495458 	cmpcc	r9, r8, asr r4
    1cb8:	30315f35 	eorscc	r5, r1, r5, lsr pc
    1cbc:	5152495f 	cmppl	r2, pc, asr r9
    1cc0:	5452006e 	ldrbpl	r0, [r2], #-110	; 0xffffff92
    1cc4:	6c415f43 	mcrrvs	15, 4, r5, r1, cr3
    1cc8:	5f6d7261 	svcpl	0x006d7261
    1ccc:	6e515249 	cdpvs	2, 5, cr5, cr1, cr9, {2}
    1cd0:	47544f00 	ldrbmi	r4, [r4, -r0, lsl #30]
    1cd4:	5f53465f 	svcpl	0x0053465f
    1cd8:	50554b57 	subspl	r4, r5, r7, asr fp
    1cdc:	5152495f 	cmppl	r2, pc, asr r9
    1ce0:	4954006e 	ldmdbmi	r4, {r1, r2, r3, r5, r6}^
    1ce4:	425f384d 	subsmi	r3, pc, #5046272	; 0x4d0000
    1ce8:	545f4b52 	ldrbpl	r4, [pc], #-2898	; 1cf0 <__Vectors_Size+0x1af8>
    1cec:	32314d49 	eorscc	r4, r1, #4672	; 0x1240
    1cf0:	5152495f 	cmppl	r2, pc, asr r9
    1cf4:	4954006e 	ldmdbmi	r4, {r1, r2, r3, r5, r6}^
    1cf8:	555f384d 	ldrbpl	r3, [pc, #-2125]	; 14b3 <__Vectors_Size+0x12bb>
    1cfc:	49545f50 	ldmdbmi	r4, {r4, r6, r8, r9, sl, fp, ip, lr}^
    1d00:	5f33314d 	svcpl	0x0033314d
    1d04:	6e515249 	cdpvs	2, 5, cr5, cr1, cr9, {2}
    1d08:	4d495400 	cfstrdmi	mvd5, [r9, #-0]
    1d0c:	52545f38 	subspl	r5, r4, #56, 30	; 0xe0
    1d10:	4f435f47 	svcmi	0x00435f47
    1d14:	49545f4d 	ldmdbmi	r4, {r0, r2, r3, r6, r8, r9, sl, fp, ip, lr}^
    1d18:	5f34314d 	svcpl	0x0034314d
    1d1c:	6e515249 	cdpvs	2, 5, cr5, cr1, cr9, {2}
    1d20:	4d495400 	cfstrdmi	mvd5, [r9, #-0]
    1d24:	43435f38 	movtmi	r5, #16184	; 0x3f38
    1d28:	5152495f 	cmppl	r2, pc, asr r9
    1d2c:	4d44006e 	stclmi	0, cr0, [r4, #-440]	; 0xfffffe48
    1d30:	535f3141 	cmppl	pc, #1073741840	; 0x40000010
    1d34:	61657274 	smcvs	22308	; 0x5724
    1d38:	495f376d 	ldmdbmi	pc, {r0, r2, r3, r5, r6, r8, r9, sl, ip, sp}^	; <UNPREDICTABLE>
    1d3c:	006e5152 	rsbeq	r5, lr, r2, asr r1
    1d40:	5f434d46 	svcpl	0x00434d46
    1d44:	6e515249 	cdpvs	2, 5, cr5, cr1, cr9, {2}
    1d48:	4d445300 	stclmi	3, cr5, [r4, #-0]
    1d4c:	5f31434d 	svcpl	0x0031434d
    1d50:	6e515249 	cdpvs	2, 5, cr5, cr1, cr9, {2}
    1d54:	4d495400 	cfstrdmi	mvd5, [r9, #-0]
    1d58:	52495f35 	subpl	r5, r9, #53, 30	; 0xd4
    1d5c:	53006e51 	movwpl	r6, #3665	; 0xe51
    1d60:	5f334950 	svcpl	0x00334950
    1d64:	6e515249 	cdpvs	2, 5, cr5, cr1, cr9, {2}
    1d68:	52415500 	subpl	r5, r1, #0, 10
    1d6c:	495f3454 	ldmdbmi	pc, {r2, r4, r6, sl, ip, sp}^	; <UNPREDICTABLE>
    1d70:	006e5152 	rsbeq	r5, lr, r2, asr r1
    1d74:	54524155 	ldrbpl	r4, [r2], #-341	; 0xfffffeab
    1d78:	52495f35 	subpl	r5, r9, #53, 30	; 0xd4
    1d7c:	54006e51 	strpl	r6, [r0], #-3665	; 0xfffff1af
    1d80:	5f364d49 	svcpl	0x00364d49
    1d84:	5f434144 	svcpl	0x00434144
    1d88:	6e515249 	cdpvs	2, 5, cr5, cr1, cr9, {2}
    1d8c:	4d495400 	cfstrdmi	mvd5, [r9, #-0]
    1d90:	52495f37 	subpl	r5, r9, #55, 30	; 0xdc
    1d94:	44006e51 	strmi	r6, [r0], #-3665	; 0xfffff1af
    1d98:	5f32414d 	svcpl	0x0032414d
    1d9c:	65727453 	ldrbvs	r7, [r2, #-1107]!	; 0xfffffbad
    1da0:	5f306d61 	svcpl	0x00306d61
    1da4:	6e515249 	cdpvs	2, 5, cr5, cr1, cr9, {2}
    1da8:	414d4400 	cmpmi	sp, r0, lsl #8
    1dac:	74535f32 	ldrbvc	r5, [r3], #-3890	; 0xfffff0ce
    1db0:	6d616572 	cfstr64vs	mvdx6, [r1, #-456]!	; 0xfffffe38
    1db4:	52495f31 	subpl	r5, r9, #49, 30	; 0xc4
    1db8:	44006e51 	strmi	r6, [r0], #-3665	; 0xfffff1af
    1dbc:	5f32414d 	svcpl	0x0032414d
    1dc0:	65727453 	ldrbvs	r7, [r2, #-1107]!	; 0xfffffbad
    1dc4:	5f326d61 	svcpl	0x00326d61
    1dc8:	6e515249 	cdpvs	2, 5, cr5, cr1, cr9, {2}
    1dcc:	414d4400 	cmpmi	sp, r0, lsl #8
    1dd0:	74535f32 	ldrbvc	r5, [r3], #-3890	; 0xfffff0ce
    1dd4:	6d616572 	cfstr64vs	mvdx6, [r1, #-456]!	; 0xfffffe38
    1dd8:	52495f33 	subpl	r5, r9, #51, 30	; 0xcc
    1ddc:	44006e51 	strmi	r6, [r0], #-3665	; 0xfffff1af
    1de0:	5f32414d 	svcpl	0x0032414d
    1de4:	65727453 	ldrbvs	r7, [r2, #-1107]!	; 0xfffffbad
    1de8:	5f346d61 	svcpl	0x00346d61
    1dec:	6e515249 	cdpvs	2, 5, cr5, cr1, cr9, {2}
    1df0:	48544500 	ldmdami	r4, {r8, sl, lr}^
    1df4:	5152495f 	cmppl	r2, pc, asr r9
    1df8:	5445006e 	strbpl	r0, [r5], #-110	; 0xffffff92
    1dfc:	4b575f48 	blmi	15d9b24 <__Vectors_Size+0x15d992c>
    1e00:	495f5055 	ldmdbmi	pc, {r0, r2, r4, r6, ip, lr}^	; <UNPREDICTABLE>
    1e04:	006e5152 	rsbeq	r5, lr, r2, asr r1
    1e08:	324e4143 	subcc	r4, lr, #-1073741808	; 0xc0000010
    1e0c:	5f58545f 	svcpl	0x0058545f
    1e10:	6e515249 	cdpvs	2, 5, cr5, cr1, cr9, {2}
    1e14:	4e414300 	cdpmi	3, 4, cr4, cr1, cr0, {0}
    1e18:	58525f32 	ldmdapl	r2, {r1, r4, r5, r8, r9, sl, fp, ip, lr}^
    1e1c:	52495f30 	subpl	r5, r9, #48, 30	; 0xc0
    1e20:	43006e51 	movwmi	r6, #3665	; 0xe51
    1e24:	5f324e41 	svcpl	0x00324e41
    1e28:	5f315852 	svcpl	0x00315852
    1e2c:	6e515249 	cdpvs	2, 5, cr5, cr1, cr9, {2}
    1e30:	4e414300 	cdpmi	3, 4, cr4, cr1, cr0, {0}
    1e34:	43535f32 	cmpmi	r3, #50, 30	; 0xc8
    1e38:	52495f45 	subpl	r5, r9, #276	; 0x114
    1e3c:	4f006e51 	svcmi	0x00006e51
    1e40:	465f4754 			; <UNDEFINED> instruction: 0x465f4754
    1e44:	52495f53 	subpl	r5, r9, #332	; 0x14c
    1e48:	44006e51 	strmi	r6, [r0], #-3665	; 0xfffff1af
    1e4c:	5f32414d 	svcpl	0x0032414d
    1e50:	65727453 	ldrbvs	r7, [r2, #-1107]!	; 0xfffffbad
    1e54:	5f356d61 	svcpl	0x00356d61
    1e58:	6e515249 	cdpvs	2, 5, cr5, cr1, cr9, {2}
    1e5c:	414d4400 	cmpmi	sp, r0, lsl #8
    1e60:	74535f32 	ldrbvc	r5, [r3], #-3890	; 0xfffff0ce
    1e64:	6d616572 	cfstr64vs	mvdx6, [r1, #-456]!	; 0xfffffe38
    1e68:	52495f36 	subpl	r5, r9, #54, 30	; 0xd8
    1e6c:	44006e51 	strmi	r6, [r0], #-3665	; 0xfffff1af
    1e70:	5f32414d 	svcpl	0x0032414d
    1e74:	65727453 	ldrbvs	r7, [r2, #-1107]!	; 0xfffffbad
    1e78:	5f376d61 	svcpl	0x00376d61
    1e7c:	6e515249 	cdpvs	2, 5, cr5, cr1, cr9, {2}
    1e80:	41535500 	cmpmi	r3, r0, lsl #10
    1e84:	5f365452 	svcpl	0x00365452
    1e88:	6e515249 	cdpvs	2, 5, cr5, cr1, cr9, {2}
    1e8c:	43324900 	teqmi	r2, #0, 18
    1e90:	56455f33 			; <UNDEFINED> instruction: 0x56455f33
    1e94:	5152495f 	cmppl	r2, pc, asr r9
    1e98:	3249006e 	subcc	r0, r9, #110	; 0x6e
    1e9c:	455f3343 	ldrbmi	r3, [pc, #-835]	; 1b61 <__Vectors_Size+0x1969>
    1ea0:	52495f52 	subpl	r5, r9, #328	; 0x148
    1ea4:	4f006e51 	svcmi	0x00006e51
    1ea8:	485f4754 	ldmdami	pc, {r2, r4, r6, r8, r9, sl, lr}^	; <UNPREDICTABLE>
    1eac:	50455f53 	subpl	r5, r5, r3, asr pc
    1eb0:	554f5f31 	strbpl	r5, [pc, #-3889]	; f87 <__Vectors_Size+0xd8f>
    1eb4:	52495f54 	subpl	r5, r9, #84, 30	; 0x150
    1eb8:	4f006e51 	svcmi	0x00006e51
    1ebc:	485f4754 	ldmdami	pc, {r2, r4, r6, r8, r9, sl, lr}^	; <UNPREDICTABLE>
    1ec0:	50455f53 	subpl	r5, r5, r3, asr pc
    1ec4:	4e495f31 	mcrmi	15, 2, r5, cr9, cr1, {1}
    1ec8:	5152495f 	cmppl	r2, pc, asr r9
    1ecc:	544f006e 	strbpl	r0, [pc], #-110	; 1ed4 <__Vectors_Size+0x1cdc>
    1ed0:	53485f47 	movtpl	r5, #36679	; 0x8f47
    1ed4:	554b575f 	strbpl	r5, [fp, #-1887]	; 0xfffff8a1
    1ed8:	52495f50 	subpl	r5, r9, #80, 30	; 0x140
    1edc:	4f006e51 	svcmi	0x00006e51
    1ee0:	485f4754 	ldmdami	pc, {r2, r4, r6, r8, r9, sl, lr}^	; <UNPREDICTABLE>
    1ee4:	52495f53 	subpl	r5, r9, #332	; 0x14c
    1ee8:	44006e51 	strmi	r6, [r0], #-3665	; 0xfffff1af
    1eec:	5f494d43 	svcpl	0x00494d43
    1ef0:	6e515249 	cdpvs	2, 5, cr5, cr1, cr9, {2}
    1ef4:	474e5200 	strbmi	r5, [lr, -r0, lsl #4]
    1ef8:	5152495f 	cmppl	r2, pc, asr r9
    1efc:	5046006e 	subpl	r0, r6, lr, rrx
    1f00:	52495f55 	subpl	r5, r9, #340	; 0x154
    1f04:	55006e51 	strpl	r6, [r0, #-3665]	; 0xfffff1af
    1f08:	37545241 	ldrbcc	r5, [r4, -r1, asr #4]
    1f0c:	5152495f 	cmppl	r2, pc, asr r9
    1f10:	4155006e 	cmpmi	r5, lr, rrx
    1f14:	5f385452 	svcpl	0x00385452
    1f18:	6e515249 	cdpvs	2, 5, cr5, cr1, cr9, {2}
    1f1c:	49505300 	ldmdbmi	r0, {r8, r9, ip, lr}^
    1f20:	52495f34 	subpl	r5, r9, #52, 30	; 0xd0
    1f24:	53006e51 	movwpl	r6, #3665	; 0xe51
    1f28:	5f354950 	svcpl	0x00354950
    1f2c:	6e515249 	cdpvs	2, 5, cr5, cr1, cr9, {2}
    1f30:	49505300 	ldmdbmi	r0, {r8, r9, ip, lr}^
    1f34:	52495f36 	subpl	r5, r9, #54, 30	; 0xd8
    1f38:	53006e51 	movwpl	r6, #3665	; 0xe51
    1f3c:	5f314941 	svcpl	0x00314941
    1f40:	6e515249 	cdpvs	2, 5, cr5, cr1, cr9, {2}
    1f44:	44544c00 	ldrbmi	r4, [r4], #-3072	; 0xfffff400
    1f48:	52495f43 	subpl	r5, r9, #268	; 0x10c
    1f4c:	4c006e51 	stcmi	14, cr6, [r0], {81}	; 0x51
    1f50:	5f434454 	svcpl	0x00434454
    1f54:	495f5245 	ldmdbmi	pc, {r0, r2, r6, r9, ip, lr}^	; <UNPREDICTABLE>
    1f58:	006e5152 	rsbeq	r5, lr, r2, asr r1
    1f5c:	32414d44 	subcc	r4, r1, #68, 26	; 0x1100
    1f60:	52495f44 	subpl	r5, r9, #68, 30	; 0x110
    1f64:	53006e51 	movwpl	r6, #3665	; 0xe51
    1f68:	5f324941 	svcpl	0x00324941
    1f6c:	6e515249 	cdpvs	2, 5, cr5, cr1, cr9, {2}
    1f70:	41555100 	cmpmi	r5, r0, lsl #2
    1f74:	49505344 	ldmdbmi	r0, {r2, r6, r8, r9, ip, lr}^
    1f78:	5152495f 	cmppl	r2, pc, asr r9
    1f7c:	504c006e 	subpl	r0, ip, lr, rrx
    1f80:	314d4954 	cmpcc	sp, r4, asr r9
    1f84:	5152495f 	cmppl	r2, pc, asr r9
    1f88:	4543006e 	strbmi	r0, [r3, #-110]	; 0xffffff92
    1f8c:	52495f43 	subpl	r5, r9, #268	; 0x10c
    1f90:	49006e51 	stmdbmi	r0, {r0, r4, r6, r9, sl, fp, sp, lr}
    1f94:	5f344332 	svcpl	0x00344332
    1f98:	495f5645 	ldmdbmi	pc, {r0, r2, r6, r9, sl, ip, lr}^	; <UNPREDICTABLE>
    1f9c:	006e5152 	rsbeq	r5, lr, r2, asr r1
    1fa0:	34433249 	strbcc	r3, [r3], #-585	; 0xfffffdb7
    1fa4:	5f52455f 	svcpl	0x0052455f
    1fa8:	6e515249 	cdpvs	2, 5, cr5, cr1, cr9, {2}
    1fac:	44505300 	ldrbmi	r5, [r0], #-768	; 0xfffffd00
    1fb0:	525f4649 	subspl	r4, pc, #76546048	; 0x4900000
    1fb4:	52495f58 	subpl	r5, r9, #88, 30	; 0x160
    1fb8:	44006e51 	strmi	r6, [r0], #-3665	; 0xfffff1af
    1fbc:	4d445346 	stclmi	3, cr5, [r4, #-280]	; 0xfffffee8
    1fc0:	4c465f31 	mcrrmi	15, 3, r5, r6, cr1
    1fc4:	495f3054 	ldmdbmi	pc, {r2, r4, r6, ip, sp}^	; <UNPREDICTABLE>
    1fc8:	006e5152 	rsbeq	r5, lr, r2, asr r1
    1fcc:	44534644 	ldrbmi	r4, [r3], #-1604	; 0xfffff9bc
    1fd0:	465f314d 	ldrbmi	r3, [pc], -sp, asr #2
    1fd4:	5f31544c 	svcpl	0x0031544c
    1fd8:	6e515249 	cdpvs	2, 5, cr5, cr1, cr9, {2}
    1fdc:	53464400 	movtpl	r4, #25600	; 0x6400
    1fe0:	5f314d44 	svcpl	0x00314d44
    1fe4:	32544c46 	subscc	r4, r4, #17920	; 0x4600
    1fe8:	5152495f 	cmppl	r2, pc, asr r9
    1fec:	4644006e 	strbmi	r0, [r4], -lr, rrx
    1ff0:	314d4453 	cmpcc	sp, r3, asr r4
    1ff4:	544c465f 	strbpl	r4, [ip], #-1631	; 0xfffff9a1
    1ff8:	52495f33 	subpl	r5, r9, #51, 30	; 0xcc
    1ffc:	53006e51 	movwpl	r6, #3665	; 0xe51
    2000:	434d4d44 	movtmi	r4, #56644	; 0xdd44
    2004:	52495f32 	subpl	r5, r9, #50, 30	; 0xc8
    2008:	43006e51 	movwmi	r6, #3665	; 0xe51
    200c:	5f334e41 	svcpl	0x00334e41
    2010:	495f5854 	ldmdbmi	pc, {r2, r4, r6, fp, ip, lr}^	; <UNPREDICTABLE>
    2014:	006e5152 	rsbeq	r5, lr, r2, asr r1
    2018:	334e4143 	movtcc	r4, #57667	; 0xe143
    201c:	3058525f 	subscc	r5, r8, pc, asr r2
    2020:	5152495f 	cmppl	r2, pc, asr r9
    2024:	4143006e 	cmpmi	r3, lr, rrx
    2028:	525f334e 	subspl	r3, pc, #939524097	; 0x38000001
    202c:	495f3158 	ldmdbmi	pc, {r3, r4, r6, r8, ip, sp}^	; <UNPREDICTABLE>
    2030:	006e5152 	rsbeq	r5, lr, r2, asr r1
    2034:	334e4143 	movtcc	r4, #57667	; 0xe143
    2038:	4543535f 	strbmi	r5, [r3, #-863]	; 0xfffffca1
    203c:	5152495f 	cmppl	r2, pc, asr r9
    2040:	504a006e 	subpl	r0, sl, lr, rrx
    2044:	495f4745 	ldmdbmi	pc, {r0, r2, r6, r8, r9, sl, lr}^	; <UNPREDICTABLE>
    2048:	006e5152 	rsbeq	r5, lr, r2, asr r1
    204c:	4f49444d 	svcmi	0x0049444d
    2050:	52495f53 	subpl	r5, r9, #332	; 0x14c
    2054:	43006e51 	movwmi	r6, #3665	; 0xe51
    2058:	6e750052 	mrcvs	0, 3, r0, cr5, cr2, {2}
    205c:	6e676973 			; <UNDEFINED> instruction: 0x6e676973
    2060:	69206465 	stmdbvs	r0!, {r0, r2, r5, r6, sl, sp, lr}
    2064:	7500746e 	strvc	r7, [r0, #-1134]	; 0xfffffb92
    2068:	33746e69 	cmncc	r4, #1680	; 0x690
    206c:	00745f32 	rsbseq	r5, r4, r2, lsr pc
    2070:	434c4c50 	movtmi	r4, #52304	; 0xcc50
    2074:	00524746 	subseq	r4, r2, r6, asr #14
    2078:	52474643 	subpl	r4, r7, #70254592	; 0x4300000
    207c:	52494300 	subpl	r4, r9, #0, 6
    2080:	42484100 	submi	r4, r8, #0, 2
    2084:	54535231 	ldrbpl	r5, [r3], #-561	; 0xfffffdcf
    2088:	48410052 	stmdami	r1, {r1, r4, r6}^
    208c:	53523242 	cmppl	r2, #536870916	; 0x20000004
    2090:	41005254 	tstmi	r0, r4, asr r2
    2094:	52334248 	eorspl	r4, r3, #72, 4	; 0x80000004
    2098:	00525453 	subseq	r5, r2, r3, asr r4
    209c:	45534552 	ldrbmi	r4, [r3, #-1362]	; 0xfffffaae
    20a0:	44455652 	strbmi	r5, [r5], #-1618	; 0xfffff9ae
    20a4:	50410030 	subpl	r0, r1, r0, lsr r0
    20a8:	53523142 	cmppl	r2, #-2147483632	; 0x80000010
    20ac:	41005254 	tstmi	r0, r4, asr r2
    20b0:	52324250 	eorspl	r4, r2, #80, 4
    20b4:	00525453 	subseq	r5, r2, r3, asr r4
    20b8:	45534552 	ldrbmi	r4, [r3, #-1362]	; 0xfffffaae
    20bc:	44455652 	strbmi	r5, [r5], #-1618	; 0xfffff9ae
    20c0:	48410031 	stmdami	r1, {r0, r4, r5}^
    20c4:	4e453142 	dvfmism	f3, f5, f2
    20c8:	48410052 	stmdami	r1, {r1, r4, r6}^
    20cc:	4e453242 	cdpmi	2, 4, cr3, cr5, cr2, {2}
    20d0:	48410052 	stmdami	r1, {r1, r4, r6}^
    20d4:	4e453342 	cdpmi	3, 4, cr3, cr5, cr2, {2}
    20d8:	45520052 	ldrbmi	r0, [r2, #-82]	; 0xffffffae
    20dc:	56524553 			; <UNDEFINED> instruction: 0x56524553
    20e0:	00324445 	eorseq	r4, r2, r5, asr #8
    20e4:	31425041 	cmpcc	r2, r1, asr #32
    20e8:	00524e45 	subseq	r4, r2, r5, asr #28
    20ec:	32425041 	subcc	r5, r2, #65	; 0x41
    20f0:	00524e45 	subseq	r4, r2, r5, asr #28
    20f4:	45534552 	ldrbmi	r4, [r3, #-1362]	; 0xfffffaae
    20f8:	44455652 	strbmi	r5, [r5], #-1618	; 0xfffff9ae
    20fc:	48410033 	stmdami	r1, {r0, r1, r4, r5}^
    2100:	504c3142 	subpl	r3, ip, r2, asr #2
    2104:	00524e45 	subseq	r4, r2, r5, asr #28
    2108:	32424841 	subcc	r4, r2, #4259840	; 0x410000
    210c:	4e45504c 	cdpmi	0, 4, cr5, cr5, cr12, {2}
    2110:	48410052 	stmdami	r1, {r1, r4, r6}^
    2114:	504c3342 	subpl	r3, ip, r2, asr #6
    2118:	00524e45 	subseq	r4, r2, r5, asr #28
    211c:	45534552 	ldrbmi	r4, [r3, #-1362]	; 0xfffffaae
    2120:	44455652 	strbmi	r5, [r5], #-1618	; 0xfffff9ae
    2124:	50410034 	subpl	r0, r1, r4, lsr r0
    2128:	504c3142 	subpl	r3, ip, r2, asr #2
    212c:	00524e45 	subseq	r4, r2, r5, asr #28
    2130:	32425041 	subcc	r5, r2, #65	; 0x41
    2134:	4e45504c 	cdpmi	0, 4, cr5, cr5, cr12, {2}
    2138:	45520052 	ldrbmi	r0, [r2, #-82]	; 0xffffffae
    213c:	56524553 			; <UNDEFINED> instruction: 0x56524553
    2140:	00354445 	eorseq	r4, r5, r5, asr #8
    2144:	52434442 	subpl	r4, r3, #1107296256	; 0x42000000
    2148:	52534300 	subspl	r4, r3, #0, 6
    214c:	53455200 	movtpl	r5, #20992	; 0x5200
    2150:	45565245 	ldrbmi	r5, [r6, #-581]	; 0xfffffdbb
    2154:	53003644 	movwpl	r3, #1604	; 0x644
    2158:	52474353 	subpl	r4, r7, #1275068417	; 0x4c000001
    215c:	4c4c5000 	marmi	acc0, r5, ip
    2160:	43533249 	cmpmi	r3, #-1879048188	; 0x90000004
    2164:	00524746 	subseq	r4, r2, r6, asr #14
    2168:	534c4c50 	movtpl	r4, #52304	; 0xcc50
    216c:	46434941 	strbmi	r4, [r3], -r1, asr #18
    2170:	44005247 	strmi	r5, [r0], #-583	; 0xfffffdb9
    2174:	46434b43 	strbmi	r4, [r3], -r3, asr #22
    2178:	00315247 	eorseq	r5, r1, r7, asr #4
    217c:	434b4344 	movtmi	r4, #45892	; 0xb344
    2180:	32524746 	subscc	r4, r2, #18350080	; 0x1180000
    2184:	43435200 	movtmi	r5, #12800	; 0x3200
    2188:	7079545f 	rsbsvc	r5, r9, pc, asr r4
    218c:	66654465 	strbtvs	r4, [r5], -r5, ror #8
    2190:	444f4d00 	strbmi	r4, [pc], #-3328	; 2198 <__Vectors_Size+0x1fa0>
    2194:	4f005245 	svcmi	0x00005245
    2198:	45505954 	ldrbmi	r5, [r0, #-2388]	; 0xfffff6ac
    219c:	534f0052 	movtpl	r0, #61522	; 0xf052
    21a0:	44454550 	strbmi	r4, [r5], #-1360	; 0xfffffab0
    21a4:	55500052 	ldrbpl	r0, [r0, #-82]	; 0xffffffae
    21a8:	00524450 	subseq	r4, r2, r0, asr r4
    21ac:	00524449 	subseq	r4, r2, r9, asr #8
    21b0:	0052444f 	subseq	r4, r2, pc, asr #8
    21b4:	52525342 	subspl	r5, r2, #134217729	; 0x8000001
    21b8:	4b434c00 	blmi	10d51c0 <__Vectors_Size+0x10d4fc8>
    21bc:	46410052 			; <UNDEFINED> instruction: 0x46410052
    21c0:	50470052 	subpl	r0, r7, r2, asr r0
    21c4:	545f4f49 	ldrbpl	r4, [pc], #-3913	; 21cc <__Vectors_Size+0x1fd4>
    21c8:	44657079 	strbtmi	r7, [r5], #-121	; 0xffffff87
    21cc:	43006665 	movwmi	r6, #1637	; 0x665
    21d0:	43003152 	movwmi	r3, #338	; 0x152
    21d4:	43003252 	movwmi	r3, #594	; 0x252
    21d8:	42003352 	andmi	r3, r0, #1207959553	; 0x48000001
    21dc:	47005252 	smlsdmi	r0, r2, r2, r5
    21e0:	00525054 	subseq	r5, r2, r4, asr r0
    21e4:	524f5452 	subpl	r5, pc, #1375731712	; 0x52000000
    21e8:	52515200 	subspl	r5, r1, #0, 4
    21ec:	52534900 	subspl	r4, r3, #0, 18
    21f0:	52434900 	subpl	r4, r3, #0, 18
    21f4:	52445200 	subpl	r5, r4, #0, 4
    21f8:	52445400 	subpl	r5, r4, #0, 8
    21fc:	41535500 	cmpmi	r3, r0, lsl #10
    2200:	545f5452 	ldrbpl	r5, [pc], #-1106	; 2208 <__Vectors_Size+0x2010>
    2204:	44657079 	strbtmi	r7, [r5], #-121	; 0xffffff87
    2208:	75006665 	strvc	r6, [r0, #-1637]	; 0xfffff99b
    220c:	6769736e 	strbvs	r7, [r9, -lr, ror #6]!
    2210:	2064656e 	rsbcs	r6, r4, lr, ror #10
    2214:	726f6873 	rsbvc	r6, pc, #7536640	; 0x730000
    2218:	69750074 	ldmdbvs	r5!, {r2, r4, r5, r6}^
    221c:	3631746e 	ldrtcc	r7, [r1], -lr, ror #8
    2220:	6900745f 	stmdbvs	r0, {r0, r1, r2, r3, r4, r6, sl, ip, sp, lr}
    2224:	3233746e 	eorscc	r7, r3, #1845493760	; 0x6e000000
    2228:	4900745f 	stmdbmi	r0, {r0, r1, r2, r3, r4, r6, sl, ip, sp, lr}
    222c:	00524553 	subseq	r4, r2, r3, asr r5
    2230:	52454349 	subpl	r4, r5, #603979777	; 0x24000001
    2234:	50534900 	subspl	r4, r3, r0, lsl #18
    2238:	43490052 	movtmi	r0, #36946	; 0x9052
    223c:	49005250 	stmdbmi	r0, {r4, r6, r9, ip, lr}
    2240:	00524241 	subseq	r4, r2, r1, asr #4
    2244:	53005049 	movwpl	r5, #73	; 0x49
    2248:	00524954 	subseq	r4, r2, r4, asr r9
    224c:	4349564e 	movtmi	r5, #38478	; 0x964e
    2250:	7079545f 	rsbsvc	r5, r9, pc, asr r4
    2254:	50430065 	subpl	r0, r3, r5, rrx
    2258:	00444955 	subeq	r4, r4, r5, asr r9
    225c:	52534349 	subspl	r4, r3, #603979777	; 0x24000001
    2260:	4f545600 	svcmi	0x00545600
    2264:	49410052 	stmdbmi	r1, {r1, r4, r6}^
    2268:	00524352 	subseq	r4, r2, r2, asr r3
    226c:	00524353 	subseq	r4, r2, r3, asr r3
    2270:	00524343 	subseq	r4, r2, r3, asr #6
    2274:	52504853 	subspl	r4, r0, #5439488	; 0x530000
    2278:	43485300 	movtmi	r5, #33536	; 0x8300
    227c:	43005253 	movwmi	r5, #595	; 0x253
    2280:	00525346 	subseq	r5, r2, r6, asr #6
    2284:	52534648 	subspl	r4, r3, #72, 12	; 0x4800000
    2288:	53464400 	movtpl	r4, #25600	; 0x6400
    228c:	4d4d0052 	stclmi	0, cr0, [sp, #-328]	; 0xfffffeb8
    2290:	00524146 	subseq	r4, r2, r6, asr #2
    2294:	52414642 	subpl	r4, r1, #69206016	; 0x4200000
    2298:	53464100 	movtpl	r4, #24832	; 0x6100
    229c:	44490052 	strbmi	r0, [r9], #-82	; 0xffffffae
    22a0:	5246505f 	subpl	r5, r6, #95	; 0x5f
    22a4:	5f444900 	svcpl	0x00444900
    22a8:	00524644 	subseq	r4, r2, r4, asr #12
    22ac:	415f4449 	cmpmi	pc, r9, asr #8
    22b0:	49005246 	stmdbmi	r0, {r1, r2, r6, r9, ip, lr}
    22b4:	464d5f44 	strbmi	r5, [sp], -r4, asr #30
    22b8:	44490052 	strbmi	r0, [r9], #-82	; 0xffffffae
    22bc:	4153495f 	cmpmi	r3, pc, asr r9
    22c0:	4c430052 	mcrrmi	0, 5, r0, r3, cr2
    22c4:	00524449 	subseq	r4, r2, r9, asr #8
    22c8:	00525443 	subseq	r5, r2, r3, asr #8
    22cc:	49534343 	ldmdbmi	r3, {r0, r1, r6, r8, r9, lr}^
    22d0:	43005244 	movwmi	r5, #580	; 0x244
    22d4:	4c455353 	mcrrmi	3, 5, r5, r5, cr3
    22d8:	50430052 	subpl	r0, r3, r2, asr r0
    22dc:	00524341 	subseq	r4, r2, r1, asr #6
    22e0:	5246564d 	subpl	r5, r6, #80740352	; 0x4d00000
    22e4:	564d0030 			; <UNDEFINED> instruction: 0x564d0030
    22e8:	00315246 	eorseq	r5, r1, r6, asr #4
    22ec:	5246564d 	subpl	r5, r6, #80740352	; 0x4d00000
    22f0:	43490032 	movtmi	r0, #36914	; 0x9032
    22f4:	4c4c4149 	stfmie	f4, [ip], {73}	; 0x49
    22f8:	43490055 	movtmi	r0, #36949	; 0x9055
    22fc:	41564d49 	cmpmi	r6, r9, asr #26
    2300:	43440055 	movtmi	r0, #16469	; 0x4055
    2304:	41564d49 	cmpmi	r6, r9, asr #26
    2308:	43440043 	movtmi	r0, #16451	; 0x4043
    230c:	00575349 	subseq	r5, r7, r9, asr #6
    2310:	4d434344 	stclmi	3, cr4, [r3, #-272]	; 0xfffffef0
    2314:	00554156 	subseq	r4, r5, r6, asr r1
    2318:	4d434344 	stclmi	3, cr4, [r3, #-272]	; 0xfffffef0
    231c:	00434156 	subeq	r4, r3, r6, asr r1
    2320:	53434344 	movtpl	r4, #13124	; 0x3344
    2324:	43440057 	movtmi	r0, #16471	; 0x4057
    2328:	564d4943 	strbpl	r4, [sp], -r3, asr #18
    232c:	44004341 	strmi	r4, [r0], #-833	; 0xfffffcbf
    2330:	53494343 	movtpl	r4, #37699	; 0x9343
    2334:	50420057 	subpl	r0, r2, r7, asr r0
    2338:	4c4c4149 	stfmie	f4, [ip], {73}	; 0x49
    233c:	53455200 	movtpl	r5, #20992	; 0x5200
    2340:	45565245 	ldrbmi	r5, [r6, #-581]	; 0xfffffdbb
    2344:	49003744 	stmdbmi	r0, {r2, r6, r8, r9, sl, ip, sp}
    2348:	434d4354 	movtmi	r4, #54100	; 0xd354
    234c:	54440052 	strbpl	r0, [r4], #-82	; 0xffffffae
    2350:	52434d43 	subpl	r4, r3, #4288	; 0x10c0
    2354:	42484100 	submi	r4, r8, #0, 2
    2358:	00524350 	subseq	r4, r2, r0, asr r3
    235c:	52434143 	subpl	r4, r3, #-1073741808	; 0xc0000010
    2360:	42484100 	submi	r4, r8, #0, 2
    2364:	00524353 	subseq	r4, r2, r3, asr r3
    2368:	45534552 	ldrbmi	r4, [r3, #-1362]	; 0xfffffaae
    236c:	44455652 	strbmi	r5, [r5], #-1618	; 0xfffff9ae
    2370:	42410038 	submi	r0, r1, #56	; 0x38
    2374:	00525346 	subseq	r5, r2, r6, asr #6
    2378:	5f424353 	svcpl	0x00424353
    237c:	65707954 	ldrbvs	r7, [r0, #-2388]!	; 0xfffff6ac
    2380:	4d525500 	cfldr64mi	mvdx5, [r2, #-0]
    2384:	495f3733 	ldmdbmi	pc, {r0, r1, r4, r5, r8, r9, sl, ip, sp}^	; <UNPREDICTABLE>
    2388:	0074696e 	rsbseq	r6, r4, lr, ror #18
    238c:	564e5f5f 			; <UNDEFINED> instruction: 0x564e5f5f
    2390:	535f4349 	cmppl	pc, #603979777	; 0x24000001
    2394:	72507465 	subsvc	r7, r0, #1694498816	; 0x65000000
    2398:	69726f69 	ldmdbvs	r2!, {r0, r3, r5, r6, r8, r9, sl, fp, sp, lr}^
    239c:	5f007974 	svcpl	0x00007974
    23a0:	49564e5f 	ldmdbmi	r6, {r0, r1, r2, r3, r4, r6, r9, sl, fp, lr}^
    23a4:	6e455f43 	cdpvs	15, 4, cr5, cr5, cr3, {2}
    23a8:	656c6261 	strbvs	r6, [ip, #-609]!	; 0xfffffd9f
    23ac:	00515249 	subseq	r5, r1, r9, asr #4
    23b0:	334d5255 	movtcc	r5, #53845	; 0xd255
    23b4:	654d5f37 	strbvs	r5, [sp, #-3895]	; 0xfffff0c9
    23b8:	72757361 	rsbsvc	r7, r5, #-2080374783	; 0x84000001
    23bc:	53550065 	cmppl	r5, #101	; 0x65
    23c0:	32545241 	subscc	r5, r4, #268435460	; 0x10000004
    23c4:	5152495f 	cmppl	r2, pc, asr r9
    23c8:	646e6148 	strbtvs	r6, [lr], #-328	; 0xfffffeb8
    23cc:	0072656c 	rsbseq	r6, r2, ip, ror #10
    23d0:	334d5255 	movtcc	r5, #53845	; 0xd255
    23d4:	65475f37 	strbvs	r5, [r7, #-3895]	; 0xfffff0c9
    23d8:	6d655474 	cfstrdvs	mvd5, [r5, #-464]!	; 0xfffffe30
    23dc:	61726570 	cmnvs	r2, r0, ror r5
    23e0:	65727574 	ldrbvs	r7, [r2, #-1396]!	; 0xfffffa8c
    23e4:	6f6c6600 	svcvs	0x006c6600
    23e8:	55007461 	strpl	r7, [r0, #-1121]	; 0xfffffb9f
    23ec:	37334d52 			; <UNDEFINED> instruction: 0x37334d52
    23f0:	7465475f 	strbtvc	r4, [r5], #-1887	; 0xfffff8a1
    23f4:	74736944 	ldrbtvc	r6, [r3], #-2372	; 0xfffff6bc
    23f8:	65636e61 	strbvs	r6, [r3, #-3681]!	; 0xfffff19f
    23fc:	51524900 	cmppl	r2, r0, lsl #18
    2400:	5249006e 	subpl	r0, r9, #110	; 0x6e
    2404:	545f6e51 	ldrbpl	r6, [pc], #-3665	; 240c <__Vectors_Size+0x2214>
    2408:	00657079 	rsbeq	r7, r5, r9, ror r0
    240c:	6f697270 	svcvs	0x00697270
    2410:	79746972 	ldmdbvc	r4!, {r1, r4, r5, r6, r8, fp, sp, lr}^
    2414:	70797400 	rsbsvc	r7, r9, r0, lsl #8
    2418:	00690065 	rsbeq	r0, r9, r5, rrx
    241c:	706d6574 	rsbvc	r6, sp, r4, ror r5
    2420:	74617265 	strbtvc	r7, [r1], #-613	; 0xfffffd9b
    2424:	00657275 	rsbeq	r7, r5, r5, ror r2
    2428:	726f6873 	rsbvc	r6, pc, #7536640	; 0x730000
    242c:	6e690074 	mcrvs	0, 3, r0, cr9, cr4, {3}
    2430:	5f363174 	svcpl	0x00363174
    2434:	65740074 	ldrbvs	r0, [r4, #-116]!	; 0xffffff8c
    2438:	7265706d 	rsbvc	r7, r5, #109	; 0x6d
    243c:	72757461 	rsbsvc	r7, r5, #1627389952	; 0x61000000
    2440:	6f6c4665 	svcvs	0x006c4665
    2444:	64007461 	strvs	r7, [r0], #-1121	; 0xfffffb9f
    2448:	61747369 	cmnvs	r4, r9, ror #6
    244c:	0065636e 	rsbeq	r6, r5, lr, ror #6
    2450:	706d6f43 	rsbvc	r6, sp, r3, asr #30
    2454:	6e656e6f 	cdpvs	14, 6, cr6, cr5, cr15, {3}
    2458:	41203a74 			; <UNDEFINED> instruction: 0x41203a74
    245c:	43206d72 			; <UNDEFINED> instruction: 0x43206d72
    2460:	69706d6f 	ldmdbvs	r0!, {r0, r1, r2, r3, r5, r6, r8, sl, fp, sp, lr}^
    2464:	2072656c 	rsbscs	r6, r2, ip, ror #10
    2468:	20726f66 	rsbscs	r6, r2, r6, ror #30
    246c:	65626d45 	strbvs	r6, [r2, #-3397]!	; 0xfffff2bb
    2470:	64656464 	strbtvs	r6, [r5], #-1124	; 0xfffffb9c
    2474:	312e3620 			; <UNDEFINED> instruction: 0x312e3620
    2478:	6f542039 	svcvs	0x00542039
    247c:	203a6c6f 	eorscs	r6, sl, pc, ror #24
    2480:	636d7261 	cmnvs	sp, #268435462	; 0x10000006
    2484:	676e616c 	strbvs	r6, [lr, -ip, ror #2]!
    2488:	65355b20 	ldrvs	r5, [r5, #-2848]!	; 0xfffff4e0
    248c:	62633337 	rsbvs	r3, r3, #-603979776	; 0xdc000000
    2490:	005d3030 	subseq	r3, sp, r0, lsr r0
    2494:	2e6d6974 			; <UNDEFINED> instruction: 0x2e6d6974
    2498:	3a440063 	bcc	110262c <__Vectors_Size+0x1102434>
    249c:	6f44235c 	svcvs	0x0044235c
    24a0:	656d7563 	strbvs	r7, [sp, #-1379]!	; 0xfffffa9d
    24a4:	5c73746e 	cfldrdpl	mvd7, [r3], #-440	; 0xfffffe48
    24a8:	53495655 	movtpl	r5, #38485	; 0x9655
    24ac:	5c4e4f49 	mcrrpl	15, 4, r4, lr, cr9
    24b0:	52414d53 	subpl	r4, r1, #5312	; 0x14c0
    24b4:	41575f54 	cmpmi	r7, r4, asr pc
    24b8:	555f454b 	ldrbpl	r4, [pc, #-1355]	; 1f75 <__Vectors_Size+0x1d7d>
    24bc:	54430050 	strbpl	r0, [r3], #-80	; 0xffffffb0
    24c0:	75004c52 	strvc	r4, [r0, #-3154]	; 0xfffff3ae
    24c4:	6769736e 	strbvs	r7, [r9, -lr, ror #6]!
    24c8:	2064656e 	rsbcs	r6, r4, lr, ror #10
    24cc:	00746e69 	rsbseq	r6, r4, r9, ror #28
    24d0:	746e6975 	strbtvc	r6, [lr], #-2421	; 0xfffff68b
    24d4:	745f3233 	ldrbvc	r3, [pc], #-563	; 24dc <__Vectors_Size+0x22e4>
    24d8:	414f4c00 	cmpmi	pc, r0, lsl #24
    24dc:	41560044 	cmpmi	r6, r4, asr #32
    24e0:	4143004c 	cmpmi	r3, ip, asr #32
    24e4:	0042494c 	subeq	r4, r2, ip, asr #18
    24e8:	54737953 	ldrbtpl	r7, [r3], #-2387	; 0xfffff6ad
    24ec:	5f6b6369 	svcpl	0x006b6369
    24f0:	65707954 	ldrbvs	r7, [r0, #-2388]!	; 0xfffff6ac
    24f4:	4d495400 	cfstrdmi	mvd5, [r9, #-0]
    24f8:	6961575f 	stmdbvs	r1!, {r0, r1, r2, r3, r4, r6, r8, r9, sl, ip, lr}^
    24fc:	63694d74 	cmnvs	r9, #116, 26	; 0x1d00
    2500:	00736f72 	rsbseq	r6, r3, r2, ror pc
    2504:	5f4d4954 	svcpl	0x004d4954
    2508:	74696157 	strbtvc	r6, [r9], #-343	; 0xfffffea9
    250c:	00737500 	rsbseq	r7, r3, r0, lsl #10
    2510:	736d0069 	cmnvc	sp, #105	; 0x69
    2514:	6d6f4300 	stclvs	3, cr4, [pc, #-0]	; 251c <__Vectors_Size+0x2324>
    2518:	656e6f70 	strbvs	r6, [lr, #-3952]!	; 0xfffff090
    251c:	203a746e 	eorscs	r7, sl, lr, ror #8
    2520:	206d7241 	rsbcs	r7, sp, r1, asr #4
    2524:	706d6f43 	rsbvc	r6, sp, r3, asr #30
    2528:	72656c69 	rsbvc	r6, r5, #26880	; 0x6900
    252c:	726f6620 	rsbvc	r6, pc, #32, 12	; 0x2000000
    2530:	626d4520 	rsbvs	r4, sp, #32, 10	; 0x8000000
    2534:	65646465 	strbvs	r6, [r4, #-1125]!	; 0xfffffb9b
    2538:	2e362064 	cdpcs	0, 3, cr2, cr6, cr4, {3}
    253c:	54203931 	strtpl	r3, [r0], #-2353	; 0xfffff6cf
    2540:	3a6c6f6f 	bcc	1b1e304 <__Vectors_Size+0x1b1e10c>
    2544:	6d726120 	ldfvse	f6, [r2, #-128]!	; 0xffffff80
    2548:	6e616c63 	cdpvs	12, 6, cr6, cr1, cr3, {3}
    254c:	355b2067 	ldrbcc	r2, [fp, #-103]	; 0xffffff99
    2550:	63333765 	teqvs	r3, #26476544	; 0x1940000
    2554:	5d303062 	ldcpl	0, cr3, [r0, #-392]!	; 0xfffffe78
    2558:	69616d00 	stmdbvs	r1!, {r8, sl, fp, sp, lr}^
    255c:	00632e6e 	rsbeq	r2, r3, lr, ror #28
    2560:	235c3a44 	cmpcs	ip, #68, 20	; 0x44000
    2564:	75636f44 	strbvc	r6, [r3, #-3908]!	; 0xfffff0bc
    2568:	746e656d 	strbtvc	r6, [lr], #-1389	; 0xfffffa93
    256c:	56555c73 			; <UNDEFINED> instruction: 0x56555c73
    2570:	4f495349 	svcmi	0x00495349
    2574:	4d535c4e 	ldclmi	12, cr5, [r3, #-312]	; 0xfffffec8
    2578:	5f545241 	svcpl	0x00545241
    257c:	454b4157 	strbmi	r4, [fp, #-343]	; 0xfffffea9
    2580:	0050555f 	subseq	r5, r0, pc, asr r5
    2584:	72616863 	rsbvc	r6, r1, #6488064	; 0x630000
    2588:	415f5f00 	cmpmi	pc, r0, lsl #30
    258c:	59415252 	stmdbpl	r1, {r1, r4, r6, r9, ip, lr}^
    2590:	5a49535f 	bpl	1257314 <__Vectors_Size+0x125711c>
    2594:	59545f45 	ldmdbpl	r4, {r0, r2, r6, r8, r9, sl, fp, ip, lr}^
    2598:	5f5f4550 	svcpl	0x005f4550
    259c:	79616400 	stmdbvc	r1!, {sl, sp, lr}^
    25a0:	6f6d0073 	svcvs	0x006d0073
    25a4:	7368746e 	cmnvc	r8, #1845493760	; 0x6e000000
    25a8:	64707500 	ldrbtvs	r7, [r0], #-1280	; 0xfffffb00
    25ac:	00657461 	rsbeq	r7, r5, r1, ror #8
    25b0:	69736e75 	ldmdbvs	r3!, {r0, r2, r4, r5, r6, r9, sl, fp, sp, lr}^
    25b4:	64656e67 	strbtvs	r6, [r5], #-3687	; 0xfffff199
    25b8:	61686320 	cmnvs	r8, r0, lsr #6
    25bc:	69750072 	ldmdbvs	r5!, {r1, r4, r5, r6}^
    25c0:	5f38746e 	svcpl	0x0038746e
    25c4:	6f6d0074 	svcvs	0x006d0074
    25c8:	69006576 	stmdbvs	r0, {r1, r2, r4, r5, r6, r8, sl, sp, lr}
    25cc:	7300746e 	movwvc	r7, #1134	; 0x46e
    25d0:	65746174 	ldrbvs	r6, [r4, #-372]!	; 0xfffffe8c
    25d4:	33534400 	cmpcc	r3, #0, 8
    25d8:	5f313332 	svcpl	0x00313332
    25dc:	6f636553 	svcvs	0x00636553
    25e0:	7300646e 	movwvc	r6, #1134	; 0x46e
    25e4:	656e6769 	strbvs	r6, [lr, #-1897]!	; 0xfffff897
    25e8:	68632064 	stmdavs	r3!, {r2, r5, r6, sp}^
    25ec:	69007261 	stmdbvs	r0, {r0, r5, r6, r9, ip, sp, lr}
    25f0:	5f38746e 	svcpl	0x0038746e
    25f4:	53440074 	movtpl	r0, #16500	; 0x4074
    25f8:	31333233 	teqcc	r3, r3, lsr r2
    25fc:	6e694d5f 	mcrvs	13, 3, r4, cr9, cr15, {2}
    2600:	00657475 	rsbeq	r7, r5, r5, ror r4
    2604:	32335344 	eorscc	r5, r3, #68, 6	; 0x10000001
    2608:	485f3133 	ldmdami	pc, {r0, r1, r4, r5, r8, ip, sp}^	; <UNPREDICTABLE>
    260c:	0072756f 	rsbseq	r7, r2, pc, ror #10
    2610:	32335344 	eorscc	r5, r3, #68, 6	; 0x10000001
    2614:	445f3133 	ldrbmi	r3, [pc], #-307	; 261c <__Vectors_Size+0x2424>
    2618:	65577961 	ldrbvs	r7, [r7, #-2401]	; 0xfffff69f
    261c:	44006b65 	strmi	r6, [r0], #-2917	; 0xfffff49b
    2620:	33323353 	teqcc	r2, #1275068417	; 0x4c000001
    2624:	61445f31 	cmpvs	r4, r1, lsr pc
    2628:	6e6f4d79 	mcrvs	13, 3, r4, cr15, cr9, {3}
    262c:	44006874 	strmi	r6, [r0], #-2164	; 0xfffff78c
    2630:	33323353 	teqcc	r2, #1275068417	; 0x4c000001
    2634:	6f4d5f31 	svcvs	0x004d5f31
    2638:	0068746e 	rsbeq	r7, r8, lr, ror #8
    263c:	32335344 	eorscc	r5, r3, #68, 6	; 0x10000001
    2640:	595f3133 	ldmdbpl	pc, {r0, r1, r4, r5, r8, ip, sp}^	; <UNPREDICTABLE>
    2644:	00726165 	rsbseq	r6, r2, r5, ror #2
    2648:	32335344 	eorscc	r5, r3, #68, 6	; 0x10000001
    264c:	435f3133 	cmpmi	pc, #-1073741812	; 0xc000000c
    2650:	75746e65 	ldrbvc	r6, [r4, #-3685]!	; 0xfffff19b
    2654:	41007972 	tstmi	r0, r2, ror r9
    2658:	6c616972 			; <UNDEFINED> instruction: 0x6c616972
    265c:	31783231 	cmncc	r8, r1, lsr r2
    2660:	72410032 	subvc	r0, r1, #50	; 0x32
    2664:	326c6169 	rsbcc	r6, ip, #1073741850	; 0x4000001a
    2668:	38327838 	ldmdacc	r2!, {r3, r4, r5, fp, ip, sp, lr}
    266c:	444f4d00 	strbmi	r4, [pc], #-3328	; 2674 <__Vectors_Size+0x247c>
    2670:	75005245 	strvc	r5, [r0, #-581]	; 0xfffffdbb
    2674:	6769736e 	strbvs	r7, [r9, -lr, ror #6]!
    2678:	2064656e 	rsbcs	r6, r4, lr, ror #10
    267c:	00746e69 	rsbseq	r6, r4, r9, ror #28
    2680:	746e6975 	strbtvc	r6, [lr], #-2421	; 0xfffff68b
    2684:	745f3233 	ldrbvc	r3, [pc], #-563	; 268c <__Vectors_Size+0x2494>
    2688:	59544f00 	ldmdbpl	r4, {r8, r9, sl, fp, lr}^
    268c:	00524550 	subseq	r4, r2, r0, asr r5
    2690:	4550534f 	ldrbmi	r5, [r0, #-847]	; 0xfffffcb1
    2694:	00524445 	subseq	r4, r2, r5, asr #8
    2698:	44505550 	ldrbmi	r5, [r0], #-1360	; 0xfffffab0
    269c:	44490052 	strbmi	r0, [r9], #-82	; 0xffffffae
    26a0:	444f0052 	strbmi	r0, [pc], #-82	; 26a8 <__Vectors_Size+0x24b0>
    26a4:	53420052 	movtpl	r0, #8274	; 0x2052
    26a8:	4c005252 	sfmmi	f5, 4, [r0], {82}	; 0x52
    26ac:	00524b43 	subseq	r4, r2, r3, asr #22
    26b0:	00524641 	subseq	r4, r2, r1, asr #12
    26b4:	4f495047 	svcmi	0x00495047
    26b8:	7079545f 	rsbsvc	r5, r9, pc, asr r4
    26bc:	66654465 	strbtvs	r4, [r5], -r5, ror #8
    26c0:	69616d00 	stmdbvs	r1!, {r8, sl, fp, sp, lr}^
    26c4:	414d006e 	cmpmi	sp, lr, rrx
    26c8:	495f4e49 	ldmdbmi	pc, {r0, r3, r6, r9, sl, fp, lr}^	; <UNPREDICTABLE>
    26cc:	6974696e 	ldmdbvs	r4!, {r1, r2, r3, r5, r6, r8, fp, sp, lr}^
    26d0:	7a696c61 	bvc	1a5d85c <__Vectors_Size+0x1a5d664>
    26d4:	6f697461 	svcvs	0x00697461
    26d8:	414d006e 	cmpmi	sp, lr, rrx
    26dc:	445f4e49 	ldrbmi	r4, [pc], #-3657	; 26e4 <__Vectors_Size+0x24ec>
    26e0:	6c707369 	ldclvs	3, cr7, [r0], #-420	; 0xfffffe5c
    26e4:	61447961 	cmpvs	r4, r1, ror #18
    26e8:	4d006574 	cfstr32mi	mvfx6, [r0, #-464]	; 0xfffffe30
    26ec:	5f4e4941 	svcpl	0x004e4941
    26f0:	74746553 	ldrbtvc	r6, [r4], #-1363	; 0xfffffaad
    26f4:	73676e69 	cmnvc	r7, #1680	; 0x690
    26f8:	6e616800 	cdpvs	8, 6, cr6, cr1, cr0, {0}
    26fc:	6e696c64 	cdpvs	12, 6, cr6, cr9, cr4, {3}
    2700:	61680067 	cmnvs	r8, r7, rrx
    2704:	696c646e 	stmdbvs	ip!, {r1, r2, r3, r5, r6, sl, sp, lr}^
    2708:	6144676e 	cmpvs	r4, lr, ror #14
    270c:	61680079 	smcvs	32777	; 0x8009
    2710:	696c646e 	stmdbvs	ip!, {r1, r2, r3, r5, r6, sl, sp, lr}^
    2714:	6f4d676e 	svcvs	0x004d676e
    2718:	0068746e 	rsbeq	r7, r8, lr, ror #8
    271c:	646e6168 	strbtvs	r6, [lr], #-360	; 0xfffffe98
    2720:	676e696c 	strbvs	r6, [lr, -ip, ror #18]!
    2724:	72616559 	rsbvc	r6, r1, #373293056	; 0x16400000
    2728:	74616400 	strbtvc	r6, [r1], #-1024	; 0xfffffc00
    272c:	64005361 	strvs	r5, [r0], #-865	; 0xfffffc9f
    2730:	00617461 	rsbeq	r7, r1, r1, ror #8
    2734:	6c746974 			; <UNDEFINED> instruction: 0x6c746974
    2738:	616d0065 	cmnvs	sp, r5, rrx
    273c:	696d0078 	stmdbvs	sp!, {r3, r4, r5, r6}^
    2740:	7369006e 	cmnvc	r9, #110	; 0x6e
    2744:	7061654c 	rsbvc	r6, r1, ip, asr #10
    2748:	72616559 	rsbvc	r6, r1, #373293056	; 0x16400000
    274c:	6d6f4300 	stclvs	3, cr4, [pc, #-0]	; 2754 <__Vectors_Size+0x255c>
    2750:	656e6f70 	strbvs	r6, [lr, #-3952]!	; 0xfffff090
    2754:	203a746e 	eorscs	r7, sl, lr, ror #8
    2758:	206d7241 	rsbcs	r7, sp, r1, asr #4
    275c:	706d6f43 	rsbvc	r6, sp, r3, asr #30
    2760:	72656c69 	rsbvc	r6, r5, #26880	; 0x6900
    2764:	726f6620 	rsbvc	r6, pc, #32, 12	; 0x2000000
    2768:	626d4520 	rsbvs	r4, sp, #32, 10	; 0x8000000
    276c:	65646465 	strbvs	r6, [r4, #-1125]!	; 0xfffffb9b
    2770:	2e362064 	cdpcs	0, 3, cr2, cr6, cr4, {3}
    2774:	54203931 	strtpl	r3, [r0], #-2353	; 0xfffff6cf
    2778:	3a6c6f6f 	bcc	1b1e53c <__Vectors_Size+0x1b1e344>
    277c:	6d726120 	ldfvse	f6, [r2, #-128]!	; 0xffffff80
    2780:	6e616c63 	cdpvs	12, 6, cr6, cr1, cr3, {3}
    2784:	355b2067 	ldrbcc	r2, [fp, #-103]	; 0xffffff99
    2788:	63333765 	teqvs	r3, #26476544	; 0x1940000
    278c:	5d303062 	ldcpl	0, cr3, [r0, #-392]!	; 0xfffffe78
    2790:	69706700 	ldmdbvs	r0!, {r8, r9, sl, sp, lr}^
    2794:	00632e6f 	rsbeq	r2, r3, pc, ror #28
    2798:	235c3a44 	cmpcs	ip, #68, 20	; 0x44000
    279c:	75636f44 	strbvc	r6, [r3, #-3908]!	; 0xfffff0bc
    27a0:	746e656d 	strbtvc	r6, [lr], #-1389	; 0xfffffa93
    27a4:	56555c73 			; <UNDEFINED> instruction: 0x56555c73
    27a8:	4f495349 	svcmi	0x00495349
    27ac:	4d535c4e 	ldclmi	12, cr5, [r3, #-312]	; 0xfffffec8
    27b0:	5f545241 	svcpl	0x00545241
    27b4:	454b4157 	strbmi	r4, [fp, #-343]	; 0xfffffea9
    27b8:	0050555f 	subseq	r5, r0, pc, asr r5
    27bc:	45444f4d 	strbmi	r4, [r4, #-3917]	; 0xfffff0b3
    27c0:	6e750052 	mrcvs	0, 3, r0, cr5, cr2, {2}
    27c4:	6e676973 			; <UNDEFINED> instruction: 0x6e676973
    27c8:	69206465 	stmdbvs	r0!, {r0, r2, r5, r6, sl, sp, lr}
    27cc:	7500746e 	strvc	r7, [r0, #-1134]	; 0xfffffb92
    27d0:	33746e69 	cmncc	r4, #1680	; 0x690
    27d4:	00745f32 	rsbseq	r5, r4, r2, lsr pc
    27d8:	5059544f 	subspl	r5, r9, pc, asr #8
    27dc:	4f005245 	svcmi	0x00005245
    27e0:	45455053 	strbmi	r5, [r5, #-83]	; 0xffffffad
    27e4:	50005244 	andpl	r5, r0, r4, asr #4
    27e8:	52445055 	subpl	r5, r4, #85	; 0x55
    27ec:	52444900 	subpl	r4, r4, #0, 18
    27f0:	52444f00 	subpl	r4, r4, #0, 30
    27f4:	52534200 	subspl	r4, r3, #0, 4
    27f8:	434c0052 	movtmi	r0, #49234	; 0xc052
    27fc:	4100524b 	tstmi	r0, fp, asr #4
    2800:	5f005246 	svcpl	0x00005246
    2804:	5252415f 	subspl	r4, r2, #-1073741801	; 0xc0000017
    2808:	535f5941 	cmppl	pc, #1064960	; 0x104000
    280c:	5f455a49 	svcpl	0x00455a49
    2810:	45505954 	ldrbmi	r5, [r0, #-2388]	; 0xfffff6ac
    2814:	47005f5f 	smlsdmi	r0, pc, pc, r5	; <UNPREDICTABLE>
    2818:	5f4f4950 	svcpl	0x004f4950
    281c:	65707954 	ldrbvs	r7, [r0, #-2388]!	; 0xfffff6ac
    2820:	00666544 	rsbeq	r6, r6, r4, asr #10
    2824:	50005243 	andpl	r5, r0, r3, asr #4
    2828:	46434c4c 	strbmi	r4, [r3], -ip, asr #24
    282c:	43005247 	movwmi	r5, #583	; 0x247
    2830:	00524746 	subseq	r4, r2, r6, asr #14
    2834:	00524943 	subseq	r4, r2, r3, asr #18
    2838:	31424841 	cmpcc	r2, r1, asr #16
    283c:	52545352 	subspl	r5, r4, #1207959553	; 0x48000001
    2840:	42484100 	submi	r4, r8, #0, 2
    2844:	54535232 	ldrbpl	r5, [r3], #-562	; 0xfffffdce
    2848:	48410052 	stmdami	r1, {r1, r4, r6}^
    284c:	53523342 	cmppl	r2, #134217729	; 0x8000001
    2850:	52005254 	andpl	r5, r0, #84, 4	; 0x40000005
    2854:	52455345 	subpl	r5, r5, #335544321	; 0x14000001
    2858:	30444556 	subcc	r4, r4, r6, asr r5
    285c:	42504100 	subsmi	r4, r0, #0, 2
    2860:	54535231 	ldrbpl	r5, [r3], #-561	; 0xfffffdcf
    2864:	50410052 	subpl	r0, r1, r2, asr r0
    2868:	53523242 	cmppl	r2, #536870916	; 0x20000004
    286c:	52005254 	andpl	r5, r0, #84, 4	; 0x40000005
    2870:	52455345 	subpl	r5, r5, #335544321	; 0x14000001
    2874:	31444556 	cmpcc	r4, r6, asr r5
    2878:	42484100 	submi	r4, r8, #0, 2
    287c:	524e4531 	subpl	r4, lr, #205520896	; 0xc400000
    2880:	42484100 	submi	r4, r8, #0, 2
    2884:	524e4532 	subpl	r4, lr, #209715200	; 0xc800000
    2888:	42484100 	submi	r4, r8, #0, 2
    288c:	524e4533 	subpl	r4, lr, #213909504	; 0xcc00000
    2890:	53455200 	movtpl	r5, #20992	; 0x5200
    2894:	45565245 	ldrbmi	r5, [r6, #-581]	; 0xfffffdbb
    2898:	41003244 	tstmi	r0, r4, asr #4
    289c:	45314250 	ldrmi	r4, [r1, #-592]!	; 0xfffffdb0
    28a0:	4100524e 	tstmi	r0, lr, asr #4
    28a4:	45324250 	ldrmi	r4, [r2, #-592]!	; 0xfffffdb0
    28a8:	5200524e 	andpl	r5, r0, #-536870908	; 0xe0000004
    28ac:	52455345 	subpl	r5, r5, #335544321	; 0x14000001
    28b0:	33444556 	movtcc	r4, #17750	; 0x4556
    28b4:	42484100 	submi	r4, r8, #0, 2
    28b8:	45504c31 	ldrbmi	r4, [r0, #-3121]	; 0xfffff3cf
    28bc:	4100524e 	tstmi	r0, lr, asr #4
    28c0:	4c324248 	lfmmi	f4, 4, [r2], #-288	; 0xfffffee0
    28c4:	524e4550 	subpl	r4, lr, #80, 10	; 0x14000000
    28c8:	42484100 	submi	r4, r8, #0, 2
    28cc:	45504c33 	ldrbmi	r4, [r0, #-3123]	; 0xfffff3cd
    28d0:	5200524e 	andpl	r5, r0, #-536870908	; 0xe0000004
    28d4:	52455345 	subpl	r5, r5, #335544321	; 0x14000001
    28d8:	34444556 	strbcc	r4, [r4], #-1366	; 0xfffffaaa
    28dc:	42504100 	subsmi	r4, r0, #0, 2
    28e0:	45504c31 	ldrbmi	r4, [r0, #-3121]	; 0xfffff3cf
    28e4:	4100524e 	tstmi	r0, lr, asr #4
    28e8:	4c324250 	lfmmi	f4, 4, [r2], #-320	; 0xfffffec0
    28ec:	524e4550 	subpl	r4, lr, #80, 10	; 0x14000000
    28f0:	53455200 	movtpl	r5, #20992	; 0x5200
    28f4:	45565245 	ldrbmi	r5, [r6, #-581]	; 0xfffffdbb
    28f8:	42003544 	andmi	r3, r0, #68, 10	; 0x11000000
    28fc:	00524344 	subseq	r4, r2, r4, asr #6
    2900:	00525343 	subseq	r5, r2, r3, asr #6
    2904:	45534552 	ldrbmi	r4, [r3, #-1362]	; 0xfffffaae
    2908:	44455652 	strbmi	r5, [r5], #-1618	; 0xfffff9ae
    290c:	53530036 	cmppl	r3, #54	; 0x36
    2910:	00524743 	subseq	r4, r2, r3, asr #14
    2914:	494c4c50 	stmdbmi	ip, {r4, r6, sl, fp, lr}^
    2918:	46435332 			; <UNDEFINED> instruction: 0x46435332
    291c:	50005247 	andpl	r5, r0, r7, asr #4
    2920:	41534c4c 	cmpmi	r3, ip, asr #24
    2924:	47464349 	strbmi	r4, [r6, -r9, asr #6]
    2928:	43440052 	movtmi	r0, #16466	; 0x4052
    292c:	4746434b 	strbmi	r4, [r6, -fp, asr #6]
    2930:	44003152 	strmi	r3, [r0], #-338	; 0xfffffeae
    2934:	46434b43 	strbmi	r4, [r3], -r3, asr #22
    2938:	00325247 	eorseq	r5, r2, r7, asr #4
    293c:	5f434352 	svcpl	0x00434352
    2940:	65707954 	ldrbvs	r7, [r0, #-2388]!	; 0xfffff6ac
    2944:	00666544 	rsbeq	r6, r6, r4, asr #10
    2948:	43005253 	movwmi	r5, #595	; 0x253
    294c:	43003152 	movwmi	r3, #338	; 0x152
    2950:	53003252 	movwpl	r3, #594	; 0x252
    2954:	3152504d 	cmpcc	r2, sp, asr #32
    2958:	504d5300 	subpl	r5, sp, r0, lsl #6
    295c:	4a003252 	bmi	f2ac <__Vectors_Size+0xf0b4>
    2960:	3152464f 	cmpcc	r2, pc, asr #12
    2964:	464f4a00 	strbmi	r4, [pc], -r0, lsl #20
    2968:	4a003252 	bmi	f2b8 <__Vectors_Size+0xf0c0>
    296c:	3352464f 	cmpcc	r2, #82837504	; 0x4f00000
    2970:	464f4a00 	strbmi	r4, [pc], -r0, lsl #20
    2974:	48003452 	stmdami	r0, {r1, r4, r6, sl, ip, sp}
    2978:	4c005254 	sfmmi	f5, 4, [r0], {84}	; 0x54
    297c:	53005254 	movwpl	r5, #596	; 0x254
    2980:	00315251 	eorseq	r5, r1, r1, asr r2
    2984:	32525153 	subscc	r5, r2, #-1073741804	; 0xc0000014
    2988:	52515300 	subspl	r5, r1, #0, 6
    298c:	534a0033 	movtpl	r0, #41011	; 0xa033
    2990:	4a005251 	bmi	172dc <__Vectors_Size+0x170e4>
    2994:	00315244 	eorseq	r5, r1, r4, asr #4
    2998:	3252444a 	subscc	r4, r2, #1241513984	; 0x4a000000
    299c:	52444a00 	subpl	r4, r4, #0, 20
    29a0:	444a0033 	strbmi	r0, [sl], #-51	; 0xffffffcd
    29a4:	44003452 	strmi	r3, [r0], #-1106	; 0xfffffbae
    29a8:	44410052 	strbmi	r0, [r1], #-82	; 0xffffffae
    29ac:	79545f43 	ldmdbvc	r4, {r0, r1, r6, r8, r9, sl, fp, ip, lr}^
    29b0:	65446570 	strbvs	r6, [r4, #-1392]	; 0xfffffa90
    29b4:	50470066 	subpl	r0, r7, r6, rrx
    29b8:	505f4f49 	subspl	r4, pc, r9, asr #30
    29bc:	6f4d6e69 	svcvs	0x004d6e69
    29c0:	47006564 	strmi	r6, [r0, -r4, ror #10]
    29c4:	5f4f4950 	svcpl	0x004f4950
    29c8:	69676944 	stmdbvs	r7!, {r2, r6, r8, fp, sp, lr}^
    29cc:	576c6174 			; <UNDEFINED> instruction: 0x576c6174
    29d0:	65746972 	ldrbvs	r6, [r4, #-2418]!	; 0xfffff68e
    29d4:	49504700 	ldmdbmi	r0, {r8, r9, sl, lr}^
    29d8:	69445f4f 	stmdbvs	r4, {r0, r1, r2, r3, r6, r8, r9, sl, fp, ip, lr}^
    29dc:	61746967 	cmnvs	r4, r7, ror #18
    29e0:	6165526c 	cmnvs	r5, ip, ror #4
    29e4:	6e750064 	cdpvs	0, 7, cr0, cr5, cr4, {3}
    29e8:	6e676973 			; <UNDEFINED> instruction: 0x6e676973
    29ec:	63206465 			; <UNDEFINED> instruction: 0x63206465
    29f0:	00726168 	rsbseq	r6, r2, r8, ror #2
    29f4:	746e6975 	strbtvc	r6, [lr], #-2421	; 0xfffff68b
    29f8:	00745f38 	rsbseq	r5, r4, r8, lsr pc
    29fc:	4f495047 	svcmi	0x00495047
    2a00:	616e415f 	cmnvs	lr, pc, asr r1
    2a04:	52676f6c 	rsbpl	r6, r7, #108, 30	; 0x1b0
    2a08:	00646165 	rsbeq	r6, r4, r5, ror #2
    2a0c:	69736e75 	ldmdbvs	r3!, {r0, r2, r4, r5, r6, r9, sl, fp, sp, lr}^
    2a10:	64656e67 	strbtvs	r6, [r5], #-3687	; 0xfffff199
    2a14:	6f687320 	svcvs	0x00687320
    2a18:	75007472 	strvc	r7, [r0, #-1138]	; 0xfffffb8e
    2a1c:	31746e69 	cmncc	r4, r9, ror #28
    2a20:	00745f36 	rsbseq	r5, r4, r6, lsr pc
    2a24:	4f495047 	svcmi	0x00495047
    2a28:	4e495000 	cdpmi	0, 4, cr5, cr9, cr0, {0}
    2a2c:	646f6d00 	strbtvs	r6, [pc], #-3328	; 2a34 <__Vectors_Size+0x283c>
    2a30:	4f500065 	svcmi	0x00500065
    2a34:	73005452 	movwvc	r5, #1106	; 0x452
    2a38:	65746174 	ldrbvs	r6, [r4, #-372]!	; 0xfffffe8c
    2a3c:	616e6100 	cmnvs	lr, r0, lsl #2
    2a40:	56676f6c 	strbtpl	r6, [r7], -ip, ror #30
    2a44:	65756c61 	ldrbvs	r6, [r5, #-3169]!	; 0xfffff39f
	...

Disassembly of section .note:

00000000 <.note>:
TIM_WaitMicros():
D:\#Documents\UVISION\SMART_WAKE_UP/tim.c:4
   0:	00000004 	andeq	r0, r0, r4
   4:	0000000c 	andeq	r0, r0, ip
   8:	40000000 	andmi	r0, r0, r0
   c:	004d5241 	subeq	r5, sp, r1, asr #4
	...

Disassembly of section .comment:

00000000 <.comment>:
   0:	706d6f43 	rsbvc	r6, sp, r3, asr #30
   4:	6e656e6f 	cdpvs	14, 6, cr6, cr5, cr15, {3}
   8:	41203a74 			; <UNDEFINED> instruction: 0x41203a74
   c:	43206d72 			; <UNDEFINED> instruction: 0x43206d72
D:\#Documents\UVISION\SMART_WAKE_UP/tim.c:5
  10:	69706d6f 	ldmdbvs	r0!, {r0, r1, r2, r3, r5, r6, r8, sl, fp, sp, lr}^
  14:	2072656c 	rsbscs	r6, r2, ip, ror #10
  18:	20726f66 	rsbscs	r6, r2, r6, ror #30
D:\#Documents\UVISION\SMART_WAKE_UP/tim.c:6
  1c:	65626d45 	strbvs	r6, [r2, #-3397]!	; 0xfffff2bb
  20:	64656464 	strbtvs	r6, [r5], #-1124	; 0xfffffb9c
  24:	312e3620 			; <UNDEFINED> instruction: 0x312e3620
D:\#Documents\UVISION\SMART_WAKE_UP/tim.c:8
  28:	6f542039 	svcvs	0x00542039
  2c:	203a6c6f 	eorscs	r6, sl, pc, ror #24
  30:	6c6d7261 	sfmvs	f7, 2, [sp], #-388	; 0xfffffe7c
  34:	206b6e69 	rsbcs	r6, fp, r9, ror #28
D:\#Documents\UVISION\SMART_WAKE_UP/tim.c:52
  38:	3765355b 			; <UNDEFINED> instruction: 0x3765355b
  3c:	30626333 	rsbcc	r6, r2, r3, lsr r3
D:\#Documents\UVISION\SMART_WAKE_UP/tim.c:8
  40:	41005d30 	tstmi	r0, r0, lsr sp
  44:	694c6d72 	stmdbvs	ip, {r1, r4, r5, r6, r8, sl, fp, sp, lr}^
  48:	2d206b6e 	vstmdbcs	r0!, {d6-<overflow reg d60>}
  4c:	7274732d 	rsbsvc	r7, r4, #-1275068416	; 0xb4000000
  50:	20746369 	rsbscs	r6, r4, r9, ror #6
  54:	61632d2d 	cmnvs	r3, sp, lsr #26
D:\#Documents\UVISION\SMART_WAKE_UP/tim.c:58
  58:	72676c6c 	rsbvc	r6, r7, #108, 24	; 0x6c00
  5c:	20687061 	rsbcs	r7, r8, r1, rrx
D:\#Documents\UVISION\SMART_WAKE_UP/tim.c:9
  60:	6f6c2d2d 	svcvs	0x006c2d2d
D:\#Documents\UVISION\SMART_WAKE_UP/tim.c:10
  64:	615f6461 	cmpvs	pc, r1, ror #8
GPIO_AnalogRead():
D:\#Documents\UVISION\SMART_WAKE_UP/gpio.c:61
  68:	5f726464 	svcpl	0x00726464
  6c:	5f70616d 	svcpl	0x0070616d
  70:	6f666e69 	svcvs	0x00666e69
D:\#Documents\UVISION\SMART_WAKE_UP/gpio.c:63
  74:	6d2d2d20 	stcvs	13, cr2, [sp, #-128]!	; 0xffffff80
  78:	2d207061 	stccs	0, cr7, [r0, #-388]!	; 0xfffffe7c
URM37_Init():
D:\#Documents\UVISION\SMART_WAKE_UP/urm37.c:125
  7c:	6d79732d 	ldclvs	3, cr7, [r9, #-180]!	; 0xffffff4c
D:\#Documents\UVISION\SMART_WAKE_UP/urm37.c:126
  80:	736c6f62 	cmnvc	ip, #392	; 0x188
  84:	782d2d20 	stmdavc	sp!, {r5, r8, sl, fp, sp}
  88:	20666572 	rsbcs	r6, r6, r2, ror r5
  8c:	69642d2d 	stmdbvs	r4!, {r0, r2, r3, r5, r8, sl, fp, sp}^
  90:	735f6761 	cmpvc	pc, #25427968	; 0x1840000
  94:	72707075 	rsbsvc	r7, r0, #117	; 0x75
  98:	3d737365 	ldclcc	3, cr7, [r3, #-404]!	; 0xfffffe6c
D:\#Documents\UVISION\SMART_WAKE_UP/urm37.c:128
  9c:	31333939 	teqcc	r3, r9, lsr r9
D:\#Documents\UVISION\SMART_WAKE_UP/urm37.c:129
  a0:	722d2d20 	eorvc	r2, sp, #32, 26	; 0x800
  a4:	61625f6f 	cmnvs	r2, pc, ror #30
  a8:	303d6573 	eorscc	r6, sp, r3, ror r5
  ac:	30303878 	eorscc	r3, r0, r8, ror r8
  b0:	30303030 	eorscc	r3, r0, r0, lsr r0
  b4:	722d2d20 	eorvc	r2, sp, #32, 26	; 0x800
  b8:	61625f77 	smcvs	9719	; 0x25f7
URM37_GetTemperature():
  bc:	303d6573 	eorscc	r6, sp, r3, ror r5
SystemCoreClockUpdate():
D:\#Documents\UVISION\SMART_WAKE_UP/RTE/Device/STM32F767ZITx/system_stm32f7xx.c:231
  c0:	30303278 	eorscc	r3, r0, r8, ror r2
D:\#Documents\UVISION\SMART_WAKE_UP/RTE/Device/STM32F767ZITx/system_stm32f7xx.c:449
  c4:	30303032 	eorscc	r3, r0, r2, lsr r0
  c8:	2d2d2030 	stccs	0, cr2, [sp, #-192]!	; 0xffffff40
D:\#Documents\UVISION\SMART_WAKE_UP/RTE/Device/STM32F767ZITx/system_stm32f7xx.c:234
  cc:	3d757063 	ldclcc	0, cr7, [r5, #-396]!	; 0xfffffe74
  d0:	74726f43 	ldrbtvc	r6, [r2], #-3907	; 0xfffff0bd
  d4:	4d2d7865 	stcmi	8, cr7, [sp, #-404]!	; 0xfffffe6c
D:\#Documents\UVISION\SMART_WAKE_UP/RTE/Device/STM32F767ZITx/system_stm32f7xx.c:235
  d8:	70662e37 	rsbvc	r2, r6, r7, lsr lr
  dc:	2070642e 	rsbscs	r6, r0, lr, lsr #8
  e0:	69662d2d 	stmdbvs	r6!, {r0, r2, r3, r5, r8, sl, fp, sp}^
  e4:	3d747372 	ldclcc	3, cr7, [r4, #-456]!	; 0xfffffe38
  e8:	65565f5f 	ldrbvs	r5, [r6, #-3935]	; 0xfffff0a1
D:\#Documents\UVISION\SMART_WAKE_UP/RTE/Device/STM32F767ZITx/system_stm32f7xx.c:238
  ec:	726f7463 	rsbvc	r7, pc, #1660944384	; 0x63000000
  f0:	2d2d2073 	stccs	0, cr2, [sp, #-460]!	; 0xfffffe34
  f4:	7473696c 	ldrbtvc	r6, [r3], #-2412	; 0xfffff694
  f8:	4c5c2e3d 	mrrcmi	14, 3, r2, ip, cr13
  fc:	69747369 	ldmdbvs	r4!, {r0, r3, r5, r6, r8, r9, ip, sp, lr}^
D:\#Documents\UVISION\SMART_WAKE_UP/RTE/Device/STM32F767ZITx/system_stm32f7xx.c:456
 100:	5c73676e 	ldclpl	7, cr6, [r3], #-440	; 0xfffffe48
D:\#Documents\UVISION\SMART_WAKE_UP/RTE/Device/STM32F767ZITx/system_stm32f7xx.c:457
 104:	52414d53 	subpl	r4, r1, #5312	; 0x14c0
D:\#Documents\UVISION\SMART_WAKE_UP/RTE/Device/STM32F767ZITx/system_stm32f7xx.c:243
 108:	41575f54 	cmpmi	r7, r4, asr pc
 10c:	555f454b 	ldrbpl	r4, [pc, #-1355]	; fffffbc9 <__initial_sp+0xdffdbd21>
 110:	616d2e50 	cmnvs	sp, r0, asr lr
 114:	2d2d2070 	stccs	0, cr2, [sp, #-448]!	; 0xfffffe40
 118:	7074756f 	rsbsvc	r7, r4, pc, ror #10
D:\#Documents\UVISION\SMART_WAKE_UP/RTE/Device/STM32F767ZITx/system_stm32f7xx.c:245
 11c:	2e3d7475 	mrccs	4, 1, r7, cr13, cr5, {3}
 120:	6a624f5c 	bvs	1893e98 <__Vectors_Size+0x1893ca0>
 124:	73746365 	cmnvc	r4, #-1811939327	; 0x94000001
 128:	414d535c 	cmpmi	sp, ip, asr r3
D:\#Documents\UVISION\SMART_WAKE_UP/RTE/Device/STM32F767ZITx/system_stm32f7xx.c:246
 12c:	575f5452 			; <UNDEFINED> instruction: 0x575f5452
SH1106_DrawCircle():
D:\#Documents\UVISION\SMART_WAKE_UP/sh1106.c:461
 130:	5f454b41 	svcpl	0x00454b41
 134:	612e5055 	qsubvs	r5, r5, lr
 138:	2d206678 	stccs	6, cr6, [r0, #-480]!	; 0xfffffe20
 13c:	746e652d 	strbtvc	r6, [lr], #-1325	; 0xfffffad3
 140:	523d7972 	eorspl	r7, sp, #1867776	; 0x1c8000
 144:	74657365 	strbtvc	r7, [r5], #-869	; 0xfffffc9b
 148:	6e61485f 	mcrvs	8, 3, r4, cr1, cr15, {2}
 14c:	72656c64 	rsbvc	r6, r5, #100, 24	; 0x6400
D:\#Documents\UVISION\SMART_WAKE_UP/sh1106.c:462
 150:	692d2d20 	pushvs	{r5, r8, sl, fp, sp}
 154:	3d6f666e 	stclcc	6, cr6, [pc, #-440]!	; ffffffa4 <__initial_sp+0xdffdc0fc>
 158:	6d6d7573 	cfstr64vs	mvdx7, [sp, #-460]!	; 0xfffffe34
 15c:	73797261 	cmnvc	r9, #268435462	; 0x10000006
 160:	73657a69 	cmnvc	r5, #430080	; 0x69000
 164:	7a69732c 	bvc	1a5ce1c <__Vectors_Size+0x1a5cc24>
 168:	742c7365 	strtvc	r7, [ip], #-869	; 0xfffffc9b
 16c:	6c61746f 	cfstrdvs	mvd7, [r1], #-444	; 0xfffffe44
 170:	6e752c73 	mrcvs	12, 3, r2, cr5, cr3, {3}
 174:	64657375 	strbtvs	r7, [r5], #-885	; 0xfffffc8b
D:\#Documents\UVISION\SMART_WAKE_UP/sh1106.c:464
 178:	6e65762c 	cdpvs	6, 6, cr7, cr5, cr12, {1}
 17c:	73726565 	cmnvc	r2, #423624704	; 0x19400000
 180:	3a44000a 	bcc	11001b0 <__Vectors_Size+0x10fffb8>
 184:	464f535c 			; <UNDEFINED> instruction: 0x464f535c
 188:	56755c54 			; <UNDEFINED> instruction: 0x56755c54
 18c:	6f697369 	svcvs	0x00697369
 190:	654b5c6e 	strbvs	r5, [fp, #-3182]	; 0xfffff392
 194:	565f6c69 	ldrbpl	r6, [pc], -r9, ror #24
 198:	52415c35 	subpl	r5, r1, #13568	; 0x3500
 19c:	52415c4d 	subpl	r5, r1, #19712	; 0x4d00
D:\#Documents\UVISION\SMART_WAKE_UP/sh1106.c:465
 1a0:	414c434d 	cmpmi	ip, sp, asr #6
SH1106_DrawFilledCircle():
D:\#Documents\UVISION\SMART_WAKE_UP/sh1106.c:465
 1a4:	425c474e 	subsmi	r4, ip, #20447232	; 0x1380000
 1a8:	2e5c6e69 	cdpcs	14, 5, cr6, cr12, cr9, {3}
 1ac:	696c5c2e 	stmdbvs	ip!, {r1, r2, r3, r5, sl, fp, ip, lr}^
 1b0:	72615c62 	rsbvc	r5, r1, #25088	; 0x6200
 1b4:	62696c6d 	rsbvs	r6, r9, #27904	; 0x6d00
 1b8:	775f635c 			; <UNDEFINED> instruction: 0x775f635c
 1bc:	44006c2e 	strmi	r6, [r0], #-3118	; 0xfffff3d2
 1c0:	4f535c3a 	svcmi	0x00535c3a
 1c4:	755c5446 	ldrbvc	r5, [ip, #-1094]	; 0xfffffbba
D:\#Documents\UVISION\SMART_WAKE_UP/sh1106.c:449
 1c8:	69736956 	ldmdbvs	r3!, {r1, r2, r4, r6, r8, fp, sp, lr}^
D:\#Documents\UVISION\SMART_WAKE_UP/sh1106.c:467
 1cc:	4b5c6e6f 	blmi	171bb90 <__Vectors_Size+0x171b998>
 1d0:	5f6c6965 	svcpl	0x006c6965
 1d4:	415c3556 	cmpmi	ip, r6, asr r5
 1d8:	415c4d52 	cmpmi	ip, r2, asr sp
 1dc:	4c434d52 	mcrrmi	13, 5, r4, r3, cr2
 1e0:	5c474e41 	mcrrpl	14, 4, r4, r7, cr1
 1e4:	5c6e6942 			; <UNDEFINED> instruction: 0x5c6e6942
 1e8:	6c5c2e2e 	mrrcvs	14, 2, r2, ip, cr14
 1ec:	615c6269 	cmpvs	ip, r9, ror #4
 1f0:	696c6d72 	stmdbvs	ip!, {r1, r4, r5, r6, r8, sl, fp, sp, lr}^
 1f4:	7a665c62 	bvc	1997384 <__Vectors_Size+0x199718c>
 1f8:	2e76775f 	mrccs	7, 3, r7, cr6, cr15, {2}
 1fc:	3a44006c 	bcc	11003b4 <__Vectors_Size+0x11001bc>
 200:	464f535c 			; <UNDEFINED> instruction: 0x464f535c
 204:	56755c54 			; <UNDEFINED> instruction: 0x56755c54
 208:	6f697369 	svcvs	0x00697369
 20c:	654b5c6e 	strbvs	r5, [fp, #-3182]	; 0xfffff392
 210:	565f6c69 	ldrbpl	r6, [pc], -r9, ror #24
 214:	52415c35 	subpl	r5, r1, #13568	; 0x3500
 218:	52415c4d 	subpl	r5, r1, #19712	; 0x4d00
 21c:	414c434d 	cmpmi	ip, sp, asr #6
 220:	425c474e 	subsmi	r4, ip, #20447232	; 0x1380000
 224:	2e5c6e69 	cdpcs	14, 5, cr6, cr12, cr9, {3}
 228:	696c5c2e 	stmdbvs	ip!, {r1, r2, r3, r5, sl, fp, ip, lr}^
 22c:	72615c62 	rsbvc	r5, r1, #25088	; 0x6200
 230:	62696c6d 	rsbvs	r6, r9, #27904	; 0x6d00
 234:	775f685c 			; <UNDEFINED> instruction: 0x775f685c
 238:	44006c2e 	strmi	r6, [r0], #-3118	; 0xfffff3d2
 23c:	4f535c3a 	svcmi	0x00535c3a
 240:	755c5446 	ldrbvc	r5, [ip, #-1094]	; 0xfffffbba
 244:	69736956 	ldmdbvs	r3!, {r1, r2, r4, r6, r8, fp, sp, lr}^
 248:	4b5c6e6f 	blmi	171bc0c <__Vectors_Size+0x171ba14>
 24c:	5f6c6965 	svcpl	0x006c6965
 250:	415c3556 	cmpmi	ip, r6, asr r5
 254:	415c4d52 	cmpmi	ip, r2, asr sp
 258:	4c434d52 	mcrrmi	13, 5, r4, r3, cr2
 25c:	5c474e41 	mcrrpl	14, 4, r4, r7, cr1
 260:	5c6e6942 			; <UNDEFINED> instruction: 0x5c6e6942
 264:	6c5c2e2e 	mrrcvs	14, 2, r2, ip, cr14
 268:	6c5c6269 	lfmvs	f6, 2, [ip], {105}	; 0x69
 26c:	78636269 	stmdavc	r3!, {r0, r3, r5, r6, r9, sp, lr}^
 270:	696c5c78 	stmdbvs	ip!, {r3, r4, r5, r6, sl, fp, ip, lr}^
 274:	70706362 	rsbsvc	r6, r0, r2, ror #6
 278:	7078652d 	rsbsvc	r6, r8, sp, lsr #10
 27c:	6d697265 	sfmvs	f7, 2, [r9, #-404]!	; 0xfffffe6c
 280:	61746e65 	cmnvs	r4, r5, ror #28
 284:	2e775f6c 	cdpcs	15, 7, cr5, cr7, cr12, {3}
 288:	3a44006c 	bcc	1100440 <__Vectors_Size+0x1100248>
 28c:	464f535c 			; <UNDEFINED> instruction: 0x464f535c
 290:	56755c54 			; <UNDEFINED> instruction: 0x56755c54
 294:	6f697369 	svcvs	0x00697369
 298:	654b5c6e 	strbvs	r5, [fp, #-3182]	; 0xfffff392
 29c:	565f6c69 	ldrbpl	r6, [pc], -r9, ror #24
 2a0:	52415c35 	subpl	r5, r1, #13568	; 0x3500
 2a4:	52415c4d 	subpl	r5, r1, #19712	; 0x4d00
 2a8:	414c434d 	cmpmi	ip, sp, asr #6
 2ac:	425c474e 	subsmi	r4, ip, #20447232	; 0x1380000
 2b0:	2e5c6e69 	cdpcs	14, 5, cr6, cr12, cr9, {3}
 2b4:	696c5c2e 	stmdbvs	ip!, {r1, r2, r3, r5, sl, fp, ip, lr}^
 2b8:	696c5c62 	stmdbvs	ip!, {r1, r5, r6, sl, fp, ip, lr}^
 2bc:	78786362 	ldmdavc	r8!, {r1, r5, r6, r8, r9, sp, lr}^
 2c0:	62696c5c 	rsbvs	r6, r9, #92, 24	; 0x5c00
 2c4:	5f707063 	svcpl	0x00707063
 2c8:	006c2e77 	rsbeq	r2, ip, r7, ror lr
 2cc:	535c3a44 	cmppl	ip, #68, 20	; 0x44000
 2d0:	5c54464f 	mrrcpl	6, 4, r4, r4, cr15	; <UNPREDICTABLE>
 2d4:	73695675 	cmnvc	r9, #122683392	; 0x7500000
 2d8:	5c6e6f69 	stclpl	15, cr6, [lr], #-420	; 0xfffffe5c
 2dc:	6c69654b 	cfstr64vs	mvdx6, [r9], #-300	; 0xfffffed4
 2e0:	5c35565f 	ldcpl	6, cr5, [r5], #-380	; 0xfffffe84
 2e4:	5c4d5241 	sfmpl	f5, 2, [sp], {65}	; 0x41
 2e8:	434d5241 	movtmi	r5, #53825	; 0xd241
 2ec:	474e414c 	strbmi	r4, [lr, -ip, asr #2]
 2f0:	6e69425c 	mcrvs	2, 3, r4, cr9, cr12, {2}
 2f4:	5c2e2e5c 	stcpl	14, cr2, [lr], #-368	; 0xfffffe90
 2f8:	5c62696c 			; <UNDEFINED> instruction: 0x5c62696c
 2fc:	6362696c 	cmnvs	r2, #108, 18	; 0x1b0000
 300:	6c5c7878 	mrrcvs	8, 7, r7, ip, cr8
 304:	70636269 	rsbvc	r6, r3, r9, ror #4
 308:	69626170 	stmdbvs	r2!, {r4, r5, r6, r8, sp, lr}^
 30c:	6c2e775f 	stcvs	7, cr7, [lr], #-380	; 0xfffffe84
 310:	5c3a4400 	cfldrspl	mvf4, [sl], #-0
 314:	54464f53 	strbpl	r4, [r6], #-3923	; 0xfffff0ad
 318:	6956755c 	ldmdbvs	r6, {r2, r3, r4, r6, r8, sl, ip, sp, lr}^
 31c:	6e6f6973 			; <UNDEFINED> instruction: 0x6e6f6973
 320:	69654b5c 	stmdbvs	r5!, {r2, r3, r4, r6, r8, r9, fp, lr}^
 324:	35565f6c 	ldrbcc	r5, [r6, #-3948]	; 0xfffff094
 328:	4d52415c 	ldfmie	f4, [r2, #-368]	; 0xfffffe90
 32c:	4d52415c 	ldfmie	f4, [r2, #-368]	; 0xfffffe90
 330:	4e414c43 	cdpmi	12, 4, cr4, cr1, cr3, {2}
 334:	69425c47 	stmdbvs	r2, {r0, r1, r2, r6, sl, fp, ip, lr}^
 338:	2e2e5c6e 	cdpcs	12, 2, cr5, cr14, cr14, {3}
 33c:	62696c5c 	rsbvs	r6, r9, #92, 24	; 0x5c00
 340:	6d72615c 	ldfvse	f6, [r2, #-368]!	; 0xfffffe90
 344:	5c62696c 			; <UNDEFINED> instruction: 0x5c62696c
 348:	76775f6d 	ldrbtvc	r5, [r7], -sp, ror #30
 34c:	44006c2e 	strmi	r6, [r0], #-3118	; 0xfffff3d2
 350:	4f535c3a 	svcmi	0x00535c3a
 354:	755c5446 	ldrbvc	r5, [ip, #-1094]	; 0xfffffbba
 358:	69736956 	ldmdbvs	r3!, {r1, r2, r4, r6, r8, fp, sp, lr}^
 35c:	4b5c6e6f 	blmi	171bd20 <__Vectors_Size+0x171bb28>
 360:	5f6c6965 	svcpl	0x006c6965
 364:	415c3556 	cmpmi	ip, r6, asr r5
 368:	415c4d52 	cmpmi	ip, r2, asr sp
 36c:	4c434d52 	mcrrmi	13, 5, r4, r3, cr2
 370:	5c474e41 	mcrrpl	14, 4, r4, r7, cr1
 374:	5c6e6942 			; <UNDEFINED> instruction: 0x5c6e6942
 378:	6c5c2e2e 	mrrcvs	14, 2, r2, ip, cr14
 37c:	615c6269 	cmpvs	ip, r9, ror #4
 380:	696c6d72 	stmdbvs	ip!, {r1, r4, r5, r6, r8, sl, fp, sp, lr}^
 384:	66765c62 	ldrbtvs	r5, [r6], -r2, ror #24
 388:	70757370 	rsbsvc	r7, r5, r0, ror r3
 38c:	74726f70 	ldrbtvc	r6, [r2], #-3952	; 0xfffff090
 390:	49006c2e 	stmdbmi	r0, {r1, r2, r3, r5, sl, fp, sp, lr}
 394:	7475706e 	ldrbtvc	r7, [r5], #-110	; 0xffffff92
 398:	6d6f4320 	stclvs	3, cr4, [pc, #-128]!	; 320 <__Vectors_Size+0x128>
 39c:	746e656d 	strbtvc	r6, [lr], #-1389	; 0xfffffa93
 3a0:	00003a73 	andeq	r3, r0, r3, ror sl
 3a4:	6f697067 	svcvs	0x00697067
 3a8:	6d006f2e 	stcvs	15, cr6, [r0, #-184]	; 0xffffff48
 3ac:	2e6e6961 	vnmulcs.f16	s13, s28, s3	; <UNPREDICTABLE>
 3b0:	6573006f 	ldrbvs	r0, [r3, #-111]!	; 0xffffff91
 3b4:	2e6f7672 	mcrcs	6, 3, r7, cr15, cr2, {3}
 3b8:	6974006f 	ldmdbvs	r4!, {r0, r1, r2, r3, r5, r6}^
 3bc:	006f2e6d 	rsbeq	r2, pc, sp, ror #28
 3c0:	336d7275 	cmncc	sp, #1342177287	; 0x50000007
 3c4:	006f2e37 	rsbeq	r2, pc, r7, lsr lr	; <UNPREDICTABLE>
 3c8:	72617375 	rsbvc	r7, r1, #-738197503	; 0xd4000001
 3cc:	006f2e74 	rsbeq	r2, pc, r4, ror lr	; <UNPREDICTABLE>
 3d0:	39377473 	ldmdbcc	r7!, {r0, r1, r4, r5, r6, sl, ip, sp, lr}
 3d4:	6f2e3032 	svcvs	0x002e3032
 3d8:	33736400 	cmncc	r3, #0, 8
 3dc:	2e313332 	mrccs	3, 1, r3, cr1, cr2, {1}
 3e0:	6873006f 	ldmdavs	r3!, {r0, r1, r2, r3, r5, r6}^
 3e4:	36303131 			; <UNDEFINED> instruction: 0x36303131
 3e8:	62006f2e 	andvs	r6, r0, #46, 30	; 0xb8
 3ec:	6f747475 	svcvs	0x00747475
 3f0:	6f2e736e 	svcvs	0x002e736e
 3f4:	73797300 	cmnvc	r9, #0, 6
 3f8:	5f6d6574 	svcpl	0x006d6574
 3fc:	336d7473 	cmncc	sp, #1929379840	; 0x73000000
 400:	78376632 	ldmdavc	r7!, {r1, r4, r5, r9, sl, sp, lr}
 404:	006f2e78 	rsbeq	r2, pc, r8, ror lr	; <UNPREDICTABLE>
 408:	6f430000 	svcvs	0x00430000
 40c:	6e6f706d 	cdpvs	0, 6, cr7, cr15, cr13, {3}
 410:	3a746e65 	bcc	1d1bdac <__Vectors_Size+0x1d1bbb4>
 414:	6d724120 	ldfvse	f4, [r2, #-128]!	; 0xffffff80
 418:	6d6f4320 	stclvs	3, cr4, [pc, #-128]!	; 3a0 <__Vectors_Size+0x1a8>
 41c:	656c6970 	strbvs	r6, [ip, #-2416]!	; 0xfffff690
 420:	6f662072 	svcvs	0x00662072
 424:	6d452072 	stclvs	0, cr2, [r5, #-456]	; 0xfffffe38
 428:	64646562 	strbtvs	r6, [r4], #-1378	; 0xfffffa9e
 42c:	36206465 	strtcc	r6, [r0], -r5, ror #8
 430:	2039312e 	eorscs	r3, r9, lr, lsr #2
 434:	6c6f6f54 	stclvs	15, cr6, [pc], #-336	; 2ec <__Vectors_Size+0xf4>
 438:	7261203a 	rsbvc	r2, r1, #58	; 0x3a
 43c:	616c636d 	cmnvs	ip, sp, ror #6
 440:	5b20676e 	blpl	81a200 <__Vectors_Size+0x81a008>
 444:	33376535 	teqcc	r7, #222298112	; 0xd400000
 448:	30306263 	eorscc	r6, r0, r3, ror #4
 44c:	7300005d 	movwvc	r0, #93	; 0x5d
 450:	74726174 	ldrbtvc	r6, [r2], #-372	; 0xfffffe8c
 454:	735f7075 	cmpvc	pc, #117	; 0x75
 458:	32336d74 	eorscc	r6, r3, #116, 26	; 0x1d00
 45c:	37363766 	ldrcc	r3, [r6, -r6, ror #14]!
 460:	6f2e7878 	svcvs	0x002e7878
 464:	6f430000 	svcvs	0x00430000
 468:	6e6f706d 	cdpvs	0, 6, cr7, cr15, cr13, {3}
 46c:	3a746e65 	bcc	1d1be08 <__Vectors_Size+0x1d1bc10>
 470:	6d724120 	ldfvse	f4, [r2, #-128]!	; 0xffffff80
 474:	6d6f4320 	stclvs	3, cr4, [pc, #-128]!	; 3fc <__Vectors_Size+0x204>
 478:	656c6970 	strbvs	r6, [ip, #-2416]!	; 0xfffff690
 47c:	6f662072 	svcvs	0x00662072
 480:	6d452072 	stclvs	0, cr2, [r5, #-456]	; 0xfffffe38
 484:	64646562 	strbtvs	r6, [r4], #-1378	; 0xfffffa9e
 488:	36206465 	strtcc	r6, [r0], -r5, ror #8
 48c:	2039312e 	eorscs	r3, r9, lr, lsr #2
 490:	6c6f6f54 	stclvs	15, cr6, [pc], #-336	; 348 <__Vectors_Size+0x150>
 494:	7261203a 	rsbvc	r2, r1, #58	; 0x3a
 498:	6d73616d 	ldfvse	f6, [r3, #-436]!	; 0xfffffe4c
 49c:	65355b20 	ldrvs	r5, [r5, #-2848]!	; 0xfffff4e0
 4a0:	62633337 	rsbvs	r3, r3, #-603979776	; 0xdc000000
 4a4:	005d3030 	subseq	r3, sp, r0, lsr r0
 4a8:	616d7261 	cmnvs	sp, r1, ror #4
 4ac:	2d206d73 	stccs	13, cr6, [r0, #-460]!	; 0xfffffe34
 4b0:	6265642d 	rsbvs	r6, r5, #754974720	; 0x2d000000
 4b4:	2d206775 	stccs	7, cr6, [r0, #-468]!	; 0xfffffe2c
 4b8:	6169642d 	cmnvs	r9, sp, lsr #8
 4bc:	75735f67 	ldrbvc	r5, [r3, #-3943]!	; 0xfffff099
 4c0:	65727070 	ldrbvs	r7, [r2, #-112]!	; 0xffffff90
 4c4:	393d7373 	ldmdbcc	sp!, {r0, r1, r4, r5, r6, r8, r9, ip, sp, lr}
 4c8:	2c313339 	ldccs	3, cr3, [r1], #-228	; 0xffffff1c
 4cc:	35393141 	ldrcc	r3, [r9, #-321]!	; 0xfffffebf
 4d0:	2d205730 	stccs	7, cr5, [r0, #-192]!	; 0xffffff40
 4d4:	7570632d 	ldrbvc	r6, [r0, #-813]!	; 0xfffffcd3
 4d8:	726f433d 	rsbvc	r4, pc, #-201326592	; 0xf4000000
 4dc:	2d786574 	cfldr64cs	mvdx6, [r8, #-464]!	; 0xfffffe30
 4e0:	2d20374d 	stccs	7, cr3, [r0, #-308]!	; 0xfffffecc
 4e4:	7570662d 	ldrbvc	r6, [r0, #-1581]!	; 0xfffff9d3
 4e8:	7650463d 			; <UNDEFINED> instruction: 0x7650463d
 4ec:	31445f35 	cmpcc	r4, r5, lsr pc
 4f0:	2d2d2036 	stccs	0, cr2, [sp, #-216]!	; 0xffffff28
 4f4:	73637061 	cmnvc	r3, #97	; 0x61
 4f8:	61682f3d 	cmnvs	r8, sp, lsr pc
 4fc:	70666472 	rsbvc	r6, r6, r2, ror r4
 500:	492d2020 	pushmi	{r5, sp}
 504:	54522f2e 	ldrbpl	r2, [r2], #-3886	; 0xfffff0d2
 508:	545f2f45 	ldrbpl	r2, [pc], #-3909	; 510 <__Vectors_Size+0x318>
 50c:	65677261 	strbvs	r7, [r7, #-609]!	; 0xfffffd9f
 510:	3a442c74 	bcc	110b6e8 <__Vectors_Size+0x110b4f0>
 514:	464f532f 	strbmi	r5, [pc], -pc, lsr #6
 518:	56752f54 	uhsaxpl	r2, r5, r4
 51c:	6f697369 	svcvs	0x00697369
 520:	61502f6e 	cmpvs	r0, lr, ror #30
 524:	2f736b63 	svccs	0x00736b63
 528:	2f4d5241 	svccs	0x004d5241
 52c:	49534d43 	ldmdbmi	r3, {r0, r1, r6, r8, sl, fp, lr}^
 530:	2e352f53 	mrccs	15, 1, r2, cr5, cr3, {2}
 534:	2f302e39 	svccs	0x00302e39
 538:	49534d43 	ldmdbmi	r3, {r0, r1, r6, r8, sl, fp, lr}^
 53c:	6f432f53 	svcvs	0x00432f53
 540:	492f6572 	stmdbmi	pc!, {r1, r4, r5, r6, r8, sl, sp, lr}	; <UNPREDICTABLE>
 544:	756c636e 	strbvc	r6, [ip, #-878]!	; 0xfffffc92
 548:	442c6564 	strtmi	r6, [ip], #-1380	; 0xfffffa9c
 54c:	4f532f3a 	svcmi	0x00532f3a
 550:	752f5446 	strvc	r5, [pc, #-1094]!	; 112 <BuildAttributes$$THM_ISAv4$E$P$D$K$B$S$7EM$VFPv5_D16$PE$PLD8$A:L22UL41UL21$X:L11$S22US41US21$IEEE1$IW$~IW$USESV6$~STKCKD$USESV7$~SHL$OTIME$ROPI$IEEEJ$EBA8$UX$STANDARDLIB$REQ8$PRES8$EABIv2+0x112>
 554:	69736956 	ldmdbvs	r3!, {r1, r2, r4, r6, r8, fp, sp, lr}^
 558:	502f6e6f 	eorpl	r6, pc, pc, ror #28
 55c:	736b6361 	cmnvc	fp, #-2080374783	; 0x84000001
 560:	69654b2f 	stmdbvs	r5!, {r0, r1, r2, r3, r5, r8, r9, fp, lr}^
 564:	54532f6c 	ldrbpl	r2, [r3], #-3948	; 0xfffff094
 568:	4632334d 	ldrtmi	r3, [r2], -sp, asr #6
 56c:	5f787837 	svcpl	0x00787837
 570:	2f504644 	svccs	0x00504644
 574:	35312e32 	ldrcc	r2, [r1, #-3634]!	; 0xfffff1ce
 578:	442f322e 	strtmi	r3, [pc], #-558	; 580 <__Vectors_Size+0x388>
 57c:	65766972 	ldrbvs	r6, [r6, #-2418]!	; 0xfffff68e
 580:	432f7372 			; <UNDEFINED> instruction: 0x432f7372
 584:	5349534d 	movtpl	r5, #37709	; 0x934d
 588:	7665442f 	strbtvc	r4, [r5], -pc, lsr #8
 58c:	00000069 	andeq	r0, r0, r9, rrx
